ARM GAS  C:\Users\Jesus\AppData\Local\Temp\ccZ7DT0O.s 			page 1


   1              		.syntax unified
   2              		.cpu cortex-m0
   3              		.fpu softvfp
   4              		.eabi_attribute 20, 1
   5              		.eabi_attribute 21, 1
   6              		.eabi_attribute 23, 3
   7              		.eabi_attribute 24, 1
   8              		.eabi_attribute 25, 1
   9              		.eabi_attribute 26, 1
  10              		.eabi_attribute 30, 1
  11              		.eabi_attribute 34, 0
  12              		.eabi_attribute 18, 4
  13              		.thumb
  14              		.syntax unified
  15              		.file	"cyfitter_cfg.c"
  16              		.text
  17              	.Ltext0:
  18              		.cfi_sections	.debug_frame
  19              		.section	.text.cfg_write_bytes32,"ax",%progbits
  20              		.align	2
  21              		.code	16
  22              		.thumb_func
  23              		.type	cfg_write_bytes32, %function
  24              	cfg_write_bytes32:
  25              	.LFB4:
  26              		.file 1 "Generated_Source\\PSoC4\\cyfitter_cfg.c"
   1:Generated_Source\PSoC4/cyfitter_cfg.c **** 
   2:Generated_Source\PSoC4/cyfitter_cfg.c **** /*******************************************************************************
   3:Generated_Source\PSoC4/cyfitter_cfg.c **** * File Name: cyfitter_cfg.c
   4:Generated_Source\PSoC4/cyfitter_cfg.c **** * 
   5:Generated_Source\PSoC4/cyfitter_cfg.c **** * PSoC Creator  4.2
   6:Generated_Source\PSoC4/cyfitter_cfg.c **** *
   7:Generated_Source\PSoC4/cyfitter_cfg.c **** * Description:
   8:Generated_Source\PSoC4/cyfitter_cfg.c **** * This file contains device initialization code.
   9:Generated_Source\PSoC4/cyfitter_cfg.c **** * Except for the user defined sections in CyClockStartupError(), this file should not be modified.
  10:Generated_Source\PSoC4/cyfitter_cfg.c **** * This file is automatically generated by PSoC Creator.
  11:Generated_Source\PSoC4/cyfitter_cfg.c **** *
  12:Generated_Source\PSoC4/cyfitter_cfg.c **** ********************************************************************************
  13:Generated_Source\PSoC4/cyfitter_cfg.c **** * Copyright (c) 2007-2018 Cypress Semiconductor.  All rights reserved.
  14:Generated_Source\PSoC4/cyfitter_cfg.c **** * You may use this file only in accordance with the license, terms, conditions, 
  15:Generated_Source\PSoC4/cyfitter_cfg.c **** * disclaimers, and limitations in the end user license agreement accompanying 
  16:Generated_Source\PSoC4/cyfitter_cfg.c **** * the software package with which this file was provided.
  17:Generated_Source\PSoC4/cyfitter_cfg.c **** ********************************************************************************/
  18:Generated_Source\PSoC4/cyfitter_cfg.c **** 
  19:Generated_Source\PSoC4/cyfitter_cfg.c **** #include <string.h>
  20:Generated_Source\PSoC4/cyfitter_cfg.c **** #include "cytypes.h"
  21:Generated_Source\PSoC4/cyfitter_cfg.c **** #include "cydevice_trm.h"
  22:Generated_Source\PSoC4/cyfitter_cfg.c **** #include "cyfitter.h"
  23:Generated_Source\PSoC4/cyfitter_cfg.c **** #include "CyLib.h"
  24:Generated_Source\PSoC4/cyfitter_cfg.c **** #include "CyLFClk.h"
  25:Generated_Source\PSoC4/cyfitter_cfg.c **** #include "cyfitter_cfg.h"
  26:Generated_Source\PSoC4/cyfitter_cfg.c **** #include "cyapicallbacks.h"
  27:Generated_Source\PSoC4/cyfitter_cfg.c **** 
  28:Generated_Source\PSoC4/cyfitter_cfg.c **** 
  29:Generated_Source\PSoC4/cyfitter_cfg.c **** #if defined(__GNUC__) || defined(__ARMCC_VERSION)
  30:Generated_Source\PSoC4/cyfitter_cfg.c ****     #define CYPACKED 
  31:Generated_Source\PSoC4/cyfitter_cfg.c ****     #define CYPACKED_ATTR __attribute__ ((packed))
ARM GAS  C:\Users\Jesus\AppData\Local\Temp\ccZ7DT0O.s 			page 2


  32:Generated_Source\PSoC4/cyfitter_cfg.c ****     #define CYALIGNED __attribute__ ((aligned))
  33:Generated_Source\PSoC4/cyfitter_cfg.c ****     #define CY_CFG_UNUSED __attribute__ ((unused))
  34:Generated_Source\PSoC4/cyfitter_cfg.c ****     #ifndef CY_CFG_SECTION
  35:Generated_Source\PSoC4/cyfitter_cfg.c ****         #define CY_CFG_SECTION __attribute__ ((section(".psocinit")))
  36:Generated_Source\PSoC4/cyfitter_cfg.c ****     #endif
  37:Generated_Source\PSoC4/cyfitter_cfg.c ****     
  38:Generated_Source\PSoC4/cyfitter_cfg.c ****     #if defined(__ARMCC_VERSION)
  39:Generated_Source\PSoC4/cyfitter_cfg.c ****         #define CY_CFG_MEMORY_BARRIER() __memory_changed()
  40:Generated_Source\PSoC4/cyfitter_cfg.c ****     #else
  41:Generated_Source\PSoC4/cyfitter_cfg.c ****         #define CY_CFG_MEMORY_BARRIER() __sync_synchronize()
  42:Generated_Source\PSoC4/cyfitter_cfg.c ****     #endif
  43:Generated_Source\PSoC4/cyfitter_cfg.c ****     
  44:Generated_Source\PSoC4/cyfitter_cfg.c **** #elif defined(__ICCARM__)
  45:Generated_Source\PSoC4/cyfitter_cfg.c ****     #include <intrinsics.h>
  46:Generated_Source\PSoC4/cyfitter_cfg.c **** 
  47:Generated_Source\PSoC4/cyfitter_cfg.c ****     #define CYPACKED __packed
  48:Generated_Source\PSoC4/cyfitter_cfg.c ****     #define CYPACKED_ATTR 
  49:Generated_Source\PSoC4/cyfitter_cfg.c ****     #define CYALIGNED _Pragma("data_alignment=4")
  50:Generated_Source\PSoC4/cyfitter_cfg.c ****     #define CY_CFG_UNUSED _Pragma("diag_suppress=Pe177")
  51:Generated_Source\PSoC4/cyfitter_cfg.c ****     #define CY_CFG_SECTION _Pragma("location=\".psocinit\"")
  52:Generated_Source\PSoC4/cyfitter_cfg.c ****     
  53:Generated_Source\PSoC4/cyfitter_cfg.c ****     #define CY_CFG_MEMORY_BARRIER() __DMB()
  54:Generated_Source\PSoC4/cyfitter_cfg.c ****     
  55:Generated_Source\PSoC4/cyfitter_cfg.c **** #else
  56:Generated_Source\PSoC4/cyfitter_cfg.c ****     #error Unsupported toolchain
  57:Generated_Source\PSoC4/cyfitter_cfg.c **** #endif
  58:Generated_Source\PSoC4/cyfitter_cfg.c **** 
  59:Generated_Source\PSoC4/cyfitter_cfg.c **** #ifndef CYCODE
  60:Generated_Source\PSoC4/cyfitter_cfg.c ****     #define CYCODE
  61:Generated_Source\PSoC4/cyfitter_cfg.c **** #endif
  62:Generated_Source\PSoC4/cyfitter_cfg.c **** #ifndef CYDATA
  63:Generated_Source\PSoC4/cyfitter_cfg.c ****     #define CYDATA
  64:Generated_Source\PSoC4/cyfitter_cfg.c **** #endif
  65:Generated_Source\PSoC4/cyfitter_cfg.c **** #ifndef CYFAR
  66:Generated_Source\PSoC4/cyfitter_cfg.c ****     #define CYFAR
  67:Generated_Source\PSoC4/cyfitter_cfg.c **** #endif
  68:Generated_Source\PSoC4/cyfitter_cfg.c **** #ifndef CYXDATA
  69:Generated_Source\PSoC4/cyfitter_cfg.c ****     #define CYXDATA
  70:Generated_Source\PSoC4/cyfitter_cfg.c **** #endif
  71:Generated_Source\PSoC4/cyfitter_cfg.c **** 
  72:Generated_Source\PSoC4/cyfitter_cfg.c **** 
  73:Generated_Source\PSoC4/cyfitter_cfg.c **** CY_CFG_UNUSED
  74:Generated_Source\PSoC4/cyfitter_cfg.c **** static void CYMEMZERO(void *s, size_t n);
  75:Generated_Source\PSoC4/cyfitter_cfg.c **** CY_CFG_UNUSED
  76:Generated_Source\PSoC4/cyfitter_cfg.c **** static void CYMEMZERO(void *s, size_t n)
  77:Generated_Source\PSoC4/cyfitter_cfg.c **** {
  78:Generated_Source\PSoC4/cyfitter_cfg.c **** 	(void)memset(s, 0, n);
  79:Generated_Source\PSoC4/cyfitter_cfg.c **** }
  80:Generated_Source\PSoC4/cyfitter_cfg.c **** CY_CFG_UNUSED
  81:Generated_Source\PSoC4/cyfitter_cfg.c **** static void CYCONFIGCPY(void *dest, const void *src, size_t n);
  82:Generated_Source\PSoC4/cyfitter_cfg.c **** CY_CFG_UNUSED
  83:Generated_Source\PSoC4/cyfitter_cfg.c **** static void CYCONFIGCPY(void *dest, const void *src, size_t n)
  84:Generated_Source\PSoC4/cyfitter_cfg.c **** {
  85:Generated_Source\PSoC4/cyfitter_cfg.c **** 	(void)memcpy(dest, src, n);
  86:Generated_Source\PSoC4/cyfitter_cfg.c **** }
  87:Generated_Source\PSoC4/cyfitter_cfg.c **** CY_CFG_UNUSED
  88:Generated_Source\PSoC4/cyfitter_cfg.c **** static void CYCONFIGCPYCODE(void *dest, const void *src, size_t n);
ARM GAS  C:\Users\Jesus\AppData\Local\Temp\ccZ7DT0O.s 			page 3


  89:Generated_Source\PSoC4/cyfitter_cfg.c **** CY_CFG_UNUSED
  90:Generated_Source\PSoC4/cyfitter_cfg.c **** static void CYCONFIGCPYCODE(void *dest, const void *src, size_t n)
  91:Generated_Source\PSoC4/cyfitter_cfg.c **** {
  92:Generated_Source\PSoC4/cyfitter_cfg.c **** 	(void)memcpy(dest, src, n);
  93:Generated_Source\PSoC4/cyfitter_cfg.c **** }
  94:Generated_Source\PSoC4/cyfitter_cfg.c **** 
  95:Generated_Source\PSoC4/cyfitter_cfg.c **** 
  96:Generated_Source\PSoC4/cyfitter_cfg.c **** 
  97:Generated_Source\PSoC4/cyfitter_cfg.c **** 
  98:Generated_Source\PSoC4/cyfitter_cfg.c **** /* Clock startup error codes                                                   */
  99:Generated_Source\PSoC4/cyfitter_cfg.c **** #define CYCLOCKSTART_NO_ERROR    0u
 100:Generated_Source\PSoC4/cyfitter_cfg.c **** #define CYCLOCKSTART_XTAL_ERROR  1u
 101:Generated_Source\PSoC4/cyfitter_cfg.c **** #define CYCLOCKSTART_32KHZ_ERROR 2u
 102:Generated_Source\PSoC4/cyfitter_cfg.c **** #define CYCLOCKSTART_PLL_ERROR   3u
 103:Generated_Source\PSoC4/cyfitter_cfg.c **** #define CYCLOCKSTART_FLL_ERROR   4u
 104:Generated_Source\PSoC4/cyfitter_cfg.c **** #define CYCLOCKSTART_WCO_ERROR   5u
 105:Generated_Source\PSoC4/cyfitter_cfg.c **** 
 106:Generated_Source\PSoC4/cyfitter_cfg.c **** 
 107:Generated_Source\PSoC4/cyfitter_cfg.c **** #ifdef CY_NEED_CYCLOCKSTARTUPERROR
 108:Generated_Source\PSoC4/cyfitter_cfg.c **** /*******************************************************************************
 109:Generated_Source\PSoC4/cyfitter_cfg.c **** * Function Name: CyClockStartupError
 110:Generated_Source\PSoC4/cyfitter_cfg.c **** ********************************************************************************
 111:Generated_Source\PSoC4/cyfitter_cfg.c **** * Summary:
 112:Generated_Source\PSoC4/cyfitter_cfg.c **** *  If an error is encountered during clock configuration (crystal startup error,
 113:Generated_Source\PSoC4/cyfitter_cfg.c **** *  PLL lock error, etc.), the system will end up here.  Unless reimplemented by
 114:Generated_Source\PSoC4/cyfitter_cfg.c **** *  the customer, this function will stop in an infinite loop.
 115:Generated_Source\PSoC4/cyfitter_cfg.c **** *
 116:Generated_Source\PSoC4/cyfitter_cfg.c **** * Parameters:
 117:Generated_Source\PSoC4/cyfitter_cfg.c **** *   void
 118:Generated_Source\PSoC4/cyfitter_cfg.c **** *
 119:Generated_Source\PSoC4/cyfitter_cfg.c **** * Return:
 120:Generated_Source\PSoC4/cyfitter_cfg.c **** *   void
 121:Generated_Source\PSoC4/cyfitter_cfg.c **** *
 122:Generated_Source\PSoC4/cyfitter_cfg.c **** *******************************************************************************/
 123:Generated_Source\PSoC4/cyfitter_cfg.c **** CY_CFG_UNUSED
 124:Generated_Source\PSoC4/cyfitter_cfg.c **** static void CyClockStartupError(uint8 errorCode);
 125:Generated_Source\PSoC4/cyfitter_cfg.c **** CY_CFG_UNUSED
 126:Generated_Source\PSoC4/cyfitter_cfg.c **** static void CyClockStartupError(uint8 errorCode)
 127:Generated_Source\PSoC4/cyfitter_cfg.c **** {
 128:Generated_Source\PSoC4/cyfitter_cfg.c ****     /* To remove the compiler warning if errorCode not used.                */
 129:Generated_Source\PSoC4/cyfitter_cfg.c ****     errorCode = errorCode;
 130:Generated_Source\PSoC4/cyfitter_cfg.c **** 
 131:Generated_Source\PSoC4/cyfitter_cfg.c ****     /* If we have a clock startup error (bad MHz crystal, PLL lock, etc.),  */
 132:Generated_Source\PSoC4/cyfitter_cfg.c ****     /* we will end up here to allow the customer to implement something to  */
 133:Generated_Source\PSoC4/cyfitter_cfg.c ****     /* deal with the clock condition.                                       */
 134:Generated_Source\PSoC4/cyfitter_cfg.c **** 
 135:Generated_Source\PSoC4/cyfitter_cfg.c **** #ifdef CY_CFG_CLOCK_STARTUP_ERROR_CALLBACK
 136:Generated_Source\PSoC4/cyfitter_cfg.c ****     CY_CFG_Clock_Startup_ErrorCallback();
 137:Generated_Source\PSoC4/cyfitter_cfg.c **** #else
 138:Generated_Source\PSoC4/cyfitter_cfg.c ****     /*  If not using CY_CFG_CLOCK_STARTUP_ERROR_CALLBACK, place your clock startup code here. */
 139:Generated_Source\PSoC4/cyfitter_cfg.c ****     /* `#START CyClockStartupError` */
 140:Generated_Source\PSoC4/cyfitter_cfg.c **** 
 141:Generated_Source\PSoC4/cyfitter_cfg.c **** 
 142:Generated_Source\PSoC4/cyfitter_cfg.c **** 
 143:Generated_Source\PSoC4/cyfitter_cfg.c ****     /* `#END` */
 144:Generated_Source\PSoC4/cyfitter_cfg.c **** 
 145:Generated_Source\PSoC4/cyfitter_cfg.c ****     while(1) {}
ARM GAS  C:\Users\Jesus\AppData\Local\Temp\ccZ7DT0O.s 			page 4


 146:Generated_Source\PSoC4/cyfitter_cfg.c **** #endif /* CY_CFG_CLOCK_STARTUP_ERROR_CALLBACK */
 147:Generated_Source\PSoC4/cyfitter_cfg.c **** }
 148:Generated_Source\PSoC4/cyfitter_cfg.c **** #endif
 149:Generated_Source\PSoC4/cyfitter_cfg.c **** 
 150:Generated_Source\PSoC4/cyfitter_cfg.c **** #define CY_CFG_BASE_ADDR_COUNT 7u
 151:Generated_Source\PSoC4/cyfitter_cfg.c **** CYPACKED typedef struct
 152:Generated_Source\PSoC4/cyfitter_cfg.c **** {
 153:Generated_Source\PSoC4/cyfitter_cfg.c **** 	uint8 offset;
 154:Generated_Source\PSoC4/cyfitter_cfg.c **** 	uint8 value;
 155:Generated_Source\PSoC4/cyfitter_cfg.c **** } CYPACKED_ATTR cy_cfg_addrvalue_t;
 156:Generated_Source\PSoC4/cyfitter_cfg.c **** 
 157:Generated_Source\PSoC4/cyfitter_cfg.c **** 
 158:Generated_Source\PSoC4/cyfitter_cfg.c **** 
 159:Generated_Source\PSoC4/cyfitter_cfg.c **** /*******************************************************************************
 160:Generated_Source\PSoC4/cyfitter_cfg.c **** * Function Name: cfg_write_bytes32
 161:Generated_Source\PSoC4/cyfitter_cfg.c **** ********************************************************************************
 162:Generated_Source\PSoC4/cyfitter_cfg.c **** * Summary:
 163:Generated_Source\PSoC4/cyfitter_cfg.c **** *  This function is used for setting up the chip configuration areas that
 164:Generated_Source\PSoC4/cyfitter_cfg.c **** *  contain relatively sparse data.
 165:Generated_Source\PSoC4/cyfitter_cfg.c **** *
 166:Generated_Source\PSoC4/cyfitter_cfg.c **** * Parameters:
 167:Generated_Source\PSoC4/cyfitter_cfg.c **** *   void
 168:Generated_Source\PSoC4/cyfitter_cfg.c **** *
 169:Generated_Source\PSoC4/cyfitter_cfg.c **** * Return:
 170:Generated_Source\PSoC4/cyfitter_cfg.c **** *   void
 171:Generated_Source\PSoC4/cyfitter_cfg.c **** *
 172:Generated_Source\PSoC4/cyfitter_cfg.c **** *******************************************************************************/
 173:Generated_Source\PSoC4/cyfitter_cfg.c **** static void cfg_write_bytes32(const uint32 addr_table[], const cy_cfg_addrvalue_t data_table[]);
 174:Generated_Source\PSoC4/cyfitter_cfg.c **** static void cfg_write_bytes32(const uint32 addr_table[], const cy_cfg_addrvalue_t data_table[])
 175:Generated_Source\PSoC4/cyfitter_cfg.c **** {
  27              		.loc 1 175 0
  28              		.cfi_startproc
  29              		@ args = 0, pretend = 0, frame = 0
  30              		@ frame_needed = 0, uses_anonymous_args = 0
  31              	.LVL0:
  32 0000 F0B5     		push	{r4, r5, r6, r7, lr}
  33              		.cfi_def_cfa_offset 20
  34              		.cfi_offset 4, -20
  35              		.cfi_offset 5, -16
  36              		.cfi_offset 6, -12
  37              		.cfi_offset 7, -8
  38              		.cfi_offset 14, -4
  39              	.LVL1:
 176:Generated_Source\PSoC4/cyfitter_cfg.c **** 	/* For 32-bit little-endian architectures */
 177:Generated_Source\PSoC4/cyfitter_cfg.c **** 	uint32 i, j = 0u;
  40              		.loc 1 177 0
  41 0002 0025     		movs	r5, #0
 178:Generated_Source\PSoC4/cyfitter_cfg.c **** 	for (i = 0u; i < CY_CFG_BASE_ADDR_COUNT; i++)
  42              		.loc 1 178 0
  43 0004 0027     		movs	r7, #0
  44 0006 11E0     		b	.L2
  45              	.LVL2:
  46              	.L5:
  47              	.LBB2:
 179:Generated_Source\PSoC4/cyfitter_cfg.c **** 	{
 180:Generated_Source\PSoC4/cyfitter_cfg.c **** 		uint32 baseAddr = addr_table[i];
  48              		.loc 1 180 0
ARM GAS  C:\Users\Jesus\AppData\Local\Temp\ccZ7DT0O.s 			page 5


  49 0008 BB00     		lsls	r3, r7, #2
  50 000a C658     		ldr	r6, [r0, r3]
  51              	.LVL3:
 181:Generated_Source\PSoC4/cyfitter_cfg.c **** 		uint8 count = (uint8)baseAddr;
  52              		.loc 1 181 0
  53 000c F3B2     		uxtb	r3, r6
  54              	.LVL4:
 182:Generated_Source\PSoC4/cyfitter_cfg.c **** 		baseAddr &= 0xFFFFFF00u;
  55              		.loc 1 182 0
  56 000e FF22     		movs	r2, #255
  57 0010 9643     		bics	r6, r2
  58              	.LVL5:
 183:Generated_Source\PSoC4/cyfitter_cfg.c **** 		while (count != 0u)
  59              		.loc 1 183 0
  60 0012 08E0     		b	.L3
  61              	.L4:
 184:Generated_Source\PSoC4/cyfitter_cfg.c **** 		{
 185:Generated_Source\PSoC4/cyfitter_cfg.c **** 			CY_SET_REG8((void *)(baseAddr + data_table[j].offset), data_table[j].value);
  62              		.loc 1 185 0
  63 0014 6A00     		lsls	r2, r5, #1
  64 0016 8A18     		adds	r2, r1, r2
  65 0018 1478     		ldrb	r4, [r2]
  66 001a A419     		adds	r4, r4, r6
  67 001c 5278     		ldrb	r2, [r2, #1]
  68 001e 2270     		strb	r2, [r4]
 186:Generated_Source\PSoC4/cyfitter_cfg.c **** 			j++;
  69              		.loc 1 186 0
  70 0020 0135     		adds	r5, r5, #1
  71              	.LVL6:
 187:Generated_Source\PSoC4/cyfitter_cfg.c **** 			count--;
  72              		.loc 1 187 0
  73 0022 013B     		subs	r3, r3, #1
  74              	.LVL7:
  75 0024 DBB2     		uxtb	r3, r3
  76              	.LVL8:
  77              	.L3:
 183:Generated_Source\PSoC4/cyfitter_cfg.c **** 		{
  78              		.loc 1 183 0
  79 0026 002B     		cmp	r3, #0
  80 0028 F4D1     		bne	.L4
  81              	.LBE2:
 178:Generated_Source\PSoC4/cyfitter_cfg.c **** 	{
  82              		.loc 1 178 0 discriminator 2
  83 002a 0137     		adds	r7, r7, #1
  84              	.LVL9:
  85              	.L2:
 178:Generated_Source\PSoC4/cyfitter_cfg.c **** 	{
  86              		.loc 1 178 0 is_stmt 0 discriminator 1
  87 002c 062F     		cmp	r7, #6
  88 002e EBD9     		bls	.L5
 188:Generated_Source\PSoC4/cyfitter_cfg.c **** 		}
 189:Generated_Source\PSoC4/cyfitter_cfg.c **** 	}
 190:Generated_Source\PSoC4/cyfitter_cfg.c **** }
  89              		.loc 1 190 0 is_stmt 1
  90              		@ sp needed
  91              	.LVL10:
  92              	.LVL11:
ARM GAS  C:\Users\Jesus\AppData\Local\Temp\ccZ7DT0O.s 			page 6


  93 0030 F0BD     		pop	{r4, r5, r6, r7, pc}
  94              		.cfi_endproc
  95              	.LFE4:
  96              		.size	cfg_write_bytes32, .-cfg_write_bytes32
  97 0032 C046     		.section	.text.AnalogSetDefault,"ax",%progbits
  98              		.align	2
  99              		.code	16
 100              		.thumb_func
 101              		.type	AnalogSetDefault, %function
 102              	AnalogSetDefault:
 103              	.LFB6:
 191:Generated_Source\PSoC4/cyfitter_cfg.c **** 
 192:Generated_Source\PSoC4/cyfitter_cfg.c **** 
 193:Generated_Source\PSoC4/cyfitter_cfg.c **** /*******************************************************************************
 194:Generated_Source\PSoC4/cyfitter_cfg.c **** * Function Name: ClockSetup
 195:Generated_Source\PSoC4/cyfitter_cfg.c **** ********************************************************************************
 196:Generated_Source\PSoC4/cyfitter_cfg.c **** *
 197:Generated_Source\PSoC4/cyfitter_cfg.c **** * Summary:
 198:Generated_Source\PSoC4/cyfitter_cfg.c **** *   Performs the initialization of all of the clocks in the device based on the
 199:Generated_Source\PSoC4/cyfitter_cfg.c **** *   settings in the Clock tab of the DWR.  This includes enabling the requested
 200:Generated_Source\PSoC4/cyfitter_cfg.c **** *   clocks and setting the necessary dividers to produce the desired frequency. 
 201:Generated_Source\PSoC4/cyfitter_cfg.c **** *
 202:Generated_Source\PSoC4/cyfitter_cfg.c **** * Parameters:
 203:Generated_Source\PSoC4/cyfitter_cfg.c **** *   void
 204:Generated_Source\PSoC4/cyfitter_cfg.c **** *
 205:Generated_Source\PSoC4/cyfitter_cfg.c **** * Return:
 206:Generated_Source\PSoC4/cyfitter_cfg.c **** *   void
 207:Generated_Source\PSoC4/cyfitter_cfg.c **** *
 208:Generated_Source\PSoC4/cyfitter_cfg.c **** *******************************************************************************/
 209:Generated_Source\PSoC4/cyfitter_cfg.c **** static void ClockSetup(void);
 210:Generated_Source\PSoC4/cyfitter_cfg.c **** CY_CFG_SECTION
 211:Generated_Source\PSoC4/cyfitter_cfg.c **** static void ClockSetup(void)
 212:Generated_Source\PSoC4/cyfitter_cfg.c **** {
 213:Generated_Source\PSoC4/cyfitter_cfg.c **** 
 214:Generated_Source\PSoC4/cyfitter_cfg.c **** 	/* Set Flash Cycles based on max possible frequency in case a glitch occurs during ClockSetup(). *
 215:Generated_Source\PSoC4/cyfitter_cfg.c **** 	CY_SET_REG32((void CYXDATA *)(CYREG_CPUSS_FLASH_CTL), (0x0012u));
 216:Generated_Source\PSoC4/cyfitter_cfg.c **** 	/* Setup and trim IMO based on desired frequency. */
 217:Generated_Source\PSoC4/cyfitter_cfg.c **** 	CySysClkWriteImoFreq(48u);
 218:Generated_Source\PSoC4/cyfitter_cfg.c **** 	/* CYDEV_CLK_ILO_CONFIG Starting address: CYDEV_CLK_ILO_CONFIG */
 219:Generated_Source\PSoC4/cyfitter_cfg.c **** 	CY_SET_REG32((void *)(CYREG_CLK_ILO_CONFIG), 0x80000006u);
 220:Generated_Source\PSoC4/cyfitter_cfg.c **** 
 221:Generated_Source\PSoC4/cyfitter_cfg.c **** 
 222:Generated_Source\PSoC4/cyfitter_cfg.c **** 	/* Setup phase aligned clocks */
 223:Generated_Source\PSoC4/cyfitter_cfg.c **** 	CY_SET_REG32((void *)CYREG_PERI_DIV_16_CTL0, 0x00000300u);
 224:Generated_Source\PSoC4/cyfitter_cfg.c **** 	CY_SET_REG32((void *)CYREG_PERI_DIV_CMD, 0x8000FF40u);
 225:Generated_Source\PSoC4/cyfitter_cfg.c **** 	CY_SET_REG32((void *)CYREG_PERI_DIV_16_CTL1, 0x0000CF00u);
 226:Generated_Source\PSoC4/cyfitter_cfg.c **** 	CY_SET_REG32((void *)CYREG_PERI_DIV_CMD, 0x8000FF41u);
 227:Generated_Source\PSoC4/cyfitter_cfg.c **** 
 228:Generated_Source\PSoC4/cyfitter_cfg.c **** 	/* CYDEV_CLK_IMO_CONFIG Starting address: CYDEV_CLK_IMO_CONFIG */
 229:Generated_Source\PSoC4/cyfitter_cfg.c **** 	CY_SET_REG32((void *)(CYREG_CLK_IMO_CONFIG), 0x80000000u);
 230:Generated_Source\PSoC4/cyfitter_cfg.c **** 
 231:Generated_Source\PSoC4/cyfitter_cfg.c **** 	/* CYDEV_CLK_SELECT Starting address: CYDEV_CLK_SELECT */
 232:Generated_Source\PSoC4/cyfitter_cfg.c **** 	CY_SET_REG32((void *)(CYREG_CLK_SELECT), 0x00040000u);
 233:Generated_Source\PSoC4/cyfitter_cfg.c **** 
 234:Generated_Source\PSoC4/cyfitter_cfg.c **** 	/* CYDEV_PERI_PCLK_CTL5 Starting address: CYDEV_PERI_PCLK_CTL5 */
 235:Generated_Source\PSoC4/cyfitter_cfg.c **** 	CY_SET_REG32((void *)(CYREG_PERI_PCLK_CTL5), 0x00000041u);
 236:Generated_Source\PSoC4/cyfitter_cfg.c **** 
ARM GAS  C:\Users\Jesus\AppData\Local\Temp\ccZ7DT0O.s 			page 7


 237:Generated_Source\PSoC4/cyfitter_cfg.c **** 	(void)CyIntSetVector(7u, &CySysWdtIsr);
 238:Generated_Source\PSoC4/cyfitter_cfg.c **** 	CyIntEnable(7u);
 239:Generated_Source\PSoC4/cyfitter_cfg.c **** 	CY_SET_REG32((void *)(CYREG_WDT_CONFIG), 0x00000000u);
 240:Generated_Source\PSoC4/cyfitter_cfg.c **** }
 241:Generated_Source\PSoC4/cyfitter_cfg.c **** 
 242:Generated_Source\PSoC4/cyfitter_cfg.c **** 
 243:Generated_Source\PSoC4/cyfitter_cfg.c **** /* Analog API Functions */
 244:Generated_Source\PSoC4/cyfitter_cfg.c **** 
 245:Generated_Source\PSoC4/cyfitter_cfg.c **** 
 246:Generated_Source\PSoC4/cyfitter_cfg.c **** /*******************************************************************************
 247:Generated_Source\PSoC4/cyfitter_cfg.c **** * Function Name: AnalogSetDefault
 248:Generated_Source\PSoC4/cyfitter_cfg.c **** ********************************************************************************
 249:Generated_Source\PSoC4/cyfitter_cfg.c **** *
 250:Generated_Source\PSoC4/cyfitter_cfg.c **** * Summary:
 251:Generated_Source\PSoC4/cyfitter_cfg.c **** *  Sets up the analog portions of the chip to default values based on chip
 252:Generated_Source\PSoC4/cyfitter_cfg.c **** *  configuration options from the project.
 253:Generated_Source\PSoC4/cyfitter_cfg.c **** *
 254:Generated_Source\PSoC4/cyfitter_cfg.c **** * Parameters:
 255:Generated_Source\PSoC4/cyfitter_cfg.c **** *  void
 256:Generated_Source\PSoC4/cyfitter_cfg.c **** *
 257:Generated_Source\PSoC4/cyfitter_cfg.c **** * Return:
 258:Generated_Source\PSoC4/cyfitter_cfg.c **** *  void
 259:Generated_Source\PSoC4/cyfitter_cfg.c **** *
 260:Generated_Source\PSoC4/cyfitter_cfg.c **** *******************************************************************************/
 261:Generated_Source\PSoC4/cyfitter_cfg.c **** static void AnalogSetDefault(void);
 262:Generated_Source\PSoC4/cyfitter_cfg.c **** static void AnalogSetDefault(void)
 263:Generated_Source\PSoC4/cyfitter_cfg.c **** {
 104              		.loc 1 263 0
 105              		.cfi_startproc
 106              		@ args = 0, pretend = 0, frame = 0
 107              		@ frame_needed = 0, uses_anonymous_args = 0
 108              		@ link register save eliminated.
 264:Generated_Source\PSoC4/cyfitter_cfg.c **** 	CY_SET_XTND_REG32((void CYFAR *)CYREG_CTBM0_DFT_CTRL, 0x00000003u);
 109              		.loc 1 264 0
 110 0000 0323     		movs	r3, #3
 111 0002 044A     		ldr	r2, .L7
 112 0004 1360     		str	r3, [r2]
 265:Generated_Source\PSoC4/cyfitter_cfg.c **** 	CY_SET_XTND_REG32((void CYFAR *)CYREG_CTBM1_DFT_CTRL, 0x00000003u);
 113              		.loc 1 265 0
 114 0006 044A     		ldr	r2, .L7+4
 115 0008 1360     		str	r3, [r2]
 266:Generated_Source\PSoC4/cyfitter_cfg.c **** 	CY_SET_XTND_REG32((void CYFAR *)CYREG_PASS_DSAB_DSAB_CTRL, 0x00000000u);
 116              		.loc 1 266 0
 117 000a 0022     		movs	r2, #0
 118 000c 034B     		ldr	r3, .L7+8
 119 000e 1A60     		str	r2, [r3]
 267:Generated_Source\PSoC4/cyfitter_cfg.c **** }
 120              		.loc 1 267 0
 121              		@ sp needed
 122 0010 7047     		bx	lr
 123              	.L8:
 124 0012 C046     		.align	2
 125              	.L7:
 126 0014 30003040 		.word	1076887600
 127 0018 30003140 		.word	1076953136
 128 001c 000E3F40 		.word	1077874176
 129              		.cfi_endproc
ARM GAS  C:\Users\Jesus\AppData\Local\Temp\ccZ7DT0O.s 			page 8


 130              	.LFE6:
 131              		.size	AnalogSetDefault, .-AnalogSetDefault
 132              		.section	.text.CYMEMZERO,"ax",%progbits
 133              		.align	2
 134              		.code	16
 135              		.thumb_func
 136              		.type	CYMEMZERO, %function
 137              	CYMEMZERO:
 138              	.LFB1:
  77:Generated_Source\PSoC4/cyfitter_cfg.c **** 	(void)memset(s, 0, n);
 139              		.loc 1 77 0
 140              		.cfi_startproc
 141              		@ args = 0, pretend = 0, frame = 0
 142              		@ frame_needed = 0, uses_anonymous_args = 0
 143              	.LVL12:
 144 0000 10B5     		push	{r4, lr}
 145              		.cfi_def_cfa_offset 8
 146              		.cfi_offset 4, -8
 147              		.cfi_offset 14, -4
 148 0002 0A00     		movs	r2, r1
  78:Generated_Source\PSoC4/cyfitter_cfg.c **** }
 149              		.loc 1 78 0
 150 0004 0021     		movs	r1, #0
 151              	.LVL13:
 152 0006 FFF7FEFF 		bl	memset
 153              	.LVL14:
  79:Generated_Source\PSoC4/cyfitter_cfg.c **** CY_CFG_UNUSED
 154              		.loc 1 79 0
 155              		@ sp needed
 156 000a 10BD     		pop	{r4, pc}
 157              		.cfi_endproc
 158              	.LFE1:
 159              		.size	CYMEMZERO, .-CYMEMZERO
 160              		.section	.psocinit,"ax",%progbits
 161              		.align	2
 162              		.code	16
 163              		.thumb_func
 164              		.type	ClockSetup, %function
 165              	ClockSetup:
 166              	.LFB5:
 212:Generated_Source\PSoC4/cyfitter_cfg.c **** 
 167              		.loc 1 212 0
 168              		.cfi_startproc
 169              		@ args = 0, pretend = 0, frame = 0
 170              		@ frame_needed = 0, uses_anonymous_args = 0
 171 0000 10B5     		push	{r4, lr}
 172              		.cfi_def_cfa_offset 8
 173              		.cfi_offset 4, -8
 174              		.cfi_offset 14, -4
 215:Generated_Source\PSoC4/cyfitter_cfg.c **** 	/* Setup and trim IMO based on desired frequency. */
 175              		.loc 1 215 0
 176 0002 1222     		movs	r2, #18
 177 0004 154B     		ldr	r3, .L11
 178 0006 1A60     		str	r2, [r3]
 217:Generated_Source\PSoC4/cyfitter_cfg.c **** 	/* CYDEV_CLK_ILO_CONFIG Starting address: CYDEV_CLK_ILO_CONFIG */
 179              		.loc 1 217 0
 180 0008 3020     		movs	r0, #48
ARM GAS  C:\Users\Jesus\AppData\Local\Temp\ccZ7DT0O.s 			page 9


 181 000a FFF7FEFF 		bl	CySysClkWriteImoFreq
 182              	.LVL15:
 219:Generated_Source\PSoC4/cyfitter_cfg.c **** 
 183              		.loc 1 219 0
 184 000e 144A     		ldr	r2, .L11+4
 185 0010 144B     		ldr	r3, .L11+8
 186 0012 1A60     		str	r2, [r3]
 223:Generated_Source\PSoC4/cyfitter_cfg.c **** 	CY_SET_REG32((void *)CYREG_PERI_DIV_CMD, 0x8000FF40u);
 187              		.loc 1 223 0
 188 0014 C022     		movs	r2, #192
 189 0016 9200     		lsls	r2, r2, #2
 190 0018 134B     		ldr	r3, .L11+12
 191 001a 1A60     		str	r2, [r3]
 224:Generated_Source\PSoC4/cyfitter_cfg.c **** 	CY_SET_REG32((void *)CYREG_PERI_DIV_16_CTL1, 0x0000CF00u);
 192              		.loc 1 224 0
 193 001c 134B     		ldr	r3, .L11+16
 194 001e 144A     		ldr	r2, .L11+20
 195 0020 1A60     		str	r2, [r3]
 225:Generated_Source\PSoC4/cyfitter_cfg.c **** 	CY_SET_REG32((void *)CYREG_PERI_DIV_CMD, 0x8000FF41u);
 196              		.loc 1 225 0
 197 0022 CF21     		movs	r1, #207
 198 0024 0902     		lsls	r1, r1, #8
 199 0026 134A     		ldr	r2, .L11+24
 200 0028 1160     		str	r1, [r2]
 226:Generated_Source\PSoC4/cyfitter_cfg.c **** 
 201              		.loc 1 226 0
 202 002a 134A     		ldr	r2, .L11+28
 203 002c 1A60     		str	r2, [r3]
 229:Generated_Source\PSoC4/cyfitter_cfg.c **** 
 204              		.loc 1 229 0
 205 002e 8022     		movs	r2, #128
 206 0030 1206     		lsls	r2, r2, #24
 207 0032 124B     		ldr	r3, .L11+32
 208 0034 1A60     		str	r2, [r3]
 232:Generated_Source\PSoC4/cyfitter_cfg.c **** 
 209              		.loc 1 232 0
 210 0036 8022     		movs	r2, #128
 211 0038 D202     		lsls	r2, r2, #11
 212 003a 114B     		ldr	r3, .L11+36
 213 003c 1A60     		str	r2, [r3]
 235:Generated_Source\PSoC4/cyfitter_cfg.c **** 
 214              		.loc 1 235 0
 215 003e 4122     		movs	r2, #65
 216 0040 104B     		ldr	r3, .L11+40
 217 0042 1A60     		str	r2, [r3]
 237:Generated_Source\PSoC4/cyfitter_cfg.c **** 	CyIntEnable(7u);
 218              		.loc 1 237 0
 219 0044 1049     		ldr	r1, .L11+44
 220 0046 0720     		movs	r0, #7
 221 0048 FFF7FEFF 		bl	CyIntSetVector
 222              	.LVL16:
 238:Generated_Source\PSoC4/cyfitter_cfg.c **** 	CY_SET_REG32((void *)(CYREG_WDT_CONFIG), 0x00000000u);
 223              		.loc 1 238 0
 224 004c 0720     		movs	r0, #7
 225 004e FFF7FEFF 		bl	CyIntEnable
 226              	.LVL17:
 239:Generated_Source\PSoC4/cyfitter_cfg.c **** }
ARM GAS  C:\Users\Jesus\AppData\Local\Temp\ccZ7DT0O.s 			page 10


 227              		.loc 1 239 0
 228 0052 0022     		movs	r2, #0
 229 0054 0D4B     		ldr	r3, .L11+48
 230 0056 1A60     		str	r2, [r3]
 240:Generated_Source\PSoC4/cyfitter_cfg.c **** 
 231              		.loc 1 240 0
 232              		@ sp needed
 233 0058 10BD     		pop	{r4, pc}
 234              	.L12:
 235 005a C046     		.align	2
 236              	.L11:
 237 005c 30001040 		.word	1074790448
 238 0060 06000080 		.word	-2147483642
 239 0064 04010B40 		.word	1074462980
 240 0068 00030140 		.word	1073808128
 241 006c 00000140 		.word	1073807360
 242 0070 40FF0080 		.word	-2147418304
 243 0074 04030140 		.word	1073808132
 244 0078 41FF0080 		.word	-2147418303
 245 007c 08010B40 		.word	1074462984
 246 0080 00010B40 		.word	1074462976
 247 0084 14010140 		.word	1073807636
 248 0088 00000000 		.word	CySysWdtIsr
 249 008c 0C020B40 		.word	1074463244
 250              		.cfi_endproc
 251              	.LFE5:
 252              		.size	ClockSetup, .-ClockSetup
 253              		.align	2
 254              		.global	cyfitter_cfg
 255              		.code	16
 256              		.thumb_func
 257              		.type	cyfitter_cfg, %function
 258              	cyfitter_cfg:
 259              	.LFB7:
 268:Generated_Source\PSoC4/cyfitter_cfg.c **** 
 269:Generated_Source\PSoC4/cyfitter_cfg.c **** 
 270:Generated_Source\PSoC4/cyfitter_cfg.c **** 
 271:Generated_Source\PSoC4/cyfitter_cfg.c **** 
 272:Generated_Source\PSoC4/cyfitter_cfg.c **** /*******************************************************************************
 273:Generated_Source\PSoC4/cyfitter_cfg.c **** * Function Name: cyfitter_cfg
 274:Generated_Source\PSoC4/cyfitter_cfg.c **** ********************************************************************************
 275:Generated_Source\PSoC4/cyfitter_cfg.c **** * Summary:
 276:Generated_Source\PSoC4/cyfitter_cfg.c **** *  This function is called by the start-up code for the selected device. It
 277:Generated_Source\PSoC4/cyfitter_cfg.c **** *  performs all of the necessary device configuration based on the design
 278:Generated_Source\PSoC4/cyfitter_cfg.c **** *  settings.  This includes settings from the Design Wide Resources (DWR) such
 279:Generated_Source\PSoC4/cyfitter_cfg.c **** *  as Clocks and Pins as well as any component configuration that is necessary.
 280:Generated_Source\PSoC4/cyfitter_cfg.c **** *
 281:Generated_Source\PSoC4/cyfitter_cfg.c **** * Parameters:
 282:Generated_Source\PSoC4/cyfitter_cfg.c **** *   void
 283:Generated_Source\PSoC4/cyfitter_cfg.c **** *
 284:Generated_Source\PSoC4/cyfitter_cfg.c **** * Return:
 285:Generated_Source\PSoC4/cyfitter_cfg.c **** *   void
 286:Generated_Source\PSoC4/cyfitter_cfg.c **** *
 287:Generated_Source\PSoC4/cyfitter_cfg.c **** *******************************************************************************/
 288:Generated_Source\PSoC4/cyfitter_cfg.c **** CY_CFG_SECTION
 289:Generated_Source\PSoC4/cyfitter_cfg.c **** void cyfitter_cfg(void)
 290:Generated_Source\PSoC4/cyfitter_cfg.c **** {
ARM GAS  C:\Users\Jesus\AppData\Local\Temp\ccZ7DT0O.s 			page 11


 260              		.loc 1 290 0
 261              		.cfi_startproc
 262              		@ args = 0, pretend = 0, frame = 0
 263              		@ frame_needed = 0, uses_anonymous_args = 0
 264 0090 10B5     		push	{r4, lr}
 265              		.cfi_def_cfa_offset 8
 266              		.cfi_offset 4, -8
 267              		.cfi_offset 14, -4
 291:Generated_Source\PSoC4/cyfitter_cfg.c **** 	/* Disable interrupts by default. Let user enable if/when they want. */
 292:Generated_Source\PSoC4/cyfitter_cfg.c **** 	CyGlobalIntDisable;
 268              		.loc 1 292 0
 269              		.syntax divided
 270              	@ 292 "Generated_Source\PSoC4\cyfitter_cfg.c" 1
 271 0092 72B6     		CPSID   i
 272              	@ 0 "" 2
 273              	.LVL18:
 274              		.thumb
 275              		.syntax unified
 276              	.LBB3:
 293:Generated_Source\PSoC4/cyfitter_cfg.c **** 
 294:Generated_Source\PSoC4/cyfitter_cfg.c **** 	{
 295:Generated_Source\PSoC4/cyfitter_cfg.c **** 		static const uint32 CYCODE cy_cfg_addr_table[] = {
 296:Generated_Source\PSoC4/cyfitter_cfg.c **** 			0x400F3103u, /* Base address: 0x400F3100 Count: 3 */
 297:Generated_Source\PSoC4/cyfitter_cfg.c **** 			0x400F3204u, /* Base address: 0x400F3200 Count: 4 */
 298:Generated_Source\PSoC4/cyfitter_cfg.c **** 			0x400F3327u, /* Base address: 0x400F3300 Count: 39 */
 299:Generated_Source\PSoC4/cyfitter_cfg.c **** 			0x400F4004u, /* Base address: 0x400F4000 Count: 4 */
 300:Generated_Source\PSoC4/cyfitter_cfg.c **** 			0x400F4110u, /* Base address: 0x400F4100 Count: 16 */
 301:Generated_Source\PSoC4/cyfitter_cfg.c **** 			0x400F420Du, /* Base address: 0x400F4200 Count: 13 */
 302:Generated_Source\PSoC4/cyfitter_cfg.c **** 			0x400F4316u, /* Base address: 0x400F4300 Count: 22 */
 303:Generated_Source\PSoC4/cyfitter_cfg.c **** 		};
 304:Generated_Source\PSoC4/cyfitter_cfg.c **** 
 305:Generated_Source\PSoC4/cyfitter_cfg.c **** 		static const cy_cfg_addrvalue_t CYCODE cy_cfg_data_table[] = {
 306:Generated_Source\PSoC4/cyfitter_cfg.c **** 			{0x83u, 0x10u},
 307:Generated_Source\PSoC4/cyfitter_cfg.c **** 			{0x8Cu, 0x40u},
 308:Generated_Source\PSoC4/cyfitter_cfg.c **** 			{0xE0u, 0x04u},
 309:Generated_Source\PSoC4/cyfitter_cfg.c **** 			{0x5Bu, 0x04u},
 310:Generated_Source\PSoC4/cyfitter_cfg.c **** 			{0x5Fu, 0x01u},
 311:Generated_Source\PSoC4/cyfitter_cfg.c **** 			{0xDBu, 0x04u},
 312:Generated_Source\PSoC4/cyfitter_cfg.c **** 			{0xDFu, 0x01u},
 313:Generated_Source\PSoC4/cyfitter_cfg.c **** 			{0x59u, 0x40u},
 314:Generated_Source\PSoC4/cyfitter_cfg.c **** 			{0x5Bu, 0x2Au},
 315:Generated_Source\PSoC4/cyfitter_cfg.c **** 			{0x60u, 0xAAu},
 316:Generated_Source\PSoC4/cyfitter_cfg.c **** 			{0x68u, 0x40u},
 317:Generated_Source\PSoC4/cyfitter_cfg.c **** 			{0x69u, 0x80u},
 318:Generated_Source\PSoC4/cyfitter_cfg.c **** 			{0x6Au, 0x20u},
 319:Generated_Source\PSoC4/cyfitter_cfg.c **** 			{0x6Bu, 0x10u},
 320:Generated_Source\PSoC4/cyfitter_cfg.c **** 			{0x6Cu, 0x0Au},
 321:Generated_Source\PSoC4/cyfitter_cfg.c **** 			{0x6Eu, 0x08u},
 322:Generated_Source\PSoC4/cyfitter_cfg.c **** 			{0x6Fu, 0x80u},
 323:Generated_Source\PSoC4/cyfitter_cfg.c **** 			{0x70u, 0x44u},
 324:Generated_Source\PSoC4/cyfitter_cfg.c **** 			{0x71u, 0x20u},
 325:Generated_Source\PSoC4/cyfitter_cfg.c **** 			{0x73u, 0x80u},
 326:Generated_Source\PSoC4/cyfitter_cfg.c **** 			{0x80u, 0x0Cu},
 327:Generated_Source\PSoC4/cyfitter_cfg.c **** 			{0x83u, 0x80u},
 328:Generated_Source\PSoC4/cyfitter_cfg.c **** 			{0x84u, 0xA2u},
 329:Generated_Source\PSoC4/cyfitter_cfg.c **** 			{0x88u, 0x0Au},
 330:Generated_Source\PSoC4/cyfitter_cfg.c **** 			{0x8Bu, 0x80u},
ARM GAS  C:\Users\Jesus\AppData\Local\Temp\ccZ7DT0O.s 			page 12


 331:Generated_Source\PSoC4/cyfitter_cfg.c **** 			{0x8Du, 0x40u},
 332:Generated_Source\PSoC4/cyfitter_cfg.c **** 			{0x8Eu, 0x04u},
 333:Generated_Source\PSoC4/cyfitter_cfg.c **** 			{0x94u, 0x80u},
 334:Generated_Source\PSoC4/cyfitter_cfg.c **** 			{0x96u, 0x20u},
 335:Generated_Source\PSoC4/cyfitter_cfg.c **** 			{0x99u, 0x40u},
 336:Generated_Source\PSoC4/cyfitter_cfg.c **** 			{0x9Bu, 0x2Au},
 337:Generated_Source\PSoC4/cyfitter_cfg.c **** 			{0x9Fu, 0x10u},
 338:Generated_Source\PSoC4/cyfitter_cfg.c **** 			{0xA4u, 0x40u},
 339:Generated_Source\PSoC4/cyfitter_cfg.c **** 			{0xA5u, 0x20u},
 340:Generated_Source\PSoC4/cyfitter_cfg.c **** 			{0xAAu, 0x10u},
 341:Generated_Source\PSoC4/cyfitter_cfg.c **** 			{0xABu, 0x2Au},
 342:Generated_Source\PSoC4/cyfitter_cfg.c **** 			{0xACu, 0x40u},
 343:Generated_Source\PSoC4/cyfitter_cfg.c **** 			{0xADu, 0x40u},
 344:Generated_Source\PSoC4/cyfitter_cfg.c **** 			{0xB5u, 0x20u},
 345:Generated_Source\PSoC4/cyfitter_cfg.c **** 			{0xD6u, 0x0Fu},
 346:Generated_Source\PSoC4/cyfitter_cfg.c **** 			{0xD8u, 0x0Fu},
 347:Generated_Source\PSoC4/cyfitter_cfg.c **** 			{0xE2u, 0x40u},
 348:Generated_Source\PSoC4/cyfitter_cfg.c **** 			{0xE4u, 0x01u},
 349:Generated_Source\PSoC4/cyfitter_cfg.c **** 			{0xE6u, 0x0Au},
 350:Generated_Source\PSoC4/cyfitter_cfg.c **** 			{0xE8u, 0x02u},
 351:Generated_Source\PSoC4/cyfitter_cfg.c **** 			{0xECu, 0x04u},
 352:Generated_Source\PSoC4/cyfitter_cfg.c **** 			{0x03u, 0x22u},
 353:Generated_Source\PSoC4/cyfitter_cfg.c **** 			{0x04u, 0x10u},
 354:Generated_Source\PSoC4/cyfitter_cfg.c **** 			{0x07u, 0x80u},
 355:Generated_Source\PSoC4/cyfitter_cfg.c **** 			{0xC0u, 0xF0u},
 356:Generated_Source\PSoC4/cyfitter_cfg.c **** 			{0x51u, 0x08u},
 357:Generated_Source\PSoC4/cyfitter_cfg.c **** 			{0x53u, 0x01u},
 358:Generated_Source\PSoC4/cyfitter_cfg.c **** 			{0x56u, 0x42u},
 359:Generated_Source\PSoC4/cyfitter_cfg.c **** 			{0x81u, 0x08u},
 360:Generated_Source\PSoC4/cyfitter_cfg.c **** 			{0x83u, 0x01u},
 361:Generated_Source\PSoC4/cyfitter_cfg.c **** 			{0x86u, 0x40u},
 362:Generated_Source\PSoC4/cyfitter_cfg.c **** 			{0x8Eu, 0x02u},
 363:Generated_Source\PSoC4/cyfitter_cfg.c **** 			{0xA8u, 0x10u},
 364:Generated_Source\PSoC4/cyfitter_cfg.c **** 			{0xABu, 0x82u},
 365:Generated_Source\PSoC4/cyfitter_cfg.c **** 			{0xAFu, 0x20u},
 366:Generated_Source\PSoC4/cyfitter_cfg.c **** 			{0xD4u, 0xE0u},
 367:Generated_Source\PSoC4/cyfitter_cfg.c **** 			{0xD6u, 0x20u},
 368:Generated_Source\PSoC4/cyfitter_cfg.c **** 			{0xE2u, 0x90u},
 369:Generated_Source\PSoC4/cyfitter_cfg.c **** 			{0xE6u, 0x20u},
 370:Generated_Source\PSoC4/cyfitter_cfg.c **** 			{0xE8u, 0xA0u},
 371:Generated_Source\PSoC4/cyfitter_cfg.c **** 			{0xECu, 0x90u},
 372:Generated_Source\PSoC4/cyfitter_cfg.c **** 			{0x50u, 0x40u},
 373:Generated_Source\PSoC4/cyfitter_cfg.c **** 			{0x53u, 0x01u},
 374:Generated_Source\PSoC4/cyfitter_cfg.c **** 			{0x54u, 0x02u},
 375:Generated_Source\PSoC4/cyfitter_cfg.c **** 			{0x56u, 0x10u},
 376:Generated_Source\PSoC4/cyfitter_cfg.c **** 			{0x5Bu, 0x04u},
 377:Generated_Source\PSoC4/cyfitter_cfg.c **** 			{0x61u, 0x04u},
 378:Generated_Source\PSoC4/cyfitter_cfg.c **** 			{0x66u, 0x81u},
 379:Generated_Source\PSoC4/cyfitter_cfg.c **** 			{0x80u, 0x02u},
 380:Generated_Source\PSoC4/cyfitter_cfg.c **** 			{0x8Fu, 0x04u},
 381:Generated_Source\PSoC4/cyfitter_cfg.c **** 			{0xD4u, 0x07u},
 382:Generated_Source\PSoC4/cyfitter_cfg.c **** 			{0xD6u, 0x07u},
 383:Generated_Source\PSoC4/cyfitter_cfg.c **** 			{0xD8u, 0x03u},
 384:Generated_Source\PSoC4/cyfitter_cfg.c **** 			{0xE4u, 0x08u},
 385:Generated_Source\PSoC4/cyfitter_cfg.c **** 			{0x00u, 0x08u},
 386:Generated_Source\PSoC4/cyfitter_cfg.c **** 			{0x05u, 0x08u},
 387:Generated_Source\PSoC4/cyfitter_cfg.c **** 			{0x08u, 0x08u},
ARM GAS  C:\Users\Jesus\AppData\Local\Temp\ccZ7DT0O.s 			page 13


 388:Generated_Source\PSoC4/cyfitter_cfg.c **** 			{0x0Fu, 0x40u},
 389:Generated_Source\PSoC4/cyfitter_cfg.c **** 			{0x81u, 0x04u},
 390:Generated_Source\PSoC4/cyfitter_cfg.c **** 			{0x84u, 0x08u},
 391:Generated_Source\PSoC4/cyfitter_cfg.c **** 			{0x87u, 0x40u},
 392:Generated_Source\PSoC4/cyfitter_cfg.c **** 			{0x88u, 0x04u},
 393:Generated_Source\PSoC4/cyfitter_cfg.c **** 			{0x89u, 0x08u},
 394:Generated_Source\PSoC4/cyfitter_cfg.c **** 			{0x8Au, 0x80u},
 395:Generated_Source\PSoC4/cyfitter_cfg.c **** 			{0x8Cu, 0x40u},
 396:Generated_Source\PSoC4/cyfitter_cfg.c **** 			{0x94u, 0x80u},
 397:Generated_Source\PSoC4/cyfitter_cfg.c **** 			{0x9Du, 0x04u},
 398:Generated_Source\PSoC4/cyfitter_cfg.c **** 			{0x9Eu, 0x80u},
 399:Generated_Source\PSoC4/cyfitter_cfg.c **** 			{0xABu, 0x01u},
 400:Generated_Source\PSoC4/cyfitter_cfg.c **** 			{0xAEu, 0x10u},
 401:Generated_Source\PSoC4/cyfitter_cfg.c **** 			{0xB6u, 0x01u},
 402:Generated_Source\PSoC4/cyfitter_cfg.c **** 			{0xC0u, 0x0Cu},
 403:Generated_Source\PSoC4/cyfitter_cfg.c **** 			{0xC2u, 0x0Cu},
 404:Generated_Source\PSoC4/cyfitter_cfg.c **** 			{0xE2u, 0x05u},
 405:Generated_Source\PSoC4/cyfitter_cfg.c **** 			{0xE4u, 0x0Cu},
 406:Generated_Source\PSoC4/cyfitter_cfg.c **** 			{0xECu, 0x02u},
 407:Generated_Source\PSoC4/cyfitter_cfg.c **** 		};
 408:Generated_Source\PSoC4/cyfitter_cfg.c **** 
 409:Generated_Source\PSoC4/cyfitter_cfg.c **** 
 410:Generated_Source\PSoC4/cyfitter_cfg.c **** 
 411:Generated_Source\PSoC4/cyfitter_cfg.c **** 		CYPACKED typedef struct {
 412:Generated_Source\PSoC4/cyfitter_cfg.c **** 			void CYFAR *address;
 413:Generated_Source\PSoC4/cyfitter_cfg.c **** 			uint16 size;
 414:Generated_Source\PSoC4/cyfitter_cfg.c **** 		} CYPACKED_ATTR cfg_memset_t;
 415:Generated_Source\PSoC4/cyfitter_cfg.c **** 
 416:Generated_Source\PSoC4/cyfitter_cfg.c **** 		static const cfg_memset_t CYCODE cfg_memset_list[] = {
 417:Generated_Source\PSoC4/cyfitter_cfg.c **** 			/* address, size */
 418:Generated_Source\PSoC4/cyfitter_cfg.c **** 			{(void CYFAR *)(CYDEV_UDB_P0_U0_BASE), 1024u},
 419:Generated_Source\PSoC4/cyfitter_cfg.c **** 			{(void CYFAR *)(CYDEV_UDB_DSI0_BASE), 1024u},
 420:Generated_Source\PSoC4/cyfitter_cfg.c **** 		};
 421:Generated_Source\PSoC4/cyfitter_cfg.c **** 
 422:Generated_Source\PSoC4/cyfitter_cfg.c **** 		uint8 CYDATA i;
 423:Generated_Source\PSoC4/cyfitter_cfg.c **** 
 424:Generated_Source\PSoC4/cyfitter_cfg.c **** 		/* Zero out critical memory blocks before beginning configuration */
 425:Generated_Source\PSoC4/cyfitter_cfg.c **** 		for (i = 0u; i < (sizeof(cfg_memset_list)/sizeof(cfg_memset_list[0])); i++)
 277              		.loc 1 425 0
 278 0094 0024     		movs	r4, #0
 279 0096 0FE0     		b	.L14
 280              	.LVL19:
 281              	.L15:
 282              	.LBB4:
 426:Generated_Source\PSoC4/cyfitter_cfg.c **** 		{
 427:Generated_Source\PSoC4/cyfitter_cfg.c **** 			const cfg_memset_t CYCODE * CYDATA ms = &cfg_memset_list[i];
 428:Generated_Source\PSoC4/cyfitter_cfg.c **** 			CYMEMZERO(ms->address, (size_t)(uint32)(ms->size));
 283              		.loc 1 428 0 discriminator 3
 284 0098 3248     		ldr	r0, .L16
 285 009a 6200     		lsls	r2, r4, #1
 286 009c 1319     		adds	r3, r2, r4
 287 009e 5900     		lsls	r1, r3, #1
 288 00a0 0B00     		movs	r3, r1
 289 00a2 4118     		adds	r1, r0, r1
 290 00a4 8988     		ldrh	r1, [r1, #4]
 291 00a6 1A5A     		ldrh	r2, [r3, r0]
 292 00a8 C318     		adds	r3, r0, r3
ARM GAS  C:\Users\Jesus\AppData\Local\Temp\ccZ7DT0O.s 			page 14


 293 00aa 5888     		ldrh	r0, [r3, #2]
 294 00ac 0004     		lsls	r0, r0, #16
 295 00ae 1043     		orrs	r0, r2
 296 00b0 FFF7FEFF 		bl	CYMEMZERO
 297              	.LVL20:
 298              	.LBE4:
 425:Generated_Source\PSoC4/cyfitter_cfg.c **** 		{
 299              		.loc 1 425 0 discriminator 3
 300 00b4 0134     		adds	r4, r4, #1
 301              	.LVL21:
 302 00b6 E4B2     		uxtb	r4, r4
 303              	.LVL22:
 304              	.L14:
 425:Generated_Source\PSoC4/cyfitter_cfg.c **** 		{
 305              		.loc 1 425 0 is_stmt 0 discriminator 1
 306 00b8 012C     		cmp	r4, #1
 307 00ba EDD9     		bls	.L15
 429:Generated_Source\PSoC4/cyfitter_cfg.c **** 		}
 430:Generated_Source\PSoC4/cyfitter_cfg.c **** 
 431:Generated_Source\PSoC4/cyfitter_cfg.c **** 		cfg_write_bytes32(cy_cfg_addr_table, cy_cfg_data_table);
 308              		.loc 1 431 0 is_stmt 1
 309 00bc 2949     		ldr	r1, .L16
 310 00be 0C31     		adds	r1, r1, #12
 311 00c0 2948     		ldr	r0, .L16+4
 312 00c2 5830     		adds	r0, r0, #88
 313 00c4 FFF7FEFF 		bl	cfg_write_bytes32
 314              	.LVL23:
 432:Generated_Source\PSoC4/cyfitter_cfg.c **** 
 433:Generated_Source\PSoC4/cyfitter_cfg.c **** 		/* HSIOM Starting address: CYDEV_HSIOM_BASE */
 434:Generated_Source\PSoC4/cyfitter_cfg.c **** 		CY_SET_REG32((void *)(CYREG_HSIOM_PORT_SEL1), 0x00003333u);
 315              		.loc 1 434 0
 316 00c8 284A     		ldr	r2, .L16+8
 317 00ca 294B     		ldr	r3, .L16+12
 318 00cc 1A60     		str	r2, [r3]
 435:Generated_Source\PSoC4/cyfitter_cfg.c **** 		CY_SET_REG32((void *)(CYREG_HSIOM_PORT_SEL2), 0x33333333u);
 319              		.loc 1 435 0
 320 00ce 294A     		ldr	r2, .L16+16
 321 00d0 294B     		ldr	r3, .L16+20
 322 00d2 1A60     		str	r2, [r3]
 436:Generated_Source\PSoC4/cyfitter_cfg.c **** 		CY_SET_REG32((void *)(CYREG_HSIOM_PORT_SEL3), 0x0000EE00u);
 323              		.loc 1 436 0
 324 00d4 EE22     		movs	r2, #238
 325 00d6 1202     		lsls	r2, r2, #8
 326 00d8 284B     		ldr	r3, .L16+24
 327 00da 1A60     		str	r2, [r3]
 437:Generated_Source\PSoC4/cyfitter_cfg.c **** 		CY_SET_REG32((void *)(CYREG_HSIOM_PORT_SEL7), 0x00000099u);
 328              		.loc 1 437 0
 329 00dc 9922     		movs	r2, #153
 330 00de 284B     		ldr	r3, .L16+28
 331 00e0 1A60     		str	r2, [r3]
 438:Generated_Source\PSoC4/cyfitter_cfg.c **** 
 439:Generated_Source\PSoC4/cyfitter_cfg.c **** 		/* UDB_PA_0 Starting address: CYDEV_UDB_PA0_BASE */
 440:Generated_Source\PSoC4/cyfitter_cfg.c **** 		CY_SET_REG32((void *)(CYDEV_UDB_PA0_BASE), 0x00990000u);
 332              		.loc 1 440 0
 333 00e2 9923     		movs	r3, #153
 334 00e4 1B04     		lsls	r3, r3, #16
 335 00e6 274A     		ldr	r2, .L16+32
ARM GAS  C:\Users\Jesus\AppData\Local\Temp\ccZ7DT0O.s 			page 15


 336 00e8 1360     		str	r3, [r2]
 441:Generated_Source\PSoC4/cyfitter_cfg.c **** 
 442:Generated_Source\PSoC4/cyfitter_cfg.c **** 		/* UDB_PA_1 Starting address: CYDEV_UDB_PA1_BASE */
 443:Generated_Source\PSoC4/cyfitter_cfg.c **** 		CY_SET_REG32((void *)(CYDEV_UDB_PA1_BASE), 0x00990000u);
 337              		.loc 1 443 0
 338 00ea 274A     		ldr	r2, .L16+36
 339 00ec 1360     		str	r3, [r2]
 444:Generated_Source\PSoC4/cyfitter_cfg.c **** 		CY_SET_REG32((void *)(CYREG_UDB_PA1_CFG8), 0x00B10000u);
 340              		.loc 1 444 0
 341 00ee B121     		movs	r1, #177
 342 00f0 0904     		lsls	r1, r1, #16
 343 00f2 264A     		ldr	r2, .L16+40
 344 00f4 1160     		str	r1, [r2]
 445:Generated_Source\PSoC4/cyfitter_cfg.c **** 
 446:Generated_Source\PSoC4/cyfitter_cfg.c **** 		/* UDB_PA_2 Starting address: CYDEV_UDB_PA2_BASE */
 447:Generated_Source\PSoC4/cyfitter_cfg.c **** 		CY_SET_REG32((void *)(CYDEV_UDB_PA2_BASE), 0x00990000u);
 345              		.loc 1 447 0
 346 00f6 264A     		ldr	r2, .L16+44
 347 00f8 1360     		str	r3, [r2]
 448:Generated_Source\PSoC4/cyfitter_cfg.c **** 		CY_SET_REG32((void *)(CYREG_UDB_PA2_CFG8), 0x6C780000u);
 348              		.loc 1 448 0
 349 00fa 2649     		ldr	r1, .L16+48
 350 00fc 264A     		ldr	r2, .L16+52
 351 00fe 1160     		str	r1, [r2]
 449:Generated_Source\PSoC4/cyfitter_cfg.c **** 
 450:Generated_Source\PSoC4/cyfitter_cfg.c **** 		/* UDB_PA_3 Starting address: CYDEV_UDB_PA3_BASE */
 451:Generated_Source\PSoC4/cyfitter_cfg.c **** 		CY_SET_REG32((void *)(CYDEV_UDB_PA3_BASE), 0x00990000u);
 352              		.loc 1 451 0
 353 0100 264A     		ldr	r2, .L16+56
 354 0102 1360     		str	r3, [r2]
 452:Generated_Source\PSoC4/cyfitter_cfg.c **** 
 453:Generated_Source\PSoC4/cyfitter_cfg.c **** 		/* Enable UDB array and digital routing */
 454:Generated_Source\PSoC4/cyfitter_cfg.c **** 		CY_SET_XTND_REG8((void *)CYREG_UDB_UDBIF_WAIT_CFG, (uint8)((CY_GET_XTND_REG8((void *)CYREG_UDB_UD
 355              		.loc 1 454 0
 356 0104 2649     		ldr	r1, .L16+60
 357 0106 0B78     		ldrb	r3, [r1]
 358 0108 3C22     		movs	r2, #60
 359 010a 9343     		bics	r3, r2
 360 010c 1422     		movs	r2, #20
 361 010e 1343     		orrs	r3, r2
 362 0110 DBB2     		uxtb	r3, r3
 363 0112 0B70     		strb	r3, [r1]
 455:Generated_Source\PSoC4/cyfitter_cfg.c **** 		CY_SET_XTND_REG8((void *)CYREG_UDB_UDBIF_BANK_CTL, (uint8)(CY_GET_XTND_REG8((void *)CYREG_UDB_UDB
 364              		.loc 1 455 0
 365 0114 234A     		ldr	r2, .L16+64
 366 0116 1178     		ldrb	r1, [r2]
 367 0118 1623     		movs	r3, #22
 368 011a 0B43     		orrs	r3, r1
 369 011c DBB2     		uxtb	r3, r3
 370 011e 1370     		strb	r3, [r2]
 371              	.LBE3:
 456:Generated_Source\PSoC4/cyfitter_cfg.c **** 	}
 457:Generated_Source\PSoC4/cyfitter_cfg.c **** 
 458:Generated_Source\PSoC4/cyfitter_cfg.c **** 	/* Perform second pass device configuration. These items must be configured in specific order afte
 459:Generated_Source\PSoC4/cyfitter_cfg.c **** 	/* IOPINS0_0 Starting address: CYDEV_GPIO_PRT0_BASE */
 460:Generated_Source\PSoC4/cyfitter_cfg.c **** 	CY_SET_REG32((void *)(CYREG_GPIO_PRT0_PC), 0x00000249u);
 372              		.loc 1 460 0
ARM GAS  C:\Users\Jesus\AppData\Local\Temp\ccZ7DT0O.s 			page 16


 373 0120 214A     		ldr	r2, .L16+68
 374 0122 224B     		ldr	r3, .L16+72
 375 0124 1A60     		str	r2, [r3]
 461:Generated_Source\PSoC4/cyfitter_cfg.c **** 
 462:Generated_Source\PSoC4/cyfitter_cfg.c **** 	/* IOPINS0_1 Starting address: CYDEV_GPIO_PRT1_BASE */
 463:Generated_Source\PSoC4/cyfitter_cfg.c **** 	CY_SET_REG32((void *)(CYDEV_GPIO_PRT1_BASE), 0x0000000Fu);
 376              		.loc 1 463 0
 377 0126 0F22     		movs	r2, #15
 378 0128 214B     		ldr	r3, .L16+76
 379 012a 1A60     		str	r2, [r3]
 464:Generated_Source\PSoC4/cyfitter_cfg.c **** 	CY_SET_REG32((void *)(CYREG_GPIO_PRT1_PC), 0x00000DB6u);
 380              		.loc 1 464 0
 381 012c 214A     		ldr	r2, .L16+80
 382 012e 224B     		ldr	r3, .L16+84
 383 0130 1A60     		str	r2, [r3]
 465:Generated_Source\PSoC4/cyfitter_cfg.c **** 
 466:Generated_Source\PSoC4/cyfitter_cfg.c **** 	/* IOPINS0_2 Starting address: CYDEV_GPIO_PRT2_BASE */
 467:Generated_Source\PSoC4/cyfitter_cfg.c **** 	CY_SET_REG32((void *)(CYDEV_GPIO_PRT2_BASE), 0x000000FFu);
 384              		.loc 1 467 0
 385 0132 FF22     		movs	r2, #255
 386 0134 214B     		ldr	r3, .L16+88
 387 0136 1A60     		str	r2, [r3]
 468:Generated_Source\PSoC4/cyfitter_cfg.c **** 	CY_SET_REG32((void *)(CYREG_GPIO_PRT2_PC), 0x00DB6DB6u);
 388              		.loc 1 468 0
 389 0138 214A     		ldr	r2, .L16+92
 390 013a 224B     		ldr	r3, .L16+96
 391 013c 1A60     		str	r2, [r3]
 469:Generated_Source\PSoC4/cyfitter_cfg.c **** 
 470:Generated_Source\PSoC4/cyfitter_cfg.c **** 	/* IOPINS0_3 Starting address: CYDEV_GPIO_PRT3_BASE */
 471:Generated_Source\PSoC4/cyfitter_cfg.c **** 	CY_SET_REG32((void *)(CYREG_GPIO_PRT3_PC), 0x00009D89u);
 392              		.loc 1 471 0
 393 013e 224A     		ldr	r2, .L16+100
 394 0140 224B     		ldr	r3, .L16+104
 395 0142 1A60     		str	r2, [r3]
 472:Generated_Source\PSoC4/cyfitter_cfg.c **** 
 473:Generated_Source\PSoC4/cyfitter_cfg.c **** 	/* IOPINS0_4 Starting address: CYDEV_GPIO_PRT4_BASE */
 474:Generated_Source\PSoC4/cyfitter_cfg.c **** 	CY_SET_REG32((void *)(CYREG_GPIO_PRT4_PC), 0x00000036u);
 396              		.loc 1 474 0
 397 0144 3622     		movs	r2, #54
 398 0146 224B     		ldr	r3, .L16+108
 399 0148 1A60     		str	r2, [r3]
 475:Generated_Source\PSoC4/cyfitter_cfg.c **** 
 476:Generated_Source\PSoC4/cyfitter_cfg.c **** 	/* IOPINS0_7 Starting address: CYDEV_GPIO_PRT7_BASE */
 477:Generated_Source\PSoC4/cyfitter_cfg.c **** 	CY_SET_REG32((void *)(CYDEV_GPIO_PRT7_BASE), 0x00000002u);
 400              		.loc 1 477 0
 401 014a 0223     		movs	r3, #2
 402 014c 214A     		ldr	r2, .L16+112
 403 014e 1360     		str	r3, [r2]
 478:Generated_Source\PSoC4/cyfitter_cfg.c **** 	CY_SET_REG32((void *)(CYREG_GPIO_PRT7_PC), 0x00000031u);
 404              		.loc 1 478 0
 405 0150 3121     		movs	r1, #49
 406 0152 214A     		ldr	r2, .L16+116
 407 0154 1160     		str	r1, [r2]
 479:Generated_Source\PSoC4/cyfitter_cfg.c **** 	CY_SET_REG32((void *)(CYREG_GPIO_PRT7_PC2), 0x00000002u);
 408              		.loc 1 479 0
 409 0156 214A     		ldr	r2, .L16+120
 410 0158 1360     		str	r3, [r2]
ARM GAS  C:\Users\Jesus\AppData\Local\Temp\ccZ7DT0O.s 			page 17


 480:Generated_Source\PSoC4/cyfitter_cfg.c **** 
 481:Generated_Source\PSoC4/cyfitter_cfg.c **** 
 482:Generated_Source\PSoC4/cyfitter_cfg.c **** 	/* Setup clocks based on selections from Clock DWR */
 483:Generated_Source\PSoC4/cyfitter_cfg.c **** 	ClockSetup();
 411              		.loc 1 483 0
 412 015a FFF751FF 		bl	ClockSetup
 413              	.LVL24:
 484:Generated_Source\PSoC4/cyfitter_cfg.c **** 
 485:Generated_Source\PSoC4/cyfitter_cfg.c **** 	/* Perform basic analog initialization to defaults */
 486:Generated_Source\PSoC4/cyfitter_cfg.c **** 	AnalogSetDefault();
 414              		.loc 1 486 0
 415 015e FFF7FEFF 		bl	AnalogSetDefault
 416              	.LVL25:
 487:Generated_Source\PSoC4/cyfitter_cfg.c **** 
 488:Generated_Source\PSoC4/cyfitter_cfg.c **** }
 417              		.loc 1 488 0
 418              		@ sp needed
 419              	.LVL26:
 420 0162 10BD     		pop	{r4, pc}
 421              	.L17:
 422              		.align	2
 423              	.L16:
 424 0164 00000000 		.word	.LANCHOR0
 425 0168 80000000 		.word	.LANCHOR1
 426 016c 33330000 		.word	13107
 427 0170 00010240 		.word	1073873152
 428 0174 33333333 		.word	858993459
 429 0178 00020240 		.word	1073873408
 430 017c 00030240 		.word	1073873664
 431 0180 00070240 		.word	1073874688
 432 0184 00500F40 		.word	1074745344
 433 0188 10500F40 		.word	1074745360
 434 018c 18500F40 		.word	1074745368
 435 0190 20500F40 		.word	1074745376
 436 0194 0000786C 		.word	1819803648
 437 0198 28500F40 		.word	1074745384
 438 019c 30500F40 		.word	1074745392
 439 01a0 01700F40 		.word	1074753537
 440 01a4 00700F40 		.word	1074753536
 441 01a8 49020000 		.word	585
 442 01ac 08000440 		.word	1074003976
 443 01b0 00010440 		.word	1074004224
 444 01b4 B60D0000 		.word	3510
 445 01b8 08010440 		.word	1074004232
 446 01bc 00020440 		.word	1074004480
 447 01c0 B66DDB00 		.word	14380470
 448 01c4 08020440 		.word	1074004488
 449 01c8 899D0000 		.word	40329
 450 01cc 08030440 		.word	1074004744
 451 01d0 08040440 		.word	1074005000
 452 01d4 00070440 		.word	1074005760
 453 01d8 08070440 		.word	1074005768
 454 01dc 18070440 		.word	1074005784
 455              		.cfi_endproc
 456              	.LFE7:
 457              		.size	cyfitter_cfg, .-cyfitter_cfg
 458              		.section	.rodata
ARM GAS  C:\Users\Jesus\AppData\Local\Temp\ccZ7DT0O.s 			page 18


 459              		.align	2
 460              		.set	.LANCHOR0,. + 0
 461              		.set	.LANCHOR1,. + 128
 462              		.type	cfg_memset_list.4911, %object
 463              		.size	cfg_memset_list.4911, 12
 464              	cfg_memset_list.4911:
 465 0000 00300F40 		.word	1074737152
 466 0004 0004     		.short	1024
 467 0006 00400F40 		.4byte	1074741248
 468 000a 0004     		.short	1024
 469              		.type	cy_cfg_data_table.4906, %object
 470              		.size	cy_cfg_data_table.4906, 202
 471              	cy_cfg_data_table.4906:
 472 000c 83       		.byte	-125
 473 000d 10       		.byte	16
 474 000e 8C       		.byte	-116
 475 000f 40       		.byte	64
 476 0010 E0       		.byte	-32
 477 0011 04       		.byte	4
 478 0012 5B       		.byte	91
 479 0013 04       		.byte	4
 480 0014 5F       		.byte	95
 481 0015 01       		.byte	1
 482 0016 DB       		.byte	-37
 483 0017 04       		.byte	4
 484 0018 DF       		.byte	-33
 485 0019 01       		.byte	1
 486 001a 59       		.byte	89
 487 001b 40       		.byte	64
 488 001c 5B       		.byte	91
 489 001d 2A       		.byte	42
 490 001e 60       		.byte	96
 491 001f AA       		.byte	-86
 492 0020 68       		.byte	104
 493 0021 40       		.byte	64
 494 0022 69       		.byte	105
 495 0023 80       		.byte	-128
 496 0024 6A       		.byte	106
 497 0025 20       		.byte	32
 498 0026 6B       		.byte	107
 499 0027 10       		.byte	16
 500 0028 6C       		.byte	108
 501 0029 0A       		.byte	10
 502 002a 6E       		.byte	110
 503 002b 08       		.byte	8
 504 002c 6F       		.byte	111
 505 002d 80       		.byte	-128
 506 002e 70       		.byte	112
 507 002f 44       		.byte	68
 508 0030 71       		.byte	113
 509 0031 20       		.byte	32
 510 0032 73       		.byte	115
 511 0033 80       		.byte	-128
 512 0034 80       		.byte	-128
 513 0035 0C       		.byte	12
 514 0036 83       		.byte	-125
 515 0037 80       		.byte	-128
ARM GAS  C:\Users\Jesus\AppData\Local\Temp\ccZ7DT0O.s 			page 19


 516 0038 84       		.byte	-124
 517 0039 A2       		.byte	-94
 518 003a 88       		.byte	-120
 519 003b 0A       		.byte	10
 520 003c 8B       		.byte	-117
 521 003d 80       		.byte	-128
 522 003e 8D       		.byte	-115
 523 003f 40       		.byte	64
 524 0040 8E       		.byte	-114
 525 0041 04       		.byte	4
 526 0042 94       		.byte	-108
 527 0043 80       		.byte	-128
 528 0044 96       		.byte	-106
 529 0045 20       		.byte	32
 530 0046 99       		.byte	-103
 531 0047 40       		.byte	64
 532 0048 9B       		.byte	-101
 533 0049 2A       		.byte	42
 534 004a 9F       		.byte	-97
 535 004b 10       		.byte	16
 536 004c A4       		.byte	-92
 537 004d 40       		.byte	64
 538 004e A5       		.byte	-91
 539 004f 20       		.byte	32
 540 0050 AA       		.byte	-86
 541 0051 10       		.byte	16
 542 0052 AB       		.byte	-85
 543 0053 2A       		.byte	42
 544 0054 AC       		.byte	-84
 545 0055 40       		.byte	64
 546 0056 AD       		.byte	-83
 547 0057 40       		.byte	64
 548 0058 B5       		.byte	-75
 549 0059 20       		.byte	32
 550 005a D6       		.byte	-42
 551 005b 0F       		.byte	15
 552 005c D8       		.byte	-40
 553 005d 0F       		.byte	15
 554 005e E2       		.byte	-30
 555 005f 40       		.byte	64
 556 0060 E4       		.byte	-28
 557 0061 01       		.byte	1
 558 0062 E6       		.byte	-26
 559 0063 0A       		.byte	10
 560 0064 E8       		.byte	-24
 561 0065 02       		.byte	2
 562 0066 EC       		.byte	-20
 563 0067 04       		.byte	4
 564 0068 03       		.byte	3
 565 0069 22       		.byte	34
 566 006a 04       		.byte	4
 567 006b 10       		.byte	16
 568 006c 07       		.byte	7
 569 006d 80       		.byte	-128
 570 006e C0       		.byte	-64
 571 006f F0       		.byte	-16
 572 0070 51       		.byte	81
ARM GAS  C:\Users\Jesus\AppData\Local\Temp\ccZ7DT0O.s 			page 20


 573 0071 08       		.byte	8
 574 0072 53       		.byte	83
 575 0073 01       		.byte	1
 576 0074 56       		.byte	86
 577 0075 42       		.byte	66
 578 0076 81       		.byte	-127
 579 0077 08       		.byte	8
 580 0078 83       		.byte	-125
 581 0079 01       		.byte	1
 582 007a 86       		.byte	-122
 583 007b 40       		.byte	64
 584 007c 8E       		.byte	-114
 585 007d 02       		.byte	2
 586 007e A8       		.byte	-88
 587 007f 10       		.byte	16
 588 0080 AB       		.byte	-85
 589 0081 82       		.byte	-126
 590 0082 AF       		.byte	-81
 591 0083 20       		.byte	32
 592 0084 D4       		.byte	-44
 593 0085 E0       		.byte	-32
 594 0086 D6       		.byte	-42
 595 0087 20       		.byte	32
 596 0088 E2       		.byte	-30
 597 0089 90       		.byte	-112
 598 008a E6       		.byte	-26
 599 008b 20       		.byte	32
 600 008c E8       		.byte	-24
 601 008d A0       		.byte	-96
 602 008e EC       		.byte	-20
 603 008f 90       		.byte	-112
 604 0090 50       		.byte	80
 605 0091 40       		.byte	64
 606 0092 53       		.byte	83
 607 0093 01       		.byte	1
 608 0094 54       		.byte	84
 609 0095 02       		.byte	2
 610 0096 56       		.byte	86
 611 0097 10       		.byte	16
 612 0098 5B       		.byte	91
 613 0099 04       		.byte	4
 614 009a 61       		.byte	97
 615 009b 04       		.byte	4
 616 009c 66       		.byte	102
 617 009d 81       		.byte	-127
 618 009e 80       		.byte	-128
 619 009f 02       		.byte	2
 620 00a0 8F       		.byte	-113
 621 00a1 04       		.byte	4
 622 00a2 D4       		.byte	-44
 623 00a3 07       		.byte	7
 624 00a4 D6       		.byte	-42
 625 00a5 07       		.byte	7
 626 00a6 D8       		.byte	-40
 627 00a7 03       		.byte	3
 628 00a8 E4       		.byte	-28
 629 00a9 08       		.byte	8
ARM GAS  C:\Users\Jesus\AppData\Local\Temp\ccZ7DT0O.s 			page 21


 630 00aa 00       		.byte	0
 631 00ab 08       		.byte	8
 632 00ac 05       		.byte	5
 633 00ad 08       		.byte	8
 634 00ae 08       		.byte	8
 635 00af 08       		.byte	8
 636 00b0 0F       		.byte	15
 637 00b1 40       		.byte	64
 638 00b2 81       		.byte	-127
 639 00b3 04       		.byte	4
 640 00b4 84       		.byte	-124
 641 00b5 08       		.byte	8
 642 00b6 87       		.byte	-121
 643 00b7 40       		.byte	64
 644 00b8 88       		.byte	-120
 645 00b9 04       		.byte	4
 646 00ba 89       		.byte	-119
 647 00bb 08       		.byte	8
 648 00bc 8A       		.byte	-118
 649 00bd 80       		.byte	-128
 650 00be 8C       		.byte	-116
 651 00bf 40       		.byte	64
 652 00c0 94       		.byte	-108
 653 00c1 80       		.byte	-128
 654 00c2 9D       		.byte	-99
 655 00c3 04       		.byte	4
 656 00c4 9E       		.byte	-98
 657 00c5 80       		.byte	-128
 658 00c6 AB       		.byte	-85
 659 00c7 01       		.byte	1
 660 00c8 AE       		.byte	-82
 661 00c9 10       		.byte	16
 662 00ca B6       		.byte	-74
 663 00cb 01       		.byte	1
 664 00cc C0       		.byte	-64
 665 00cd 0C       		.byte	12
 666 00ce C2       		.byte	-62
 667 00cf 0C       		.byte	12
 668 00d0 E2       		.byte	-30
 669 00d1 05       		.byte	5
 670 00d2 E4       		.byte	-28
 671 00d3 0C       		.byte	12
 672 00d4 EC       		.byte	-20
 673 00d5 02       		.byte	2
 674 00d6 0000     		.space	2
 675              		.type	cy_cfg_addr_table.4905, %object
 676              		.size	cy_cfg_addr_table.4905, 28
 677              	cy_cfg_addr_table.4905:
 678 00d8 03310F40 		.word	1074737411
 679 00dc 04320F40 		.word	1074737668
 680 00e0 27330F40 		.word	1074737959
 681 00e4 04400F40 		.word	1074741252
 682 00e8 10410F40 		.word	1074741520
 683 00ec 0D420F40 		.word	1074741773
 684 00f0 16430F40 		.word	1074742038
 685              		.text
 686              	.Letext0:
ARM GAS  C:\Users\Jesus\AppData\Local\Temp\ccZ7DT0O.s 			page 22


 687              		.file 2 "c:\\program files\\cypress\\psoc creator\\4.2\\psoc creator\\import\\gnu\\arm\\5.4.1\\lib
 688              		.file 3 "Generated_Source\\PSoC4\\cytypes.h"
 689              		.file 4 "Generated_Source\\PSoC4\\CyLib.h"