ARM GAS  C:\Users\Jesus\AppData\Local\Temp\cc7jahcS.s 			page 1


   1              		.syntax unified
   2              		.cpu cortex-m0
   3              		.fpu softvfp
   4              		.eabi_attribute 20, 1
   5              		.eabi_attribute 21, 1
   6              		.eabi_attribute 23, 3
   7              		.eabi_attribute 24, 1
   8              		.eabi_attribute 25, 1
   9              		.eabi_attribute 26, 1
  10              		.eabi_attribute 30, 1
  11              		.eabi_attribute 34, 0
  12              		.eabi_attribute 18, 4
  13              		.thumb
  14              		.syntax unified
  15              		.file	"DataInput.c"
  16              		.text
  17              	.Ltext0:
  18              		.cfi_sections	.debug_frame
  19              		.section	.text.DataInput_Read,"ax",%progbits
  20              		.align	2
  21              		.global	DataInput_Read
  22              		.code	16
  23              		.thumb_func
  24              		.type	DataInput_Read, %function
  25              	DataInput_Read:
  26              	.LFB1:
  27              		.file 1 "Generated_Source\\PSoC4\\DataInput.c"
   1:Generated_Source\PSoC4/DataInput.c **** /*******************************************************************************
   2:Generated_Source\PSoC4/DataInput.c **** * File Name: DataInput.c  
   3:Generated_Source\PSoC4/DataInput.c **** * Version 1.90
   4:Generated_Source\PSoC4/DataInput.c **** *
   5:Generated_Source\PSoC4/DataInput.c **** * Description:
   6:Generated_Source\PSoC4/DataInput.c **** *  This file contains API to enable firmware to read the value of a Status 
   7:Generated_Source\PSoC4/DataInput.c **** *  Register.
   8:Generated_Source\PSoC4/DataInput.c **** *
   9:Generated_Source\PSoC4/DataInput.c **** * Note:
  10:Generated_Source\PSoC4/DataInput.c **** *
  11:Generated_Source\PSoC4/DataInput.c **** ********************************************************************************
  12:Generated_Source\PSoC4/DataInput.c **** * Copyright 2008-2015, Cypress Semiconductor Corporation.  All rights reserved.
  13:Generated_Source\PSoC4/DataInput.c **** * You may use this file only in accordance with the license, terms, conditions, 
  14:Generated_Source\PSoC4/DataInput.c **** * disclaimers, and limitations in the end user license agreement accompanying 
  15:Generated_Source\PSoC4/DataInput.c **** * the software package with which this file was provided.
  16:Generated_Source\PSoC4/DataInput.c **** *******************************************************************************/
  17:Generated_Source\PSoC4/DataInput.c **** 
  18:Generated_Source\PSoC4/DataInput.c **** #include "DataInput.h"
  19:Generated_Source\PSoC4/DataInput.c **** 
  20:Generated_Source\PSoC4/DataInput.c **** #if !defined(DataInput_sts_sts_reg__REMOVED) /* Check for removal by optimization */
  21:Generated_Source\PSoC4/DataInput.c **** 
  22:Generated_Source\PSoC4/DataInput.c **** 
  23:Generated_Source\PSoC4/DataInput.c **** /*******************************************************************************
  24:Generated_Source\PSoC4/DataInput.c **** * Function Name: DataInput_Read
  25:Generated_Source\PSoC4/DataInput.c **** ********************************************************************************
  26:Generated_Source\PSoC4/DataInput.c **** *
  27:Generated_Source\PSoC4/DataInput.c **** * Summary:
  28:Generated_Source\PSoC4/DataInput.c **** *  Reads the current value assigned to the Status Register.
  29:Generated_Source\PSoC4/DataInput.c **** *
  30:Generated_Source\PSoC4/DataInput.c **** * Parameters:
ARM GAS  C:\Users\Jesus\AppData\Local\Temp\cc7jahcS.s 			page 2


  31:Generated_Source\PSoC4/DataInput.c **** *  None.
  32:Generated_Source\PSoC4/DataInput.c **** *
  33:Generated_Source\PSoC4/DataInput.c **** * Return:
  34:Generated_Source\PSoC4/DataInput.c **** *  The current value in the Status Register.
  35:Generated_Source\PSoC4/DataInput.c **** *
  36:Generated_Source\PSoC4/DataInput.c **** *******************************************************************************/
  37:Generated_Source\PSoC4/DataInput.c **** uint8 DataInput_Read(void) 
  38:Generated_Source\PSoC4/DataInput.c **** { 
  28              		.loc 1 38 0
  29              		.cfi_startproc
  30              		@ args = 0, pretend = 0, frame = 0
  31              		@ frame_needed = 0, uses_anonymous_args = 0
  32              		@ link register save eliminated.
  39:Generated_Source\PSoC4/DataInput.c ****     return DataInput_Status;
  33              		.loc 1 39 0
  34 0000 014B     		ldr	r3, .L2
  35 0002 1878     		ldrb	r0, [r3]
  36 0004 C0B2     		uxtb	r0, r0
  40:Generated_Source\PSoC4/DataInput.c **** }
  37              		.loc 1 40 0
  38              		@ sp needed
  39 0006 7047     		bx	lr
  40              	.L3:
  41              		.align	2
  42              	.L2:
  43 0008 63000F40 		.word	1074724963
  44              		.cfi_endproc
  45              	.LFE1:
  46              		.size	DataInput_Read, .-DataInput_Read
  47              		.section	.text.DataInput_InterruptEnable,"ax",%progbits
  48              		.align	2
  49              		.global	DataInput_InterruptEnable
  50              		.code	16
  51              		.thumb_func
  52              		.type	DataInput_InterruptEnable, %function
  53              	DataInput_InterruptEnable:
  54              	.LFB2:
  41:Generated_Source\PSoC4/DataInput.c **** 
  42:Generated_Source\PSoC4/DataInput.c **** 
  43:Generated_Source\PSoC4/DataInput.c **** /*******************************************************************************
  44:Generated_Source\PSoC4/DataInput.c **** * Function Name: DataInput_InterruptEnable
  45:Generated_Source\PSoC4/DataInput.c **** ********************************************************************************
  46:Generated_Source\PSoC4/DataInput.c **** *
  47:Generated_Source\PSoC4/DataInput.c **** * Summary:
  48:Generated_Source\PSoC4/DataInput.c **** *  Enables the Status Register interrupt.
  49:Generated_Source\PSoC4/DataInput.c **** *
  50:Generated_Source\PSoC4/DataInput.c **** * Parameters:
  51:Generated_Source\PSoC4/DataInput.c **** *  None.
  52:Generated_Source\PSoC4/DataInput.c **** *
  53:Generated_Source\PSoC4/DataInput.c **** * Return:
  54:Generated_Source\PSoC4/DataInput.c **** *  None.
  55:Generated_Source\PSoC4/DataInput.c **** *
  56:Generated_Source\PSoC4/DataInput.c **** *******************************************************************************/
  57:Generated_Source\PSoC4/DataInput.c **** void DataInput_InterruptEnable(void) 
  58:Generated_Source\PSoC4/DataInput.c **** {
  55              		.loc 1 58 0
  56              		.cfi_startproc
ARM GAS  C:\Users\Jesus\AppData\Local\Temp\cc7jahcS.s 			page 3


  57              		@ args = 0, pretend = 0, frame = 0
  58              		@ frame_needed = 0, uses_anonymous_args = 0
  59 0000 10B5     		push	{r4, lr}
  60              		.cfi_def_cfa_offset 8
  61              		.cfi_offset 4, -8
  62              		.cfi_offset 14, -4
  59:Generated_Source\PSoC4/DataInput.c ****     uint8 interruptState;
  60:Generated_Source\PSoC4/DataInput.c ****     interruptState = CyEnterCriticalSection();
  63              		.loc 1 60 0
  64 0002 FFF7FEFF 		bl	CyEnterCriticalSection
  65              	.LVL0:
  61:Generated_Source\PSoC4/DataInput.c ****     DataInput_Status_Aux_Ctrl |= DataInput_STATUS_INTR_ENBL;
  66              		.loc 1 61 0
  67 0006 044A     		ldr	r2, .L5
  68 0008 1178     		ldrb	r1, [r2]
  69 000a 1023     		movs	r3, #16
  70 000c 0B43     		orrs	r3, r1
  71 000e DBB2     		uxtb	r3, r3
  72 0010 1370     		strb	r3, [r2]
  62:Generated_Source\PSoC4/DataInput.c ****     CyExitCriticalSection(interruptState);
  73              		.loc 1 62 0
  74 0012 FFF7FEFF 		bl	CyExitCriticalSection
  75              	.LVL1:
  63:Generated_Source\PSoC4/DataInput.c **** }
  76              		.loc 1 63 0
  77              		@ sp needed
  78 0016 10BD     		pop	{r4, pc}
  79              	.L6:
  80              		.align	2
  81              	.L5:
  82 0018 93000F40 		.word	1074725011
  83              		.cfi_endproc
  84              	.LFE2:
  85              		.size	DataInput_InterruptEnable, .-DataInput_InterruptEnable
  86              		.section	.text.DataInput_InterruptDisable,"ax",%progbits
  87              		.align	2
  88              		.global	DataInput_InterruptDisable
  89              		.code	16
  90              		.thumb_func
  91              		.type	DataInput_InterruptDisable, %function
  92              	DataInput_InterruptDisable:
  93              	.LFB3:
  64:Generated_Source\PSoC4/DataInput.c **** 
  65:Generated_Source\PSoC4/DataInput.c **** 
  66:Generated_Source\PSoC4/DataInput.c **** /*******************************************************************************
  67:Generated_Source\PSoC4/DataInput.c **** * Function Name: DataInput_InterruptDisable
  68:Generated_Source\PSoC4/DataInput.c **** ********************************************************************************
  69:Generated_Source\PSoC4/DataInput.c **** *
  70:Generated_Source\PSoC4/DataInput.c **** * Summary:
  71:Generated_Source\PSoC4/DataInput.c **** *  Disables the Status Register interrupt.
  72:Generated_Source\PSoC4/DataInput.c **** *
  73:Generated_Source\PSoC4/DataInput.c **** * Parameters:
  74:Generated_Source\PSoC4/DataInput.c **** *  None.
  75:Generated_Source\PSoC4/DataInput.c **** *
  76:Generated_Source\PSoC4/DataInput.c **** * Return:
  77:Generated_Source\PSoC4/DataInput.c **** *  None.
  78:Generated_Source\PSoC4/DataInput.c **** *
ARM GAS  C:\Users\Jesus\AppData\Local\Temp\cc7jahcS.s 			page 4


  79:Generated_Source\PSoC4/DataInput.c **** *******************************************************************************/
  80:Generated_Source\PSoC4/DataInput.c **** void DataInput_InterruptDisable(void) 
  81:Generated_Source\PSoC4/DataInput.c **** {
  94              		.loc 1 81 0
  95              		.cfi_startproc
  96              		@ args = 0, pretend = 0, frame = 0
  97              		@ frame_needed = 0, uses_anonymous_args = 0
  98 0000 10B5     		push	{r4, lr}
  99              		.cfi_def_cfa_offset 8
 100              		.cfi_offset 4, -8
 101              		.cfi_offset 14, -4
  82:Generated_Source\PSoC4/DataInput.c ****     uint8 interruptState;
  83:Generated_Source\PSoC4/DataInput.c ****     interruptState = CyEnterCriticalSection();
 102              		.loc 1 83 0
 103 0002 FFF7FEFF 		bl	CyEnterCriticalSection
 104              	.LVL2:
  84:Generated_Source\PSoC4/DataInput.c ****     DataInput_Status_Aux_Ctrl &= (uint8)(~DataInput_STATUS_INTR_ENBL);
 105              		.loc 1 84 0
 106 0006 044A     		ldr	r2, .L8
 107 0008 1378     		ldrb	r3, [r2]
 108 000a 1021     		movs	r1, #16
 109 000c 8B43     		bics	r3, r1
 110 000e 1370     		strb	r3, [r2]
  85:Generated_Source\PSoC4/DataInput.c ****     CyExitCriticalSection(interruptState);
 111              		.loc 1 85 0
 112 0010 FFF7FEFF 		bl	CyExitCriticalSection
 113              	.LVL3:
  86:Generated_Source\PSoC4/DataInput.c **** }
 114              		.loc 1 86 0
 115              		@ sp needed
 116 0014 10BD     		pop	{r4, pc}
 117              	.L9:
 118 0016 C046     		.align	2
 119              	.L8:
 120 0018 93000F40 		.word	1074725011
 121              		.cfi_endproc
 122              	.LFE3:
 123              		.size	DataInput_InterruptDisable, .-DataInput_InterruptDisable
 124              		.section	.text.DataInput_WriteMask,"ax",%progbits
 125              		.align	2
 126              		.global	DataInput_WriteMask
 127              		.code	16
 128              		.thumb_func
 129              		.type	DataInput_WriteMask, %function
 130              	DataInput_WriteMask:
 131              	.LFB4:
  87:Generated_Source\PSoC4/DataInput.c **** 
  88:Generated_Source\PSoC4/DataInput.c **** 
  89:Generated_Source\PSoC4/DataInput.c **** /*******************************************************************************
  90:Generated_Source\PSoC4/DataInput.c **** * Function Name: DataInput_WriteMask
  91:Generated_Source\PSoC4/DataInput.c **** ********************************************************************************
  92:Generated_Source\PSoC4/DataInput.c **** *
  93:Generated_Source\PSoC4/DataInput.c **** * Summary:
  94:Generated_Source\PSoC4/DataInput.c **** *  Writes the current mask value assigned to the Status Register.
  95:Generated_Source\PSoC4/DataInput.c **** *
  96:Generated_Source\PSoC4/DataInput.c **** * Parameters:
  97:Generated_Source\PSoC4/DataInput.c **** *  mask:  Value to write into the mask register.
ARM GAS  C:\Users\Jesus\AppData\Local\Temp\cc7jahcS.s 			page 5


  98:Generated_Source\PSoC4/DataInput.c **** *
  99:Generated_Source\PSoC4/DataInput.c **** * Return:
 100:Generated_Source\PSoC4/DataInput.c **** *  None.
 101:Generated_Source\PSoC4/DataInput.c **** *
 102:Generated_Source\PSoC4/DataInput.c **** *******************************************************************************/
 103:Generated_Source\PSoC4/DataInput.c **** void DataInput_WriteMask(uint8 mask) 
 104:Generated_Source\PSoC4/DataInput.c **** {
 132              		.loc 1 104 0
 133              		.cfi_startproc
 134              		@ args = 0, pretend = 0, frame = 0
 135              		@ frame_needed = 0, uses_anonymous_args = 0
 136              		@ link register save eliminated.
 137              	.LVL4:
 105:Generated_Source\PSoC4/DataInput.c ****     #if(DataInput_INPUTS < 8u)
 106:Generated_Source\PSoC4/DataInput.c ****     	mask &= ((uint8)(1u << DataInput_INPUTS) - 1u);
 107:Generated_Source\PSoC4/DataInput.c **** 	#endif /* End DataInput_INPUTS < 8u */
 108:Generated_Source\PSoC4/DataInput.c ****     DataInput_Status_Mask = mask;
 138              		.loc 1 108 0
 139 0000 014B     		ldr	r3, .L11
 140 0002 1870     		strb	r0, [r3]
 109:Generated_Source\PSoC4/DataInput.c **** }
 141              		.loc 1 109 0
 142              		@ sp needed
 143 0004 7047     		bx	lr
 144              	.L12:
 145 0006 C046     		.align	2
 146              	.L11:
 147 0008 83000F40 		.word	1074724995
 148              		.cfi_endproc
 149              	.LFE4:
 150              		.size	DataInput_WriteMask, .-DataInput_WriteMask
 151              		.section	.text.DataInput_ReadMask,"ax",%progbits
 152              		.align	2
 153              		.global	DataInput_ReadMask
 154              		.code	16
 155              		.thumb_func
 156              		.type	DataInput_ReadMask, %function
 157              	DataInput_ReadMask:
 158              	.LFB5:
 110:Generated_Source\PSoC4/DataInput.c **** 
 111:Generated_Source\PSoC4/DataInput.c **** 
 112:Generated_Source\PSoC4/DataInput.c **** /*******************************************************************************
 113:Generated_Source\PSoC4/DataInput.c **** * Function Name: DataInput_ReadMask
 114:Generated_Source\PSoC4/DataInput.c **** ********************************************************************************
 115:Generated_Source\PSoC4/DataInput.c **** *
 116:Generated_Source\PSoC4/DataInput.c **** * Summary:
 117:Generated_Source\PSoC4/DataInput.c **** *  Reads the current interrupt mask assigned to the Status Register.
 118:Generated_Source\PSoC4/DataInput.c **** *
 119:Generated_Source\PSoC4/DataInput.c **** * Parameters:
 120:Generated_Source\PSoC4/DataInput.c **** *  None.
 121:Generated_Source\PSoC4/DataInput.c **** *
 122:Generated_Source\PSoC4/DataInput.c **** * Return:
 123:Generated_Source\PSoC4/DataInput.c **** *  The value of the interrupt mask of the Status Register.
 124:Generated_Source\PSoC4/DataInput.c **** *
 125:Generated_Source\PSoC4/DataInput.c **** *******************************************************************************/
 126:Generated_Source\PSoC4/DataInput.c **** uint8 DataInput_ReadMask(void) 
 127:Generated_Source\PSoC4/DataInput.c **** {
ARM GAS  C:\Users\Jesus\AppData\Local\Temp\cc7jahcS.s 			page 6


 159              		.loc 1 127 0
 160              		.cfi_startproc
 161              		@ args = 0, pretend = 0, frame = 0
 162              		@ frame_needed = 0, uses_anonymous_args = 0
 163              		@ link register save eliminated.
 128:Generated_Source\PSoC4/DataInput.c ****     return DataInput_Status_Mask;
 164              		.loc 1 128 0
 165 0000 014B     		ldr	r3, .L14
 166 0002 1878     		ldrb	r0, [r3]
 167 0004 C0B2     		uxtb	r0, r0
 129:Generated_Source\PSoC4/DataInput.c **** }
 168              		.loc 1 129 0
 169              		@ sp needed
 170 0006 7047     		bx	lr
 171              	.L15:
 172              		.align	2
 173              	.L14:
 174 0008 83000F40 		.word	1074724995
 175              		.cfi_endproc
 176              	.LFE5:
 177              		.size	DataInput_ReadMask, .-DataInput_ReadMask
 178              		.text
 179              	.Letext0:
 180              		.file 2 "Generated_Source\\PSoC4\\cytypes.h"
 181              		.file 3 "Generated_Source\\PSoC4\\CyLib.h"