ARM GAS  C:\Users\Jesus\AppData\Local\Temp\ccQz4bta.s 			page 1


   1              		.syntax unified
   2              		.cpu cortex-m0
   3              		.fpu softvfp
   4              		.eabi_attribute 20, 1
   5              		.eabi_attribute 21, 1
   6              		.eabi_attribute 23, 3
   7              		.eabi_attribute 24, 1
   8              		.eabi_attribute 25, 1
   9              		.eabi_attribute 26, 1
  10              		.eabi_attribute 30, 1
  11              		.eabi_attribute 34, 0
  12              		.eabi_attribute 18, 4
  13              		.thumb
  14              		.syntax unified
  15              		.file	"main.c"
  16              		.text
  17              	.Ltext0:
  18              		.cfi_sections	.debug_frame
  19              		.section	.text.SendHexToUart,"ax",%progbits
  20              		.align	2
  21              		.global	SendHexToUart
  22              		.code	16
  23              		.thumb_func
  24              		.type	SendHexToUart, %function
  25              	SendHexToUart:
  26              	.LFB35:
  27              		.file 1 "main.c"
   1:main.c        **** /* ========================================
   2:main.c        ****  *
   3:main.c        ****  *  Draft firmare to read an
   4:main.c        ****  *  old EPROM 2732 chip.
   5:main.c        ****  *
   6:main.c        ****  *  (C) Jesús Rodríguez Cacabelos. 2019.
   7:main.c        ****  *  www.hackingchips.com
   8:main.c        ****  *
   9:main.c        ****  *  This sends the content of the chip to
  10:main.c        ****  *  serial port in Intel HEX 8 bytes format.
  11:main.c        ****  *
  12:main.c        ****  * ========================================
  13:main.c        **** */
  14:main.c        **** #include "project.h"
  15:main.c        **** 
  16:main.c        **** void SendHexToUart(uint8 rbyte);
  17:main.c        **** 
  18:main.c        **** int main(void)
  19:main.c        **** {
  20:main.c        ****     uint32 rxchar, rdchecksum;
  21:main.c        ****     uint16 eprom_address;
  22:main.c        ****     uint8 rdbyte;
  23:main.c        **** 
  24:main.c        ****     /* Initialization. */
  25:main.c        ****     AddrHigh_Write(0);
  26:main.c        ****     AddrLow_Write(0);            // Address = 0
  27:main.c        ****     AddrHigh_Write(0);
  28:main.c        ****  
  29:main.c        ****     CE_Write(1);                    // CE = 1.
  30:main.c        ****     OE_Write(1);                    // OE = 1.
ARM GAS  C:\Users\Jesus\AppData\Local\Temp\ccQz4bta.s 			page 2


  31:main.c        ****     
  32:main.c        ****     UART_Start();                   // Initialize uart peripheral.
  33:main.c        **** 
  34:main.c        ****     UART_UartPutString(">>>>> Press 'R' to start eprom read."); 
  35:main.c        ****     UART_UartPutChar(0x0D);
  36:main.c        ****     UART_UartPutChar(0x0A);
  37:main.c        **** 
  38:main.c        ****     for(;;)
  39:main.c        ****     {
  40:main.c        ****         rxchar = UART_UartGetChar();    
  41:main.c        ****                 
  42:main.c        ****         /* Wait for R character from serial port. Then start eprom read. */
  43:main.c        ****         if (rxchar == 'R')
  44:main.c        ****         {
  45:main.c        ****             eprom_address = 0;                      // Initialize eprom address.
  46:main.c        ****             
  47:main.c        ****             //UART_UartPutString(":10000000");        // Start a new line. 10 -> each line will hav
  48:main.c        ****             //rdchecksum = 0x10;                      // Initialize checksum.
  49:main.c        ****                     
  50:main.c        ****             CE_Write(0);                            // Enable eprom chip.      
  51:main.c        ****             CyDelay(1);
  52:main.c        ****             
  53:main.c        ****             for (eprom_address = 0; eprom_address < 4096; eprom_address++)
  54:main.c        ****             {
  55:main.c        ****                 // A block of 16 bytes has been readed? Then send checksum to serial port.
  56:main.c        ****                 if ((eprom_address % 16) == 0)
  57:main.c        ****                 {
  58:main.c        ****                     if (eprom_address > 0) 
  59:main.c        ****                     {
  60:main.c        ****                         SendHexToUart( (~((uint8)rdchecksum)) + 1);                           // Se
  61:main.c        ****                         UART_UartPutChar(0x0D);
  62:main.c        ****                         UART_UartPutChar(0x0A);
  63:main.c        ****                     }
  64:main.c        ****                     
  65:main.c        ****                     rdchecksum = 0x10 + (uint8)eprom_address + (uint8)(eprom_address >> 8);     // 
  66:main.c        ****                     
  67:main.c        ****                     UART_UartPutString(":10");                                                  // 
  68:main.c        ****                     SendHexToUart((uint8)(eprom_address >> 8));                                 // 
  69:main.c        ****                     SendHexToUart((uint8)eprom_address);                                        // 
  70:main.c        ****                     UART_UartPutString("00");                                                   // 
  71:main.c        ****                 }
  72:main.c        ****                 
  73:main.c        ****                 // Set new address.
  74:main.c        ****                 AddrLow_Write((uint8) eprom_address);
  75:main.c        ****                 AddrHigh_Write((uint8)(eprom_address >> 8) & 0x0F);
  76:main.c        ****                 CyDelayUs(500);                     // Wait a bit :-)
  77:main.c        ****                 
  78:main.c        ****                 // Read a byte from eprom.
  79:main.c        ****                 OE_Write(0);                        // OE = 0. To read data.
  80:main.c        ****                 CyDelayUs(500);                     // Wait a bit :-)
  81:main.c        ****                 rdbyte = DataInput_Read();          // Read the byte.
  82:main.c        ****                 OE_Write(1);                        // Restore OE to high.
  83:main.c        ****                 CyDelayUs(500);                     // Wait a bit :-)
  84:main.c        ****                 
  85:main.c        ****                 // Send byte to serial port.
  86:main.c        ****                 SendHexToUart(rdbyte);
  87:main.c        ****                 
ARM GAS  C:\Users\Jesus\AppData\Local\Temp\ccQz4bta.s 			page 3


  88:main.c        ****                 // Manage readed byte.
  89:main.c        ****                 rdchecksum = rdchecksum + rdbyte;   // Add it to checksum.          
  90:main.c        ****                 
  91:main.c        ****             }
  92:main.c        ****             
  93:main.c        ****             SendHexToUart( (uint8) ((~rdchecksum) + 1) );           // Send 2's complement of check
  94:main.c        ****             UART_UartPutChar(0x0D);
  95:main.c        ****             UART_UartPutChar(0x0A);
  96:main.c        ****             
  97:main.c        ****             CE_Write(1);                                            // Disable eprom chip.
  98:main.c        ****             CyDelay(1);
  99:main.c        ****             
 100:main.c        ****             // Send last line. End of file.
 101:main.c        ****             UART_UartPutString(":00000001FF");
 102:main.c        ****         }
 103:main.c        ****     }
 104:main.c        **** }
 105:main.c        **** 
 106:main.c        **** void SendHexToUart(uint8 rbyte)
 107:main.c        **** {
  28              		.loc 1 107 0
  29              		.cfi_startproc
  30              		@ args = 0, pretend = 0, frame = 0
  31              		@ frame_needed = 0, uses_anonymous_args = 0
  32              	.LVL0:
  33 0000 10B5     		push	{r4, lr}
  34              		.cfi_def_cfa_offset 8
  35              		.cfi_offset 4, -8
  36              		.cfi_offset 14, -4
  37 0002 0400     		movs	r4, r0
 108:main.c        ****     uint8 leftn, rightn;
 109:main.c        ****     
 110:main.c        ****     // Left nibble (bits 4 to 7).
 111:main.c        ****     leftn = rbyte >> 4;
  38              		.loc 1 111 0
  39 0004 0009     		lsrs	r0, r0, #4
  40              	.LVL1:
 112:main.c        ****     
 113:main.c        ****     if (leftn < 10)
  41              		.loc 1 113 0
  42 0006 0928     		cmp	r0, #9
  43 0008 03D8     		bhi	.L2
 114:main.c        ****         UART_UartPutChar ('0' + leftn);
  44              		.loc 1 114 0
  45 000a 3030     		adds	r0, r0, #48
  46              	.LVL2:
  47 000c FFF7FEFF 		bl	UART_SpiUartWriteTxData
  48              	.LVL3:
  49 0010 02E0     		b	.L3
  50              	.LVL4:
  51              	.L2:
 115:main.c        ****     else
 116:main.c        ****         UART_UartPutChar ('A' + (leftn -10));
  52              		.loc 1 116 0
  53 0012 3730     		adds	r0, r0, #55
  54              	.LVL5:
  55 0014 FFF7FEFF 		bl	UART_SpiUartWriteTxData
ARM GAS  C:\Users\Jesus\AppData\Local\Temp\ccQz4bta.s 			page 4


  56              	.LVL6:
  57              	.L3:
 117:main.c        ****         
 118:main.c        ****     // Right nibble (bits 0 to 3).
 119:main.c        ****     rightn = rbyte & 0x0F;
  58              		.loc 1 119 0
  59 0018 0F20     		movs	r0, #15
  60 001a 0440     		ands	r4, r0
  61              	.LVL7:
 120:main.c        ****         
 121:main.c        ****     if (rightn < 10)
  62              		.loc 1 121 0
  63 001c 092C     		cmp	r4, #9
  64 001e 04D8     		bhi	.L4
 122:main.c        ****         UART_UartPutChar ('0' + rightn);
  65              		.loc 1 122 0
  66 0020 2000     		movs	r0, r4
  67 0022 3030     		adds	r0, r0, #48
  68 0024 FFF7FEFF 		bl	UART_SpiUartWriteTxData
  69              	.LVL8:
  70 0028 03E0     		b	.L1
  71              	.L4:
 123:main.c        ****     else
 124:main.c        ****         UART_UartPutChar ('A' + (rightn -10));
  72              		.loc 1 124 0
  73 002a 2000     		movs	r0, r4
  74 002c 3730     		adds	r0, r0, #55
  75 002e FFF7FEFF 		bl	UART_SpiUartWriteTxData
  76              	.LVL9:
  77              	.L1:
 125:main.c        **** }
  78              		.loc 1 125 0
  79              		@ sp needed
  80              	.LVL10:
  81 0032 10BD     		pop	{r4, pc}
  82              		.cfi_endproc
  83              	.LFE35:
  84              		.size	SendHexToUart, .-SendHexToUart
  85              		.section	.text.main,"ax",%progbits
  86              		.align	2
  87              		.global	main
  88              		.code	16
  89              		.thumb_func
  90              		.type	main, %function
  91              	main:
  92              	.LFB34:
  19:main.c        ****     uint32 rxchar, rdchecksum;
  93              		.loc 1 19 0
  94              		.cfi_startproc
  95              		@ args = 0, pretend = 0, frame = 0
  96              		@ frame_needed = 0, uses_anonymous_args = 0
  97 0000 F8B5     		push	{r3, r4, r5, r6, r7, lr}
  98              		.cfi_def_cfa_offset 24
  99              		.cfi_offset 3, -24
 100              		.cfi_offset 4, -20
 101              		.cfi_offset 5, -16
 102              		.cfi_offset 6, -12
ARM GAS  C:\Users\Jesus\AppData\Local\Temp\ccQz4bta.s 			page 5


 103              		.cfi_offset 7, -8
 104              		.cfi_offset 14, -4
  25:main.c        ****     AddrLow_Write(0);            // Address = 0
 105              		.loc 1 25 0
 106 0002 0020     		movs	r0, #0
 107 0004 FFF7FEFF 		bl	AddrHigh_Write
 108              	.LVL11:
  26:main.c        ****     AddrHigh_Write(0);
 109              		.loc 1 26 0
 110 0008 0020     		movs	r0, #0
 111 000a FFF7FEFF 		bl	AddrLow_Write
 112              	.LVL12:
  27:main.c        ****  
 113              		.loc 1 27 0
 114 000e 0020     		movs	r0, #0
 115 0010 FFF7FEFF 		bl	AddrHigh_Write
 116              	.LVL13:
  29:main.c        ****     OE_Write(1);                    // OE = 1.
 117              		.loc 1 29 0
 118 0014 0120     		movs	r0, #1
 119 0016 FFF7FEFF 		bl	CE_Write
 120              	.LVL14:
  30:main.c        ****     
 121              		.loc 1 30 0
 122 001a 0120     		movs	r0, #1
 123 001c FFF7FEFF 		bl	OE_Write
 124              	.LVL15:
  32:main.c        **** 
 125              		.loc 1 32 0
 126 0020 FFF7FEFF 		bl	UART_Start
 127              	.LVL16:
  34:main.c        ****     UART_UartPutChar(0x0D);
 128              		.loc 1 34 0
 129 0024 3648     		ldr	r0, .L13
 130 0026 FFF7FEFF 		bl	UART_UartPutString
 131              	.LVL17:
  35:main.c        ****     UART_UartPutChar(0x0A);
 132              		.loc 1 35 0
 133 002a 0D20     		movs	r0, #13
 134 002c FFF7FEFF 		bl	UART_SpiUartWriteTxData
 135              	.LVL18:
  36:main.c        **** 
 136              		.loc 1 36 0
 137 0030 0A20     		movs	r0, #10
 138 0032 FFF7FEFF 		bl	UART_SpiUartWriteTxData
 139              	.LVL19:
 140              	.L7:
  40:main.c        ****                 
 141              		.loc 1 40 0
 142 0036 FFF7FEFF 		bl	UART_UartGetChar
 143              	.LVL20:
  43:main.c        ****         {
 144              		.loc 1 43 0
 145 003a 5228     		cmp	r0, #82
 146 003c FBD1     		bne	.L7
 147              	.LVL21:
  50:main.c        ****             CyDelay(1);
ARM GAS  C:\Users\Jesus\AppData\Local\Temp\ccQz4bta.s 			page 6


 148              		.loc 1 50 0
 149 003e 0020     		movs	r0, #0
 150              	.LVL22:
 151 0040 FFF7FEFF 		bl	CE_Write
 152              	.LVL23:
  51:main.c        ****             
 153              		.loc 1 51 0
 154 0044 0120     		movs	r0, #1
 155 0046 FFF7FEFF 		bl	CyDelay
 156              	.LVL24:
  53:main.c        ****             {
 157              		.loc 1 53 0
 158 004a 0024     		movs	r4, #0
 159 004c 40E0     		b	.L8
 160              	.LVL25:
 161              	.L11:
  56:main.c        ****                 {
 162              		.loc 1 56 0
 163 004e 2307     		lsls	r3, r4, #28
 164 0050 1CD1     		bne	.L9
  58:main.c        ****                     {
 165              		.loc 1 58 0
 166 0052 002C     		cmp	r4, #0
 167 0054 09D0     		beq	.L10
  60:main.c        ****                         UART_UartPutChar(0x0D);
 168              		.loc 1 60 0
 169 0056 7842     		rsbs	r0, r7, #0
 170 0058 C0B2     		uxtb	r0, r0
 171 005a FFF7FEFF 		bl	SendHexToUart
 172              	.LVL26:
  61:main.c        ****                         UART_UartPutChar(0x0A);
 173              		.loc 1 61 0
 174 005e 0D20     		movs	r0, #13
 175 0060 FFF7FEFF 		bl	UART_SpiUartWriteTxData
 176              	.LVL27:
  62:main.c        ****                     }
 177              		.loc 1 62 0
 178 0064 0A20     		movs	r0, #10
 179 0066 FFF7FEFF 		bl	UART_SpiUartWriteTxData
 180              	.LVL28:
 181              	.L10:
  65:main.c        ****                     
 182              		.loc 1 65 0
 183 006a E5B2     		uxtb	r5, r4
 184 006c 2F00     		movs	r7, r5
 185              	.LVL29:
 186 006e 1037     		adds	r7, r7, #16
 187 0070 260A     		lsrs	r6, r4, #8
 188 0072 F719     		adds	r7, r6, r7
 189              	.LVL30:
  67:main.c        ****                     SendHexToUart((uint8)(eprom_address >> 8));                                 // 
 190              		.loc 1 67 0
 191 0074 2348     		ldr	r0, .L13+4
 192 0076 FFF7FEFF 		bl	UART_UartPutString
 193              	.LVL31:
  68:main.c        ****                     SendHexToUart((uint8)eprom_address);                                        // 
 194              		.loc 1 68 0
ARM GAS  C:\Users\Jesus\AppData\Local\Temp\ccQz4bta.s 			page 7


 195 007a 3000     		movs	r0, r6
 196 007c FFF7FEFF 		bl	SendHexToUart
 197              	.LVL32:
  69:main.c        ****                     UART_UartPutString("00");                                                   // 
 198              		.loc 1 69 0
 199 0080 2800     		movs	r0, r5
 200 0082 FFF7FEFF 		bl	SendHexToUart
 201              	.LVL33:
  70:main.c        ****                 }
 202              		.loc 1 70 0
 203 0086 2048     		ldr	r0, .L13+8
 204 0088 FFF7FEFF 		bl	UART_UartPutString
 205              	.LVL34:
 206              	.L9:
  74:main.c        ****                 AddrHigh_Write((uint8)(eprom_address >> 8) & 0x0F);
 207              		.loc 1 74 0 discriminator 2
 208 008c E0B2     		uxtb	r0, r4
 209 008e FFF7FEFF 		bl	AddrLow_Write
 210              	.LVL35:
  75:main.c        ****                 CyDelayUs(500);                     // Wait a bit :-)
 211              		.loc 1 75 0 discriminator 2
 212 0092 230A     		lsrs	r3, r4, #8
 213 0094 0F20     		movs	r0, #15
 214 0096 1840     		ands	r0, r3
 215 0098 FFF7FEFF 		bl	AddrHigh_Write
 216              	.LVL36:
  76:main.c        ****                 
 217              		.loc 1 76 0 discriminator 2
 218 009c FA25     		movs	r5, #250
 219 009e 6D00     		lsls	r5, r5, #1
 220 00a0 2800     		movs	r0, r5
 221 00a2 FFF7FEFF 		bl	CyDelayUs
 222              	.LVL37:
  79:main.c        ****                 CyDelayUs(500);                     // Wait a bit :-)
 223              		.loc 1 79 0 discriminator 2
 224 00a6 0020     		movs	r0, #0
 225 00a8 FFF7FEFF 		bl	OE_Write
 226              	.LVL38:
  80:main.c        ****                 rdbyte = DataInput_Read();          // Read the byte.
 227              		.loc 1 80 0 discriminator 2
 228 00ac 2800     		movs	r0, r5
 229 00ae FFF7FEFF 		bl	CyDelayUs
 230              	.LVL39:
  81:main.c        ****                 OE_Write(1);                        // Restore OE to high.
 231              		.loc 1 81 0 discriminator 2
 232 00b2 FFF7FEFF 		bl	DataInput_Read
 233              	.LVL40:
 234 00b6 0600     		movs	r6, r0
 235              	.LVL41:
  82:main.c        ****                 CyDelayUs(500);                     // Wait a bit :-)
 236              		.loc 1 82 0 discriminator 2
 237 00b8 0120     		movs	r0, #1
 238 00ba FFF7FEFF 		bl	OE_Write
 239              	.LVL42:
  83:main.c        ****                 
 240              		.loc 1 83 0 discriminator 2
 241 00be 2800     		movs	r0, r5
ARM GAS  C:\Users\Jesus\AppData\Local\Temp\ccQz4bta.s 			page 8


 242 00c0 FFF7FEFF 		bl	CyDelayUs
 243              	.LVL43:
  86:main.c        ****                 
 244              		.loc 1 86 0 discriminator 2
 245 00c4 3000     		movs	r0, r6
 246 00c6 FFF7FEFF 		bl	SendHexToUart
 247              	.LVL44:
  89:main.c        ****                 
 248              		.loc 1 89 0 discriminator 2
 249 00ca BF19     		adds	r7, r7, r6
 250              	.LVL45:
  53:main.c        ****             {
 251              		.loc 1 53 0 discriminator 2
 252 00cc 0134     		adds	r4, r4, #1
 253              	.LVL46:
 254 00ce A4B2     		uxth	r4, r4
 255              	.LVL47:
 256              	.L8:
  53:main.c        ****             {
 257              		.loc 1 53 0 is_stmt 0 discriminator 1
 258 00d0 0E4B     		ldr	r3, .L13+12
 259 00d2 9C42     		cmp	r4, r3
 260 00d4 BBD9     		bls	.L11
  93:main.c        ****             UART_UartPutChar(0x0D);
 261              		.loc 1 93 0 is_stmt 1
 262 00d6 7842     		rsbs	r0, r7, #0
 263 00d8 C0B2     		uxtb	r0, r0
 264 00da FFF7FEFF 		bl	SendHexToUart
 265              	.LVL48:
  94:main.c        ****             UART_UartPutChar(0x0A);
 266              		.loc 1 94 0
 267 00de 0D20     		movs	r0, #13
 268 00e0 FFF7FEFF 		bl	UART_SpiUartWriteTxData
 269              	.LVL49:
  95:main.c        ****             
 270              		.loc 1 95 0
 271 00e4 0A20     		movs	r0, #10
 272 00e6 FFF7FEFF 		bl	UART_SpiUartWriteTxData
 273              	.LVL50:
  97:main.c        ****             CyDelay(1);
 274              		.loc 1 97 0
 275 00ea 0120     		movs	r0, #1
 276 00ec FFF7FEFF 		bl	CE_Write
 277              	.LVL51:
  98:main.c        ****             
 278              		.loc 1 98 0
 279 00f0 0120     		movs	r0, #1
 280 00f2 FFF7FEFF 		bl	CyDelay
 281              	.LVL52:
 101:main.c        ****         }
 282              		.loc 1 101 0
 283 00f6 0648     		ldr	r0, .L13+16
 284 00f8 FFF7FEFF 		bl	UART_UartPutString
 285              	.LVL53:
 286 00fc 9BE7     		b	.L7
 287              	.L14:
 288 00fe C046     		.align	2
ARM GAS  C:\Users\Jesus\AppData\Local\Temp\ccQz4bta.s 			page 9


 289              	.L13:
 290 0100 00000000 		.word	.LC0
 291 0104 28000000 		.word	.LC2
 292 0108 2C000000 		.word	.LC4
 293 010c FF0F0000 		.word	4095
 294 0110 30000000 		.word	.LC6
 295              		.cfi_endproc
 296              	.LFE34:
 297              		.size	main, .-main
 298              		.section	.rodata.str1.4,"aMS",%progbits,1
 299              		.align	2
 300              	.LC0:
 301 0000 3E3E3E3E 		.ascii	">>>>> Press 'R' to start eprom read.\000"
 301      3E205072 
 301      65737320 
 301      27522720 
 301      746F2073 
 302 0025 000000   		.space	3
 303              	.LC2:
 304 0028 3A313000 		.ascii	":10\000"
 305              	.LC4:
 306 002c 303000   		.ascii	"00\000"
 307 002f 00       		.space	1
 308              	.LC6:
 309 0030 3A303030 		.ascii	":00000001FF\000"
 309      30303030 
 309      31464600 
 310              		.text
 311              	.Letext0:
 312              		.file 2 "Generated_Source\\PSoC4/cytypes.h"
 313              		.file 3 "Generated_Source\\PSoC4/UART_SPI_UART.h"
 314              		.file 4 "Generated_Source\\PSoC4/AddrHigh.h"
 315              		.file 5 "Generated_Source\\PSoC4/AddrLow.h"
 316              		.file 6 "Generated_Source\\PSoC4/CE.h"
 317              		.file 7 "Generated_Source\\PSoC4/OE.h"
 318              		.file 8 "Generated_Source\\PSoC4/UART.h"
 319              		.file 9 "Generated_Source\\PSoC4/CyLib.h"
 320              		.file 10 "Generated_Source\\PSoC4/DataInput.h"