0000  04 9B       JMP	009BH
0002  00          NOP
0003  E5          SEL	MB0
0004  04 0B       JMP	000BH
0006  04 9B       JMP	009BH
0008  00          NOP
0009  04 9B       JMP	009BH
000B  99 F7       ANL	P1,#F7H
000D  8A F0       ORL	P2,#F0H
000F  0A          IN	A,P2
0010  53 F0       ANL	A,#F0H
0012  47          SWAP	A
0013  A8          MOV	R0,A
0014  B9 08       MOV	R1,#08H
0016  23 1F       MOV	A,#1FH
0018  A1          MOV	@R1,A
0019  19          INC	R1
001A  27          CLR	A
001B  A1          MOV	@R1,A
001C  17          INC	A
001D  D7          MOV	PSW,A
001E  93          RETR
001F  E5          SEL	MB0
0020  F8          MOV	A,R0
0021  C6 9B       JZ	009BH
0023  23 0F       MOV	A,#0FH
0025  D8          XRL	A,R0
0026  C6 98       JZ	0098H
0028  23 0E       MOV	A,#0EH
002A  D8          XRL	A,R0
002B  C6 96       JZ	0096H
002D  23 0D       MOV	A,#0DH
002F  D8          XRL	A,R0
0030  C6 92       JZ	0092H
0032  23 0C       MOV	A,#0CH
0034  D8          XRL	A,R0
0035  C6 8D       JZ	008DH
0037  23 01       MOV	A,#01H
0039  D8          XRL	A,R0
003A  C6 70       JZ	0070H
003C  23 02       MOV	A,#02H
003E  D8          XRL	A,R0
003F  C6 72       JZ	0072H
0041  23 03       MOV	A,#03H
0043  D8          XRL	A,R0
0044  C6 75       JZ	0075H
0046  23 04       MOV	A,#04H
0048  D8          XRL	A,R0
0049  C6 78       JZ	0078H
004B  23 05       MOV	A,#05H
004D  D8          XRL	A,R0
004E  C6 7A       JZ	007AH
0050  23 06       MOV	A,#06H
0052  D8          XRL	A,R0
0053  C6 7D       JZ	007DH
0055  23 07       MOV	A,#07H
0057  D8          XRL	A,R0
0058  C6 81       JZ	0081H
005A  23 08       MOV	A,#08H
005C  D8          XRL	A,R0
005D  C6 83       JZ	0083H
005F  23 09       MOV	A,#09H
0061  D8          XRL	A,R0
0062  C6 85       JZ	0085H
0064  23 0A       MOV	A,#0AH
0066  D8          XRL	A,R0
0067  C6 87       JZ	0087H
0069  23 0B       MOV	A,#0BH
006B  D8          XRL	A,R0
006C  C6 89       JZ	0089H
006E  04 1F       JMP	001FH
0070  24 AB       JMP	01ABH
0072  F5          SEL	MB1
0073  A4 00       JMP	0500H
0075  F5          SEL	MB1
0076  A4 3B       JMP	053BH
0078  24 7A       JMP	017AH
007A  F5          SEL	MB1
007B  C4 61       JMP	0661H
007D  14 F2       CALL	00F2H
007F  04 9B       JMP	009BH
0081  24 4A       JMP	014AH
0083  24 B6       JMP	01B6H
0085  64 5C       JMP	035CH
0087  64 A0       JMP	03A0H
0089  14 E8       CALL	00E8H
008B  04 9B       JMP	009BH
008D  34 60       CALL	0160H
008F  E5          SEL	MB0
0090  04 9B       JMP	009BH
0092  34 09       CALL	0109H
0094  04 9B       JMP	009BH
0096  64 A4       JMP	03A4H
0098  F5          SEL	MB1
0099  A4 4D       JMP	054DH
009B  05          EN	I
009C  35          DIS	TCNTI
009D  75          ENT0	CLK
009E  99 03       ANL	P1,#03H
00A0  14 C2       CALL	00C2H
00A2  B9 FF       MOV	R1,#FFH
00A4  54 EF       CALL	02EFH
00A6  14 BC       CALL	00BCH
00A8  54 F3       CALL	02F3H
00AA  14 BC       CALL	00BCH
00AC  89 0F       ORL	P1,#0FH
00AE  8A FF       ORL	P2,#FFH
00B0  BC B4       MOV	R4,#B4H
00B2  BB FA       MOV	R3,#FAH
00B4  BE 01       MOV	R6,#01H
00B6  74 22       CALL	0322H
00B8  EC B2       DJNZ	R4,00B2H
00BA  24 C8       JMP	01C8H
00BC  B8 07       MOV	R0,#07H
00BE  23 FF       MOV	A,#FFH
00C0  90          MOVX	@R0,A
00C1  83          RET
00C2  23 FF       MOV	A,#FFH
00C4  07          DEC	A
00C5  96 C4       JNZ	00C4H
00C7  83          RET
00C8  B8 08       MOV	R0,#08H
00CA  90          MOVX	@R0,A
00CB  18          INC	R0
00CC  90          MOVX	@R0,A
00CD  18          INC	R0
00CE  90          MOVX	@R0,A
00CF  18          INC	R0
00D0  90          MOVX	@R0,A
00D1  B9 FF       MOV	R1,#FFH
00D3  83          RET
00D4  54 EF       CALL	02EFH
00D6  23 FF       MOV	A,#FFH
00D8  D5          SEL	RB1
00D9  A9          MOV	R1,A
00DA  C5          SEL	RB0
00DB  14 C8       CALL	00C8H
00DD  18          INC	R0
00DE  83          RET
00DF  54 F3       CALL	02F3H
00E1  23 FF       MOV	A,#FFH
00E3  D5          SEL	RB1
00E4  AA          MOV	R2,A
00E5  C5          SEL	RB0
00E6  04 DB       JMP	00DBH
00E8  14 D4       CALL	00D4H
00EA  23 08       MOV	A,#08H
00EC  90          MOVX	@R0,A
00ED  BF ED       MOV	R7,#EDH
00EF  D4 00       CALL	0600H
00F1  83          RET
00F2  14 D4       CALL	00D4H
00F4  23 08       MOV	A,#08H
00F6  90          MOVX	@R0,A
00F7  14 DF       CALL	00DFH
00F9  23 09       MOV	A,#09H
00FB  90          MOVX	@R0,A
00FC  BF 2F       MOV	R7,#2FH
00FE  94 00       CALL	0400H
0100  BF C0       MOV	R7,#C0H
0102  94 00       CALL	0400H
0104  BF 2F       MOV	R7,#2FH
0106  B4 00       CALL	0500H
0108  83          RET
0109  14 DF       CALL	00DFH
010B  23 07       MOV	A,#07H
010D  90          MOVX	@R0,A
010E  14 D4       CALL	00D4H
0110  23 01       MOV	A,#01H
0112  90          MOVX	@R0,A
0113  BF 3D       MOV	R7,#3DH
0115  B4 00       CALL	0500H
0117  54 EF       CALL	02EFH
0119  B8 0C       MOV	R0,#0CH
011B  23 05       MOV	A,#05H
011D  90          MOVX	@R0,A
011E  BF CD       MOV	R7,#CDH
0120  B4 00       CALL	0500H
0122  54 EF       CALL	02EFH
0124  B8 0C       MOV	R0,#0CH
0126  23 01       MOV	A,#01H
0128  90          MOVX	@R0,A
0129  BF 2F       MOV	R7,#2FH
012B  D4 00       CALL	0600H
012D  83          RET
012E  54 EF       CALL	02EFH
0130  B8 0C       MOV	R0,#0CH
0132  23 05       MOV	A,#05H
0134  90          MOVX	@R0,A
0135  BF B9       MOV	R7,#B9H
0137  D4 00       CALL	0600H
0139  54 EF       CALL	02EFH
013B  B8 0C       MOV	R0,#0CH
013D  23 01       MOV	A,#01H
013F  90          MOVX	@R0,A
0140  BF 2F       MOV	R7,#2FH
0142  F4 00       CALL	0700H
0144  BF 31       MOV	R7,#31H
0146  F5          SEL	MB1
0147  14 00       CALL	0000H
0149  83          RET
014A  14 D4       CALL	00D4H
014C  23 05       MOV	A,#05H
014E  90          MOVX	@R0,A
014F  14 DF       CALL	00DFH
0151  23 08       MOV	A,#08H
0153  90          MOVX	@R0,A
0154  BF 31       MOV	R7,#31H
0156  F5          SEL	MB1
0157  34 00       CALL	0100H
0159  BF 00       MOV	R7,#00H
015B  54 45       CALL	0245H
015D  E5          SEL	MB0
015E  04 9B       JMP	009BH
0160  14 D4       CALL	00D4H
0162  23 08       MOV	A,#08H
0164  90          MOVX	@R0,A
0165  14 DF       CALL	00DFH
0167  23 06       MOV	A,#06H
0169  90          MOVX	@R0,A
016A  BF 76       MOV	R7,#76H
016C  F5          SEL	MB1
016D  54 45       CALL	0245H
016F  BF 76       MOV	R7,#76H
0171  54 45       CALL	0245H
0173  83          RET
0174  F5          SEL	MB1
0175  BF 31       MOV	R7,#31H
0177  94 00       CALL	0400H
0179  83          RET
017A  14 D4       CALL	00D4H
017C  23 08       MOV	A,#08H
017E  90          MOVX	@R0,A
017F  BF 31       MOV	R7,#31H
0181  F5          SEL	MB1
0182  74 00       CALL	0300H
0184  BF 31       MOV	R7,#31H
0186  74 00       CALL	0300H
0188  BF 48       MOV	R7,#48H
018A  74 00       CALL	0300H
018C  BF 48       MOV	R7,#48H
018E  74 00       CALL	0300H
0190  BF 5D       MOV	R7,#5DH
0192  74 00       CALL	0300H
0194  BF 5D       MOV	R7,#5DH
0196  74 00       CALL	0300H
0198  BF 76       MOV	R7,#76H
019A  74 00       CALL	0300H
019C  BF 76       MOV	R7,#76H
019E  74 00       CALL	0300H
01A0  BF 8F       MOV	R7,#8FH
01A2  74 00       CALL	0300H
01A4  BF 8F       MOV	R7,#8FH
01A6  74 00       CALL	0300H
01A8  E5          SEL	MB0
01A9  24 7A       JMP	017AH
01AB  14 D4       CALL	00D4H
01AD  23 08       MOV	A,#08H
01AF  90          MOVX	@R0,A
01B0  BF 33       MOV	R7,#33H
01B2  74 00       CALL	0300H
01B4  04 9B       JMP	009BH
01B6  14 D4       CALL	00D4H
01B8  23 04       MOV	A,#04H
01BA  90          MOVX	@R0,A
01BB  14 DF       CALL	00DFH
01BD  23 08       MOV	A,#08H
01BF  90          MOVX	@R0,A
01C0  BF 31       MOV	R7,#31H
01C2  F5          SEL	MB1
01C3  F4 00       CALL	0700H
01C5  E5          SEL	MB0
01C6  04 9B       JMP	009BH
01C8  D5          SEL	RB1
01C9  FE          MOV	A,R6
01CA  37          CPL	A
01CB  AE          MOV	R6,A
01CC  C5          SEL	RB0
01CD  12 D1       JB0	01D1H
01CF  24 DA       JMP	01DAH
01D1  14 F2       CALL	00F2H
01D3  34 09       CALL	0109H
01D5  34 2E       CALL	012EH
01D7  E5          SEL	MB0
01D8  04 9B       JMP	009BH
01DA  34 60       CALL	0160H
01DC  E5          SEL	MB0
01DD  34 74       CALL	0174H
01DF  E5          SEL	MB0
01E0  04 9B       JMP	009BH
01E2  FF          MOV	A,R7
01E3  FF          MOV	A,R7
01E4  FF          MOV	A,R7
01E5  FF          MOV	A,R7
01E6  FF          MOV	A,R7
01E7  FF          MOV	A,R7
01E8  FF          MOV	A,R7
01E9  FF          MOV	A,R7
01EA  FF          MOV	A,R7
01EB  FF          MOV	A,R7
01EC  FF          MOV	A,R7
01ED  FF          MOV	A,R7
01EE  FF          MOV	A,R7
01EF  FF          MOV	A,R7
01F0  FF          MOV	A,R7
01F1  FF          MOV	A,R7
01F2  FF          MOV	A,R7
01F3  FF          MOV	A,R7
01F4  FF          MOV	A,R7
01F5  FF          MOV	A,R7
01F6  FF          MOV	A,R7
01F7  FF          MOV	A,R7
01F8  FF          MOV	A,R7
01F9  FF          MOV	A,R7
01FA  FF          MOV	A,R7
01FB  FF          MOV	A,R7
01FC  FF          MOV	A,R7
01FD  FF          MOV	A,R7
01FE  FF          MOV	A,R7
01FF  FF          MOV	A,R7
0200  B3          JMPP	@A
0201  2E          XCH	A,R6
0202  32 36       JB1	0236H
0204  3A          OUTL	P2,A
0205  3E          MOVD	P6,A
0206  42          MOV	A,T
0207  46 4A       JNT1	024AH
0209  4E          ORL	A,R6
020A  52 56       JB2	0256H
020C  5A          ANL	A,R2
020D  5E          ANL	A,R6
020E  62          MOV	T,A
020F  66          DB	66H
0210  6A          ADD	A,R2
0211  6E          ADD	A,R6
0212  72 76       JB3	0276H
0214  7A          ADDC	A,R2
0215  7E          ADDC	A,R6
0216  82          DB	82H
0217  86 8A       JNI	028AH
0219  8E          ANLD	A,P6
021A  92 96       JB4	0296H
021C  9A 9E       ANL	P2,#9EH
021E  A2          DB	A2H
021F  A6          DB	A6H
0220  AA          MOV	R2,A
0221  AE          MOV	R6,A
0222  B2 B6       JB5	02B6H
0224  C8          DEC	R0
0225  CE          DEC	R6
0226  D3 D8       XRL	A,#D8H
0228  DD          XRL	A,R5
0229  E2          DB	E2H
022A  E5          SEL	MB0
022B  EA EF       DJNZ	R2,02EFH
022D  F3          DB	F3H
022E  BA 2B       MOV	R2,#2BH
0230  44 C4       JMP	02C4H
0232  BA 8F       MOV	R2,#8FH
0234  44 C4       JMP	02C4H
0236  BA FE       MOV	R2,#FEH
0238  44 C0       JMP	02C0H
023A  BA AA       MOV	R2,#AAH
023C  44 C0       JMP	02C0H
023E  BA 60       MOV	R2,#60H
0240  44 C0       JMP	02C0H
0242  BA 1D       MOV	R2,#1DH
0244  44 C0       JMP	02C0H
0246  BA FF       MOV	R2,#FFH
0248  44 BC       JMP	02BCH
024A  BA E3       MOV	R2,#E3H
024C  44 BC       JMP	02BCH
024E  BA C7       MOV	R2,#C7H
0250  44 BC       JMP	02BCH
0252  BA AE       MOV	R2,#AEH
0254  44 BC       JMP	02BCH
0256  BA 95       MOV	R2,#95H
0258  44 BC       JMP	02BCH
025A  BA 7F       MOV	R2,#7FH
025C  44 BC       JMP	02BCH
025E  BA 6A       MOV	R2,#6AH
0260  44 BC       JMP	02BCH
0262  BA 55       MOV	R2,#55H
0264  44 BC       JMP	02BCH
0266  BA 42       MOV	R2,#42H
0268  44 BC       JMP	02BCH
026A  BA 30       MOV	R2,#30H
026C  44 BC       JMP	02BCH
026E  BA 1F       MOV	R2,#1FH
0270  44 BC       JMP	02BCH
0272  BA 0E       MOV	R2,#0EH
0274  44 BC       JMP	02BCH
0276  BA FF       MOV	R2,#FFH
0278  44 B8       JMP	02B8H
027A  BA F1       MOV	R2,#F1H
027C  44 B8       JMP	02B8H
027E  BA E3       MOV	R2,#E3H
0280  44 B8       JMP	02B8H
0282  BA D6       MOV	R2,#D6H
0284  44 B8       JMP	02B8H
0286  BA CA       MOV	R2,#CAH
0288  44 B8       JMP	02B8H
028A  BA BF       MOV	R2,#BFH
028C  44 B8       JMP	02B8H
028E  BA B4       MOV	R2,#B4H
0290  44 B8       JMP	02B8H
0292  BA AA       MOV	R2,#AAH
0294  44 B8       JMP	02B8H
0296  BA A1       MOV	R2,#A1H
0298  44 B8       JMP	02B8H
029A  BA 98       MOV	R2,#98H
029C  44 B8       JMP	02B8H
029E  BA 8F       MOV	R2,#8FH
02A0  44 B8       JMP	02B8H
02A2  BA 87       MOV	R2,#87H
02A4  44 B8       JMP	02B8H
02A6  BA 7F       MOV	R2,#7FH
02A8  44 B8       JMP	02B8H
02AA  BA 78       MOV	R2,#78H
02AC  44 B8       JMP	02B8H
02AE  BA 71       MOV	R2,#71H
02B0  44 B8       JMP	02B8H
02B2  BA 65       MOV	R2,#65H
02B4  44 B8       JMP	02B8H
02B6  BA 5F       MOV	R2,#5FH
02B8  BC 80       MOV	R4,#80H
02BA  44 F7       JMP	02F7H
02BC  BC 01       MOV	R4,#01H
02BE  44 F7       JMP	02F7H
02C0  BC 02       MOV	R4,#02H
02C2  44 F7       JMP	02F7H
02C4  BC 03       MOV	R4,#03H
02C6  44 F7       JMP	02F7H
02C8  F9          MOV	A,R1
02C9  53 FE       ANL	A,#FEH
02CB  A9          MOV	R1,A
02CC  90          MOVX	@R0,A
02CD  83          RET
02CE  F9          MOV	A,R1
02CF  53 FD       ANL	A,#FDH
02D1  44 CB       JMP	02CBH
02D3  F9          MOV	A,R1
02D4  53 FB       ANL	A,#FBH
02D6  44 CB       JMP	02CBH
02D8  F9          MOV	A,R1
02D9  53 EF       ANL	A,#EFH
02DB  44 CB       JMP	02CBH
02DD  F9          MOV	A,R1
02DE  43 10       ORL	A,#10H
02E0  44 CB       JMP	02CBH
02E2  27          CLR	A
02E3  90          MOVX	@R0,A
02E4  83          RET
02E5  D5          SEL	RB1
02E6  F9          MOV	A,R1
02E7  C5          SEL	RB0
02E8  44 ED       JMP	02EDH
02EA  D5          SEL	RB1
02EB  FA          MOV	A,R2
02EC  C5          SEL	RB0
02ED  90          MOVX	@R0,A
02EE  83          RET
02EF  23 06       MOV	A,#06H
02F1  39          OUTL	P1,A
02F2  83          RET
02F3  23 05       MOV	A,#05H
02F5  39          OUTL	P1,A
02F6  83          RET
02F7  FC          MOV	A,R4
02F8  C6 FC       JZ	02FCH
02FA  90          MOVX	@R0,A
02FB  C8          DEC	R0
02FC  FA          MOV	A,R2
02FD  90          MOVX	@R0,A
02FE  83          RET
02FF  FF          MOV	A,R7
0300  FF          MOV	A,R7
0301  A3          MOVP	A,@A
0302  AE          MOV	R6,A
0303  1F          INC	R7
0304  FF          MOV	A,R7
0305  A3          MOVP	A,@A
0306  AD          MOV	R5,A
0307  C6 0F       JZ	030FH
0309  47          SWAP	A
030A  53 0F       ANL	A,#0FH
030C  A8          MOV	R0,A
030D  BC 00       MOV	R4,#00H
030F  1F          INC	R7
0310  FF          MOV	A,R7
0311  A3          MOVP	A,@A
0312  54 00       CALL	0200H
0314  FD          MOV	A,R5
0315  43 08       ORL	A,#08H
0317  74 2F       CALL	032FH
0319  FD          MOV	A,R5
031A  53 08       ANL	A,#08H
031C  C6 2C       JZ	032CH
031E  1F          INC	R7
031F  FF          MOV	A,R7
0320  A3          MOVP	A,@A
0321  AB          MOV	R3,A
0322  23 00       MOV	A,#00H
0324  62          MOV	T,A
0325  55          STRT	T
0326  16 2A       JTF	032AH
0328  64 26       JMP	0326H
032A  EB 22       DJNZ	R3,0322H
032C  EE 03       DJNZ	R6,0303H
032E  83          RET
032F  B8 0D       MOV	R0,#0DH
0331  90          MOVX	@R0,A
0332  83          RET
0333  0A          IN	A,P2
0334  00          NOP
0335  2C          XCH	A,R4
0336  71          ADDC	A,@R1
0337  24 71       JMP	0171H
0339  25          EN	TCNTI
033A  71          ADDC	A,@R1
033B  26 19       JNT0	0319H
033D  07          DEC	A
033E  04 39       JMP	0039H
0340  0B          DB	0BH
0341  04 59       JMP	0059H
0343  0E          MOVD	A,P6
0344  04 11       JMP	0011H
0346  0B          DB	0BH
0347  31          XCHD	A,@R1
0348  0E          MOVD	A,P6
0349  59          ANL	A,R1
034A  13 08       ADDC	A,#08H
034C  07          DEC	A
034D  00          NOP
034E  2D          XCH	A,R5
034F  71          ADDC	A,@R1
0350  24 71       JMP	0171H
0352  25          EN	TCNTI
0353  71          ADDC	A,@R1
0354  26 11       JNT0	0311H
0356  15          DIS	I
0357  31          XCHD	A,@R1
0358  0D          MOVD	A,P5
0359  59          ANL	A,R1
035A  10          INC	@R0
035B  04 99       JMP	0099H
035D  00          NOP
035E  BB 03       MOV	R3,#03H
0360  B9 03       MOV	R1,#03H
0362  23 07       MOV	A,#07H
0364  39          OUTL	P1,A
0365  03 20       ADD	A,#20H
0367  AA          MOV	R2,A
0368  D3 77       XRL	A,#77H
036A  C6 73       JZ	0373H
036C  FA          MOV	A,R2
036D  39          OUTL	P1,A
036E  03 F0       ADD	A,#F0H
0370  39          OUTL	P1,A
0371  64 65       JMP	0365H
0373  23 77       MOV	A,#77H
0375  39          OUTL	P1,A
0376  03 E0       ADD	A,#E0H
0378  AA          MOV	R2,A
0379  D3 07       XRL	A,#07H
037B  C6 84       JZ	0384H
037D  FA          MOV	A,R2
037E  39          OUTL	P1,A
037F  03 10       ADD	A,#10H
0381  39          OUTL	P1,A
0382  64 76       JMP	0376H
0384  E9 62       DJNZ	R1,0362H
0386  BE 01       MOV	R6,#01H
0388  23 77       MOV	A,#77H
038A  39          OUTL	P1,A
038B  CE          DEC	R6
038C  FE          MOV	A,R6
038D  96 73       JNZ	0373H
038F  CB          DEC	R3
0390  FB          MOV	A,R3
0391  96 60       JNZ	0360H
0393  23 77       MOV	A,#77H
0395  39          OUTL	P1,A
0396  BE FF       MOV	R6,#FFH
0398  BF 3A       MOV	R7,#3AH
039A  EF 9A       DJNZ	R7,039AH
039C  EE 98       DJNZ	R6,0398H
039E  64 5E       JMP	035EH
03A0  74 A8       CALL	03A8H
03A2  04 9B       JMP	009BH
03A4  74 A8       CALL	03A8H
03A6  64 5C       JMP	035CH
03A8  BB 02       MOV	R3,#02H
03AA  BD 02       MOV	R5,#02H
03AC  BF 02       MOV	R7,#02H
03AE  BE 1E       MOV	R6,#1EH
03B0  B9 07       MOV	R1,#07H
03B2  BA 87       MOV	R2,#87H
03B4  B8 47       MOV	R0,#47H
03B6  F8          MOV	A,R0
03B7  39          OUTL	P1,A
03B8  64 BE       JMP	03BEH
03BA  F9          MOV	A,R1
03BB  03 10       ADD	A,#10H
03BD  A9          MOV	R1,A
03BE  F8          MOV	A,R0
03BF  03 F0       ADD	A,#F0H
03C1  39          OUTL	P1,A
03C2  A8          MOV	R0,A
03C3  D9          XRL	A,R1
03C4  C6 CA       JZ	03CAH
03C6  EE BE       DJNZ	R6,03BEH
03C8  64 D8       JMP	03D8H
03CA  FA          MOV	A,R2
03CB  03 F0       ADD	A,#F0H
03CD  AA          MOV	R2,A
03CE  F8          MOV	A,R0
03CF  03 10       ADD	A,#10H
03D1  39          OUTL	P1,A
03D2  A8          MOV	R0,A
03D3  DA          XRL	A,R2
03D4  C6 BA       JZ	03BAH
03D6  EE CE       DJNZ	R6,03CEH
03D8  EF AE       DJNZ	R7,03AEH
03DA  23 77       MOV	A,#77H
03DC  39          OUTL	P1,A
03DD  BE FF       MOV	R6,#FFH
03DF  BF 08       MOV	R7,#08H
03E1  EF E1       DJNZ	R7,03E1H
03E3  EE DF       DJNZ	R6,03DFH
03E5  FD          MOV	A,R5
03E6  D3 00       XRL	A,#00H
03E8  C6 EC       JZ	03ECH
03EA  ED AC       DJNZ	R5,03ACH
03EC  BE FF       MOV	R6,#FFH
03EE  BF 30       MOV	R7,#30H
03F0  EF F0       DJNZ	R7,03F0H
03F2  EE EE       DJNZ	R6,03EEH
03F4  EB AC       DJNZ	R3,03ACH
03F6  83          RET
03F7  FF          MOV	A,R7
03F8  FF          MOV	A,R7
03F9  FF          MOV	A,R7
03FA  FF          MOV	A,R7
03FB  FF          MOV	A,R7
03FC  FF          MOV	A,R7
03FD  FF          MOV	A,R7
03FE  FF          MOV	A,R7
03FF  FF          MOV	A,R7
0400  FF          MOV	A,R7
0401  A3          MOVP	A,@A
0402  AE          MOV	R6,A
0403  1F          INC	R7
0404  FF          MOV	A,R7
0405  A3          MOVP	A,@A
0406  AD          MOV	R5,A
0407  C6 0F       JZ	040FH
0409  47          SWAP	A
040A  53 0F       ANL	A,#0FH
040C  A8          MOV	R0,A
040D  BC 00       MOV	R4,#00H
040F  1F          INC	R7
0410  FF          MOV	A,R7
0411  A3          MOVP	A,@A
0412  54 00       CALL	0200H
0414  FD          MOV	A,R5
0415  43 08       ORL	A,#08H
0417  74 2F       CALL	032FH
0419  FD          MOV	A,R5
041A  53 08       ANL	A,#08H
041C  C6 2C       JZ	042CH
041E  1F          INC	R7
041F  FF          MOV	A,R7
0420  A3          MOVP	A,@A
0421  AB          MOV	R3,A
0422  23 00       MOV	A,#00H
0424  62          MOV	T,A
0425  55          STRT	T
0426  16 2A       JTF	042AH
0428  84 26       JMP	0426H
042A  EB 22       DJNZ	R3,0422H
042C  EE 03       DJNZ	R6,0403H
042E  83          RET
042F  41          ORL	A,@R1
0430  00          NOP
0431  2D          XCH	A,R5
0432  71          ADDC	A,@R1
0433  24 91       JMP	0191H
0435  29          XCH	A,R1
0436  A1          MOV	@R1,A
0437  29          XCH	A,R1
0438  11          INC	@R1
0439  04 00       JMP	0000H
043B  2C          XCH	A,R4
043C  A1          MOV	@R1,A
043D  29          XCH	A,R1
043E  71          ADDC	A,@R1
043F  24 71       JMP	0171H
0441  25          EN	TCNTI
0442  11          INC	@R1
0443  1A          INC	R2
0444  39          OUTL	P1,A
0445  17          INC	A
0446  08          INS	A,BUS
0447  11          INC	@R1
0448  1A          INC	R2
0449  38          DB	38H
044A  17          INC	A
044B  08          INS	A,BUS
044C  00          NOP
044D  2D          XCH	A,R5
044E  11          INC	@R1
044F  05          EN	I
0450  00          NOP
0451  2C          XCH	A,R4
0452  11          INC	@R1
0453  1C          INC	R4
0454  39          OUTL	P1,A
0455  18          INC	R0
0456  08          INS	A,BUS
0457  11          INC	@R1
0458  1C          INC	R4
0459  39          OUTL	P1,A
045A  18          INC	R0
045B  08          INS	A,BUS
045C  00          NOP
045D  2D          XCH	A,R5
045E  91          MOVX	@R1,A
045F  2B          XCH	A,R3
0460  11          INC	@R1
0461  04 00       JMP	0000H
0463  2C          XCH	A,R4
0464  11          INC	@R1
0465  17          INC	A
0466  39          OUTL	P1,A
0467  13 08       ADDC	A,#08H
0469  11          INC	@R1
046A  17          INC	A
046B  39          OUTL	P1,A
046C  13 08       ADDC	A,#08H
046E  00          NOP
046F  2D          XCH	A,R5
0470  11          INC	@R1
0471  07          DEC	A
0472  00          NOP
0473  2C          XCH	A,R4
0474  11          INC	@R1
0475  1A          INC	R2
0476  39          OUTL	P1,A
0477  17          INC	A
0478  10          INC	@R0
0479  00          NOP
047A  2D          XCH	A,R5
047B  71          ADDC	A,@R1
047C  25          EN	TCNTI
047D  11          INC	@R1
047E  0E          MOVD	A,P6
047F  31          XCHD	A,@R1
0480  0B          DB	0BH
0481  00          NOP
0482  2C          XCH	A,R4
0483  11          INC	@R1
0484  1A          INC	R2
0485  39          OUTL	P1,A
0486  17          INC	A
0487  08          INS	A,BUS
0488  11          INC	@R1
0489  1A          INC	R2
048A  39          OUTL	P1,A
048B  17          INC	A
048C  08          INS	A,BUS
048D  00          NOP
048E  2D          XCH	A,R5
048F  11          INC	@R1
0490  04 91       JMP	0091H
0492  29          XCH	A,R1
0493  00          NOP
0494  2C          XCH	A,R4
0495  11          INC	@R1
0496  1C          INC	R4
0497  39          OUTL	P1,A
0498  18          INC	R0
0499  08          INS	A,BUS
049A  11          INC	@R1
049B  1C          INC	R4
049C  39          OUTL	P1,A
049D  18          INC	R0
049E  08          INS	A,BUS
049F  00          NOP
04A0  2D          XCH	A,R5
04A1  91          MOVX	@R1,A
04A2  2B          XCH	A,R3
04A3  11          INC	@R1
04A4  0E          MOVD	A,P6
04A5  31          XCHD	A,@R1
04A6  0B          DB	0BH
04A7  00          NOP
04A8  2C          XCH	A,R4
04A9  11          INC	@R1
04AA  17          INC	A
04AB  39          OUTL	P1,A
04AC  13 08       ADDC	A,#08H
04AE  11          INC	@R1
04AF  17          INC	A
04B0  39          OUTL	P1,A
04B1  13 08       ADDC	A,#08H
04B3  00          NOP
04B4  2D          XCH	A,R5
04B5  11          INC	@R1
04B6  07          DEC	A
04B7  91          MOVX	@R1,A
04B8  29          XCH	A,R1
04B9  00          NOP
04BA  2C          XCH	A,R4
04BB  11          INC	@R1
04BC  1A          INC	R2
04BD  39          OUTL	P1,A
04BE  17          INC	A
04BF  10          INC	@R0
04C0  1A          INC	R2
04C1  00          NOP
04C2  2D          XCH	A,R5
04C3  91          MOVX	@R1,A
04C4  2B          XCH	A,R3
04C5  11          INC	@R1
04C6  0E          MOVD	A,P6
04C7  31          XCHD	A,@R1
04C8  0B          DB	0BH
04C9  00          NOP
04CA  2C          XCH	A,R4
04CB  11          INC	@R1
04CC  1A          INC	R2
04CD  39          OUTL	P1,A
04CE  17          INC	A
04CF  08          INS	A,BUS
04D0  11          INC	@R1
04D1  1A          INC	R2
04D2  39          OUTL	P1,A
04D3  17          INC	A
04D4  08          INS	A,BUS
04D5  00          NOP
04D6  2D          XCH	A,R5
04D7  11          INC	@R1
04D8  04 91       JMP	0091H
04DA  29          XCH	A,R1
04DB  00          NOP
04DC  2C          XCH	A,R4
04DD  11          INC	@R1
04DE  1C          INC	R4
04DF  39          OUTL	P1,A
04E0  18          INC	R0
04E1  08          INS	A,BUS
04E2  11          INC	@R1
04E3  1C          INC	R4
04E4  39          OUTL	P1,A
04E5  18          INC	R0
04E6  08          INS	A,BUS
04E7  00          NOP
04E8  2D          XCH	A,R5
04E9  91          MOVX	@R1,A
04EA  2B          XCH	A,R3
04EB  11          INC	@R1
04EC  0E          MOVD	A,P6
04ED  31          XCHD	A,@R1
04EE  0B          DB	0BH
04EF  00          NOP
04F0  2C          XCH	A,R4
04F1  11          INC	@R1
04F2  1F          INC	R7
04F3  39          OUTL	P1,A
04F4  17          INC	A
04F5  08          INS	A,BUS
04F6  11          INC	@R1
04F7  1F          INC	R7
04F8  39          OUTL	P1,A
04F9  17          INC	A
04FA  08          INS	A,BUS
04FB  FF          MOV	A,R7
04FC  FF          MOV	A,R7
04FD  FF          MOV	A,R7
04FE  FF          MOV	A,R7
04FF  FF          MOV	A,R7
0500  FF          MOV	A,R7
0501  A3          MOVP	A,@A
0502  AE          MOV	R6,A
0503  1F          INC	R7
0504  FF          MOV	A,R7
0505  A3          MOVP	A,@A
0506  AD          MOV	R5,A
0507  C6 0F       JZ	050FH
0509  47          SWAP	A
050A  53 0F       ANL	A,#0FH
050C  A8          MOV	R0,A
050D  BC 00       MOV	R4,#00H
050F  1F          INC	R7
0510  FF          MOV	A,R7
0511  A3          MOVP	A,@A
0512  54 00       CALL	0200H
0514  FD          MOV	A,R5
0515  43 08       ORL	A,#08H
0517  74 2F       CALL	032FH
0519  FD          MOV	A,R5
051A  53 08       ANL	A,#08H
051C  C6 2C       JZ	052CH
051E  1F          INC	R7
051F  FF          MOV	A,R7
0520  A3          MOVP	A,@A
0521  AB          MOV	R3,A
0522  23 00       MOV	A,#00H
0524  62          MOV	T,A
0525  55          STRT	T
0526  16 2A       JTF	052AH
0528  A4 26       JMP	0526H
052A  EB 22       DJNZ	R3,0522H
052C  EE 03       DJNZ	R6,0503H
052E  83          RET
052F  06          DB	06H
0530  00          NOP
0531  2D          XCH	A,R5
0532  11          INC	@R1
0533  09          IN	A,P1
0534  91          MOVX	@R1,A
0535  29          XCH	A,R1
0536  00          NOP
0537  2C          XCH	A,R4
0538  11          INC	@R1
0539  1E          INC	R6
053A  39          OUTL	P1,A
053B  15          DIS	I
053C  10          INC	@R0
053D  41          ORL	A,@R1
053E  00          NOP
053F  2C          XCH	A,R4
0540  72 24       JB3	0524H
0542  72 25       JB3	0525H
0544  A2          DB	A2H
0545  29          XCH	A,R1
0546  00          NOP
0547  2D          XCH	A,R5
0548  71          ADDC	A,@R1
0549  24 71       JMP	0171H
054B  25          EN	TCNTI
054C  A1          MOV	@R1,A
054D  29          XCH	A,R1
054E  00          NOP
054F  2C          XCH	A,R4
0550  12 17       JB0	0517H
0552  32 13       JB1	0513H
0554  00          NOP
0555  2D          XCH	A,R5
0556  11          INC	@R1
0557  07          DEC	A
0558  99 29       ANL	P1,#29H
055A  10          INC	@R0
055B  91          MOVX	@R1,A
055C  2B          XCH	A,R3
055D  11          INC	@R1
055E  0E          MOVD	A,P6
055F  39          OUTL	P1,A
0560  0B          DB	0BH
0561  10          INC	@R0
0562  11          INC	@R1
0563  04 99       JMP	0099H
0565  29          XCH	A,R1
0566  10          INC	@R0
0567  91          MOVX	@R1,A
0568  2B          XCH	A,R3
0569  00          NOP
056A  2C          XCH	A,R4
056B  12 1A       JB0	051AH
056D  32 17       JB1	0517H
056F  00          NOP
0570  2D          XCH	A,R5
0571  11          INC	@R1
0572  0E          MOVD	A,P6
0573  39          OUTL	P1,A
0574  0B          DB	0BH
0575  10          INC	@R0
0576  00          NOP
0577  2C          XCH	A,R4
0578  12 22       JB0	0522H
057A  32 1A       JB1	051AH
057C  00          NOP
057D  2D          XCH	A,R5
057E  11          INC	@R1
057F  07          DEC	A
0580  99 29       ANL	P1,#29H
0582  10          INC	@R0
0583  91          MOVX	@R1,A
0584  2B          XCH	A,R3
0585  11          INC	@R1
0586  0E          MOVD	A,P6
0587  39          OUTL	P1,A
0588  0B          DB	0BH
0589  10          INC	@R0
058A  11          INC	@R1
058B  04 99       JMP	0099H
058D  29          XCH	A,R1
058E  10          INC	@R0
058F  91          MOVX	@R1,A
0590  2B          XCH	A,R3
0591  00          NOP
0592  2C          XCH	A,R4
0593  12 21       JB0	0521H
0595  32 18       JB1	0518H
0597  00          NOP
0598  2D          XCH	A,R5
0599  11          INC	@R1
059A  0E          MOVD	A,P6
059B  39          OUTL	P1,A
059C  0B          DB	0BH
059D  10          INC	@R0
059E  00          NOP
059F  2C          XCH	A,R4
05A0  12 21       JB0	0521H
05A2  32 18       JB1	0518H
05A4  00          NOP
05A5  2D          XCH	A,R5
05A6  11          INC	@R1
05A7  07          DEC	A
05A8  99 29       ANL	P1,#29H
05AA  10          INC	@R0
05AB  91          MOVX	@R1,A
05AC  2B          XCH	A,R3
05AD  11          INC	@R1
05AE  0E          MOVD	A,P6
05AF  39          OUTL	P1,A
05B0  0B          DB	0BH
05B1  10          INC	@R0
05B2  00          NOP
05B3  2C          XCH	A,R4
05B4  12 1F       JB0	051FH
05B6  32 17       JB1	0517H
05B8  00          NOP
05B9  2D          XCH	A,R5
05BA  11          INC	@R1
05BB  04 99       JMP	0099H
05BD  29          XCH	A,R1
05BE  10          INC	@R0
05BF  91          MOVX	@R1,A
05C0  2B          XCH	A,R3
05C1  11          INC	@R1
05C2  0E          MOVD	A,P6
05C3  39          OUTL	P1,A
05C4  0B          DB	0BH
05C5  10          INC	@R0
05C6  11          INC	@R1
05C7  07          DEC	A
05C8  99 29       ANL	P1,#29H
05CA  10          INC	@R0
05CB  91          MOVX	@R1,A
05CC  2B          XCH	A,R3
05CD  13 00       ADDC	A,#00H
05CF  2C          XCH	A,R4
05D0  11          INC	@R1
05D1  1A          INC	R2
05D2  31          XCHD	A,@R1
05D3  17          INC	A
05D4  00          NOP
05D5  2D          XCH	A,R5
05D6  11          INC	@R1
05D7  0E          MOVD	A,P6
05D8  39          OUTL	P1,A
05D9  0B          DB	0BH
05DA  10          INC	@R0
05DB  00          NOP
05DC  2C          XCH	A,R4
05DD  11          INC	@R1
05DE  19          INC	R1
05DF  31          XCHD	A,@R1
05E0  16 00       JTF	0500H
05E2  2D          XCH	A,R5
05E3  11          INC	@R1
05E4  04 99       JMP	0099H
05E6  29          XCH	A,R1
05E7  10          INC	@R0
05E8  91          MOVX	@R1,A
05E9  2B          XCH	A,R3
05EA  00          NOP
05EB  2C          XCH	A,R4
05EC  11          INC	@R1
05ED  18          INC	R0
05EE  31          XCHD	A,@R1
05EF  15          DIS	I
05F0  00          NOP
05F1  2D          XCH	A,R5
05F2  11          INC	@R1
05F3  0E          MOVD	A,P6
05F4  39          OUTL	P1,A
05F5  0B          DB	0BH
05F6  10          INC	@R0
05F7  FF          MOV	A,R7
05F8  FF          MOV	A,R7
05F9  FF          MOV	A,R7
05FA  FF          MOV	A,R7
05FB  FF          MOV	A,R7
05FC  FF          MOV	A,R7
05FD  FF          MOV	A,R7
05FE  FF          MOV	A,R7
05FF  FF          MOV	A,R7
0600  FF          MOV	A,R7
0601  A3          MOVP	A,@A
0602  AE          MOV	R6,A
0603  1F          INC	R7
0604  FF          MOV	A,R7
0605  A3          MOVP	A,@A
0606  AD          MOV	R5,A
0607  C6 0F       JZ	060FH
0609  47          SWAP	A
060A  53 0F       ANL	A,#0FH
060C  A8          MOV	R0,A
060D  BC 00       MOV	R4,#00H
060F  1F          INC	R7
0610  FF          MOV	A,R7
0611  A3          MOVP	A,@A
0612  54 00       CALL	0200H
0614  FD          MOV	A,R5
0615  43 08       ORL	A,#08H
0617  74 2F       CALL	032FH
0619  FD          MOV	A,R5
061A  53 08       ANL	A,#08H
061C  C6 2C       JZ	062CH
061E  1F          INC	R7
061F  FF          MOV	A,R7
0620  A3          MOVP	A,@A
0621  AB          MOV	R3,A
0622  23 00       MOV	A,#00H
0624  62          MOV	T,A
0625  55          STRT	T
0626  16 2A       JTF	062AH
0628  C4 26       JMP	0626H
062A  EB 22       DJNZ	R3,0622H
062C  EE 03       DJNZ	R6,0603H
062E  83          RET
062F  3E          MOVD	P6,A
0630  00          NOP
0631  2C          XCH	A,R4
0632  12 17       JB0	0617H
0634  32 13       JB1	0613H
0636  00          NOP
0637  2D          XCH	A,R5
0638  11          INC	@R1
0639  07          DEC	A
063A  99 29       ANL	P1,#29H
063C  10          INC	@R0
063D  91          MOVX	@R1,A
063E  2B          XCH	A,R3
063F  11          INC	@R1
0640  0E          MOVD	A,P6
0641  39          OUTL	P1,A
0642  0B          DB	0BH
0643  10          INC	@R0
0644  11          INC	@R1
0645  04 99       JMP	0099H
0647  29          XCH	A,R1
0648  10          INC	@R0
0649  91          MOVX	@R1,A
064A  2B          XCH	A,R3
064B  00          NOP
064C  2C          XCH	A,R4
064D  12 1A       JB0	061AH
064F  32 17       JB1	0617H
0651  00          NOP
0652  2D          XCH	A,R5
0653  11          INC	@R1
0654  0E          MOVD	A,P6
0655  39          OUTL	P1,A
0656  0B          DB	0BH
0657  10          INC	@R0
0658  00          NOP
0659  2C          XCH	A,R4
065A  12 21       JB0	0621H
065C  32 1A       JB1	061AH
065E  00          NOP
065F  2D          XCH	A,R5
0660  11          INC	@R1
0661  07          DEC	A
0662  99 29       ANL	P1,#29H
0664  10          INC	@R0
0665  91          MOVX	@R1,A
0666  2B          XCH	A,R3
0667  11          INC	@R1
0668  0E          MOVD	A,P6
0669  39          OUTL	P1,A
066A  0B          DB	0BH
066B  10          INC	@R0
066C  11          INC	@R1
066D  04 99       JMP	0099H
066F  29          XCH	A,R1
0670  10          INC	@R0
0671  91          MOVX	@R1,A
0672  2B          XCH	A,R3
0673  00          NOP
0674  2C          XCH	A,R4
0675  12 1F       JB0	061FH
0677  32 17       JB1	0617H
0679  00          NOP
067A  2D          XCH	A,R5
067B  11          INC	@R1
067C  0E          MOVD	A,P6
067D  39          OUTL	P1,A
067E  0B          DB	0BH
067F  10          INC	@R0
0680  00          NOP
0681  2C          XCH	A,R4
0682  12 1E       JB0	061EH
0684  32 18       JB1	0618H
0686  72 26       JB3	0626H
0688  52 15       JB2	0615H
068A  00          NOP
068B  2D          XCH	A,R5
068C  11          INC	@R1
068D  09          IN	A,P1
068E  99 29       ANL	P1,#29H
0690  10          INC	@R0
0691  00          NOP
0692  2C          XCH	A,R4
0693  A2          DB	A2H
0694  29          XCH	A,R1
0695  00          NOP
0696  2D          XCH	A,R5
0697  91          MOVX	@R1,A
0698  2B          XCH	A,R3
0699  11          INC	@R1
069A  0E          MOVD	A,P6
069B  39          OUTL	P1,A
069C  0C          MOVD	A,P4
069D  10          INC	@R0
069E  11          INC	@R1
069F  04 99       JMP	0099H
06A1  29          XCH	A,R1
06A2  10          INC	@R0
06A3  91          MOVX	@R1,A
06A4  2B          XCH	A,R3
06A5  11          INC	@R1
06A6  0E          MOVD	A,P6
06A7  39          OUTL	P1,A
06A8  0C          MOVD	A,P4
06A9  10          INC	@R0
06AA  11          INC	@R1
06AB  09          IN	A,P1
06AC  99 29       ANL	P1,#29H
06AE  10          INC	@R0
06AF  81          MOVX	A,@R1
06B0  29          XCH	A,R1
06B1  00          NOP
06B2  2C          XCH	A,R4
06B3  11          INC	@R1
06B4  29          XCH	A,R1
06B5  31          XCHD	A,@R1
06B6  29          XCH	A,R1
06B7  51          ANL	@R1
06B8  29          XCH	A,R1
06B9  18          INC	R0
06BA  00          NOP
06BB  2C          XCH	A,R4
06BC  11          INC	@R1
06BD  2A          XCH	A,R2
06BE  31          XCHD	A,@R1
06BF  2A          XCH	A,R2
06C0  51          ANL	@R1
06C1  2A          XCH	A,R2
06C2  11          INC	@R1
06C3  1C          INC	R4
06C4  31          XCHD	A,@R1
06C5  18          INC	R0
06C6  00          NOP
06C7  2D          XCH	A,R5
06C8  81          MOVX	A,@R1
06C9  2B          XCH	A,R3
06CA  91          MOVX	@R1,A
06CB  2B          XCH	A,R3
06CC  11          INC	@R1
06CD  0E          MOVD	A,P6
06CE  39          OUTL	P1,A
06CF  0C          MOVD	A,P4
06D0  10          INC	@R0
06D1  00          NOP
06D2  2C          XCH	A,R4
06D3  11          INC	@R1
06D4  1B          INC	R3
06D5  31          XCHD	A,@R1
06D6  17          INC	A
06D7  00          NOP
06D8  2D          XCH	A,R5
06D9  11          INC	@R1
06DA  04 99       JMP	0099H
06DC  29          XCH	A,R1
06DD  10          INC	@R0
06DE  91          MOVX	@R1,A
06DF  2B          XCH	A,R3
06E0  00          NOP
06E1  2C          XCH	A,R4
06E2  11          INC	@R1
06E3  1A          INC	R2
06E4  31          XCHD	A,@R1
06E5  16 00       JTF	0600H
06E7  2D          XCH	A,R5
06E8  11          INC	@R1
06E9  0E          MOVD	A,P6
06EA  39          OUTL	P1,A
06EB  0C          MOVD	A,P4
06EC  10          INC	@R0
06ED  05          EN	I
06EE  00          NOP
06EF  2C          XCH	A,R4
06F0  71          ADDC	A,@R1
06F1  24 01       JMP	0101H
06F3  29          XCH	A,R1
06F4  A1          MOV	@R1,A
06F5  29          XCH	A,R1
06F6  18          INC	R0
06F7  23 FF       MOV	A,#FFH
06F9  FF          MOV	A,R7
06FA  FF          MOV	A,R7
06FB  FF          MOV	A,R7
06FC  FF          MOV	A,R7
06FD  FF          MOV	A,R7
06FE  FF          MOV	A,R7
06FF  FF          MOV	A,R7
0700  FF          MOV	A,R7
0701  A3          MOVP	A,@A
0702  AE          MOV	R6,A
0703  1F          INC	R7
0704  FF          MOV	A,R7
0705  A3          MOVP	A,@A
0706  AD          MOV	R5,A
0707  C6 0F       JZ	070FH
0709  47          SWAP	A
070A  53 0F       ANL	A,#0FH
070C  A8          MOV	R0,A
070D  BC 00       MOV	R4,#00H
070F  1F          INC	R7
0710  FF          MOV	A,R7
0711  A3          MOVP	A,@A
0712  54 00       CALL	0200H
0714  FD          MOV	A,R5
0715  43 08       ORL	A,#08H
0717  74 2F       CALL	032FH
0719  FD          MOV	A,R5
071A  53 08       ANL	A,#08H
071C  C6 2C       JZ	072CH
071E  1F          INC	R7
071F  FF          MOV	A,R7
0720  A3          MOVP	A,@A
0721  AB          MOV	R3,A
0722  23 00       MOV	A,#00H
0724  62          MOV	T,A
0725  55          STRT	T
0726  16 2A       JTF	072AH
0728  E4 26       JMP	0726H
072A  EB 22       DJNZ	R3,0722H
072C  EE 03       DJNZ	R6,0703H
072E  83          RET
072F  43 00       ORL	A,#00H
0731  2C          XCH	A,R4
0732  12 18       JB0	0718H
0734  32 12       JB1	0712H
0736  00          NOP
0737  2D          XCH	A,R5
0738  11          INC	@R1
0739  09          IN	A,P1
073A  99 29       ANL	P1,#29H
073C  10          INC	@R0
073D  91          MOVX	@R1,A
073E  2B          XCH	A,R3
073F  11          INC	@R1
0740  0E          MOVD	A,P6
0741  39          OUTL	P1,A
0742  0C          MOVD	A,P4
0743  10          INC	@R0
0744  11          INC	@R1
0745  04 99       JMP	0099H
0747  29          XCH	A,R1
0748  10          INC	@R0
0749  91          MOVX	@R1,A
074A  2B          XCH	A,R3
074B  00          NOP
074C  2C          XCH	A,R4
074D  12 1A       JB0	071AH
074F  32 15       JB1	0715H
0751  00          NOP
0752  2D          XCH	A,R5
0753  11          INC	@R1
0754  0E          MOVD	A,P6
0755  39          OUTL	P1,A
0756  0C          MOVD	A,P4
0757  10          INC	@R0
0758  00          NOP
0759  2C          XCH	A,R4
075A  12 21       JB0	0721H
075C  32 18       JB1	0718H
075E  00          NOP
075F  2D          XCH	A,R5
0760  11          INC	@R1
0761  09          IN	A,P1
0762  99 29       ANL	P1,#29H
0764  10          INC	@R0
0765  91          MOVX	@R1,A
0766  2B          XCH	A,R3
0767  11          INC	@R1
0768  0E          MOVD	A,P6
0769  39          OUTL	P1,A
076A  0C          MOVD	A,P4
076B  10          INC	@R0
076C  11          INC	@R1
076D  04 99       JMP	0099H
076F  29          XCH	A,R1
0770  10          INC	@R0
0771  91          MOVX	@R1,A
0772  2B          XCH	A,R3
0773  00          NOP
0774  2C          XCH	A,R4
0775  12 1F       JB0	071FH
0777  32 17       JB1	0717H
0779  00          NOP
077A  2D          XCH	A,R5
077B  11          INC	@R1
077C  0E          MOVD	A,P6
077D  39          OUTL	P1,A
077E  0C          MOVD	A,P4
077F  10          INC	@R0
0780  00          NOP
0781  2C          XCH	A,R4
0782  12 1F       JB0	071FH
0784  32 17       JB1	0717H
0786  00          NOP
0787  2D          XCH	A,R5
0788  11          INC	@R1
0789  09          IN	A,P1
078A  99 29       ANL	P1,#29H
078C  10          INC	@R0
078D  91          MOVX	@R1,A
078E  2B          XCH	A,R3
078F  11          INC	@R1
0790  0E          MOVD	A,P6
0791  39          OUTL	P1,A
0792  0C          MOVD	A,P4
0793  10          INC	@R0
0794  00          NOP
0795  2C          XCH	A,R4
0796  12 1E       JB0	071EH
0798  32 15       JB1	0715H
079A  00          NOP
079B  2D          XCH	A,R5
079C  11          INC	@R1
079D  04 99       JMP	0099H
079F  29          XCH	A,R1
07A0  10          INC	@R0
07A1  91          MOVX	@R1,A
07A2  2B          XCH	A,R3
07A3  00          NOP
07A4  2C          XCH	A,R4
07A5  12 1E       JB0	071EH
07A7  32 15       JB1	0715H
07A9  00          NOP
07AA  2D          XCH	A,R5
07AB  11          INC	@R1
07AC  0E          MOVD	A,P6
07AD  39          OUTL	P1,A
07AE  0C          MOVD	A,P4
07AF  10          INC	@R0
07B0  11          INC	@R1
07B1  09          IN	A,P1
07B2  99 29       ANL	P1,#29H
07B4  10          INC	@R0
07B5  91          MOVX	@R1,A
07B6  2B          XCH	A,R3
07B7  00          NOP
07B8  2C          XCH	A,R4
07B9  12 21       JB0	0721H
07BB  32 18       JB1	0718H
07BD  00          NOP
07BE  2D          XCH	A,R5
07BF  11          INC	@R1
07C0  0E          MOVD	A,P6
07C1  39          OUTL	P1,A
07C2  0C          MOVD	A,P4
07C3  10          INC	@R0
07C4  FF          MOV	A,R7
07C5  FF          MOV	A,R7
07C6  FF          MOV	A,R7
07C7  FF          MOV	A,R7
07C8  FF          MOV	A,R7
07C9  FF          MOV	A,R7
07CA  FF          MOV	A,R7
07CB  FF          MOV	A,R7
07CC  FF          MOV	A,R7
07CD  FF          MOV	A,R7
07CE  FF          MOV	A,R7
07CF  FF          MOV	A,R7
07D0  FF          MOV	A,R7
07D1  FF          MOV	A,R7
07D2  FF          MOV	A,R7
07D3  FF          MOV	A,R7
07D4  FF          MOV	A,R7
07D5  FF          MOV	A,R7
07D6  FF          MOV	A,R7
07D7  FF          MOV	A,R7
07D8  FF          MOV	A,R7
07D9  FF          MOV	A,R7
07DA  FF          MOV	A,R7
07DB  FF          MOV	A,R7
07DC  FF          MOV	A,R7
07DD  FF          MOV	A,R7
07DE  FF          MOV	A,R7
07DF  FF          MOV	A,R7
07E0  FF          MOV	A,R7
07E1  FF          MOV	A,R7
07E2  FF          MOV	A,R7
07E3  FF          MOV	A,R7
07E4  FF          MOV	A,R7
07E5  FF          MOV	A,R7
07E6  FF          MOV	A,R7
07E7  FF          MOV	A,R7
07E8  FF          MOV	A,R7
07E9  FF          MOV	A,R7
07EA  FF          MOV	A,R7
07EB  FF          MOV	A,R7
07EC  FF          MOV	A,R7
07ED  FF          MOV	A,R7
07EE  FF          MOV	A,R7
07EF  FF          MOV	A,R7
07F0  FF          MOV	A,R7
07F1  FF          MOV	A,R7
07F2  FF          MOV	A,R7
07F3  FF          MOV	A,R7
07F4  FF          MOV	A,R7
07F5  FF          MOV	A,R7
07F6  FF          MOV	A,R7
07F7  FF          MOV	A,R7
07F8  FF          MOV	A,R7
07F9  FF          MOV	A,R7
07FA  FF          MOV	A,R7
07FB  FF          MOV	A,R7
07FC  FF          MOV	A,R7
07FD  FF          MOV	A,R7
07FE  FF          MOV	A,R7
07FF  FF          MOV	A,R7
0800  04 9B       JMP	089BH
0802  00          NOP
0803  E5          SEL	MB0
0804  04 0B       JMP	080BH
0806  04 9B       JMP	089BH
0808  00          NOP
0809  04 9B       JMP	089BH
080B  99 F7       ANL	P1,#F7H
080D  8A F0       ORL	P2,#F0H
080F  0A          IN	A,P2
0810  53 F0       ANL	A,#F0H
0812  47          SWAP	A
0813  A8          MOV	R0,A
0814  B9 08       MOV	R1,#08H
0816  23 1F       MOV	A,#1FH
0818  A1          MOV	@R1,A
0819  19          INC	R1
081A  27          CLR	A
081B  A1          MOV	@R1,A
081C  17          INC	A
081D  D7          MOV	PSW,A
081E  93          RETR
081F  E5          SEL	MB0
0820  F8          MOV	A,R0
0821  C6 9B       JZ	009BH
0823  23 0F       MOV	A,#0FH
0825  D8          XRL	A,R0
0826  C6 98       JZ	0098H
0828  23 0E       MOV	A,#0EH
082A  D8          XRL	A,R0
082B  C6 96       JZ	0096H
082D  23 0D       MOV	A,#0DH
082F  D8          XRL	A,R0
0830  C6 92       JZ	0092H
0832  23 0C       MOV	A,#0CH
0834  D8          XRL	A,R0
0835  C6 8D       JZ	008DH
0837  23 01       MOV	A,#01H
0839  D8          XRL	A,R0
083A  C6 70       JZ	0070H
083C  23 02       MOV	A,#02H
083E  D8          XRL	A,R0
083F  C6 72       JZ	0072H
0841  23 03       MOV	A,#03H
0843  D8          XRL	A,R0
0844  C6 75       JZ	0075H
0846  23 04       MOV	A,#04H
0848  D8          XRL	A,R0
0849  C6 78       JZ	0078H
084B  23 05       MOV	A,#05H
084D  D8          XRL	A,R0
084E  C6 7A       JZ	007AH
0850  23 06       MOV	A,#06H
0852  D8          XRL	A,R0
0853  C6 7D       JZ	007DH
0855  23 07       MOV	A,#07H
0857  D8          XRL	A,R0
0858  C6 81       JZ	0081H
085A  23 08       MOV	A,#08H
085C  D8          XRL	A,R0
085D  C6 83       JZ	0083H
085F  23 09       MOV	A,#09H
0861  D8          XRL	A,R0
0862  C6 85       JZ	0085H
0864  23 0A       MOV	A,#0AH
0866  D8          XRL	A,R0
0867  C6 87       JZ	0087H
0869  23 0B       MOV	A,#0BH
086B  D8          XRL	A,R0
086C  C6 89       JZ	0089H
086E  04 1F       JMP	081FH
0870  24 AB       JMP	09ABH
0872  F5          SEL	MB1
0873  A4 00       JMP	0D00H
0875  F5          SEL	MB1
0876  A4 3B       JMP	0D3BH
0878  24 7A       JMP	097AH
087A  F5          SEL	MB1
087B  C4 61       JMP	0E61H
087D  14 F2       CALL	08F2H
087F  04 9B       JMP	089BH
0881  24 4A       JMP	094AH
0883  24 B6       JMP	09B6H
0885  64 5C       JMP	0B5CH
0887  64 A0       JMP	0BA0H
0889  14 E8       CALL	08E8H
088B  04 9B       JMP	089BH
088D  34 60       CALL	0960H
088F  E5          SEL	MB0
0890  04 9B       JMP	089BH
0892  34 09       CALL	0909H
0894  04 9B       JMP	089BH
0896  64 A4       JMP	0BA4H
0898  F5          SEL	MB1
0899  A4 4D       JMP	0D4DH
089B  05          EN	I
089C  35          DIS	TCNTI
089D  75          ENT0	CLK
089E  99 03       ANL	P1,#03H
08A0  14 C2       CALL	08C2H
08A2  B9 FF       MOV	R1,#FFH
08A4  54 EF       CALL	0AEFH
08A6  14 BC       CALL	08BCH
08A8  54 F3       CALL	0AF3H
08AA  14 BC       CALL	08BCH
08AC  89 0F       ORL	P1,#0FH
08AE  8A FF       ORL	P2,#FFH
08B0  BC B4       MOV	R4,#B4H
08B2  BB FA       MOV	R3,#FAH
08B4  BE 01       MOV	R6,#01H
08B6  74 22       CALL	0B22H
08B8  EC B2       DJNZ	R4,00B2H
08BA  24 C8       JMP	09C8H
08BC  B8 07       MOV	R0,#07H
08BE  23 FF       MOV	A,#FFH
08C0  90          MOVX	@R0,A
08C1  83          RET
08C2  23 FF       MOV	A,#FFH
08C4  07          DEC	A
08C5  96 C4       JNZ	00C4H
08C7  83          RET
08C8  B8 08       MOV	R0,#08H
08CA  90          MOVX	@R0,A
08CB  18          INC	R0
08CC  90          MOVX	@R0,A
08CD  18          INC	R0
08CE  90          MOVX	@R0,A
08CF  18          INC	R0
08D0  90          MOVX	@R0,A
08D1  B9 FF       MOV	R1,#FFH
08D3  83          RET
08D4  54 EF       CALL	0AEFH
08D6  23 FF       MOV	A,#FFH
08D8  D5          SEL	RB1
08D9  A9          MOV	R1,A
08DA  C5          SEL	RB0
08DB  14 C8       CALL	08C8H
08DD  18          INC	R0
08DE  83          RET
08DF  54 F3       CALL	0AF3H
08E1  23 FF       MOV	A,#FFH
08E3  D5          SEL	RB1
08E4  AA          MOV	R2,A
08E5  C5          SEL	RB0
08E6  04 DB       JMP	08DBH
08E8  14 D4       CALL	08D4H
08EA  23 08       MOV	A,#08H
08EC  90          MOVX	@R0,A
08ED  BF ED       MOV	R7,#EDH
08EF  D4 00       CALL	0E00H
08F1  83          RET
08F2  14 D4       CALL	08D4H
08F4  23 08       MOV	A,#08H
08F6  90          MOVX	@R0,A
08F7  14 DF       CALL	08DFH
08F9  23 09       MOV	A,#09H
08FB  90          MOVX	@R0,A
08FC  BF 2F       MOV	R7,#2FH
08FE  94 00       CALL	0C00H
0900  BF C0       MOV	R7,#C0H
0902  94 00       CALL	0C00H
0904  BF 2F       MOV	R7,#2FH
0906  B4 00       CALL	0D00H
0908  83          RET
0909  14 DF       CALL	08DFH
090B  23 07       MOV	A,#07H
090D  90          MOVX	@R0,A
090E  14 D4       CALL	08D4H
0910  23 01       MOV	A,#01H
0912  90          MOVX	@R0,A
0913  BF 3D       MOV	R7,#3DH
0915  B4 00       CALL	0D00H
0917  54 EF       CALL	0AEFH
0919  B8 0C       MOV	R0,#0CH
091B  23 05       MOV	A,#05H
091D  90          MOVX	@R0,A
091E  BF CD       MOV	R7,#CDH
0920  B4 00       CALL	0D00H
0922  54 EF       CALL	0AEFH
0924  B8 0C       MOV	R0,#0CH
0926  23 01       MOV	A,#01H
0928  90          MOVX	@R0,A
0929  BF 2F       MOV	R7,#2FH
092B  D4 00       CALL	0E00H
092D  83          RET
092E  54 EF       CALL	0AEFH
0930  B8 0C       MOV	R0,#0CH
0932  23 05       MOV	A,#05H
0934  90          MOVX	@R0,A
0935  BF B9       MOV	R7,#B9H
0937  D4 00       CALL	0E00H
0939  54 EF       CALL	0AEFH
093B  B8 0C       MOV	R0,#0CH
093D  23 01       MOV	A,#01H
093F  90          MOVX	@R0,A
0940  BF 2F       MOV	R7,#2FH
0942  F4 00       CALL	0F00H
0944  BF 31       MOV	R7,#31H
0946  F5          SEL	MB1
0947  14 00       CALL	0800H
0949  83          RET
094A  14 D4       CALL	08D4H
094C  23 05       MOV	A,#05H
094E  90          MOVX	@R0,A
094F  14 DF       CALL	08DFH
0951  23 08       MOV	A,#08H
0953  90          MOVX	@R0,A
0954  BF 31       MOV	R7,#31H
0956  F5          SEL	MB1
0957  34 00       CALL	0900H
0959  BF 00       MOV	R7,#00H
095B  54 45       CALL	0A45H
095D  E5          SEL	MB0
095E  04 9B       JMP	089BH
0960  14 D4       CALL	08D4H
0962  23 08       MOV	A,#08H
0964  90          MOVX	@R0,A
0965  14 DF       CALL	08DFH
0967  23 06       MOV	A,#06H
0969  90          MOVX	@R0,A
096A  BF 76       MOV	R7,#76H
096C  F5          SEL	MB1
096D  54 45       CALL	0A45H
096F  BF 76       MOV	R7,#76H
0971  54 45       CALL	0A45H
0973  83          RET
0974  F5          SEL	MB1
0975  BF 31       MOV	R7,#31H
0977  94 00       CALL	0C00H
0979  83          RET
097A  14 D4       CALL	08D4H
097C  23 08       MOV	A,#08H
097E  90          MOVX	@R0,A
097F  BF 31       MOV	R7,#31H
0981  F5          SEL	MB1
0982  74 00       CALL	0B00H
0984  BF 31       MOV	R7,#31H
0986  74 00       CALL	0B00H
0988  BF 48       MOV	R7,#48H
098A  74 00       CALL	0B00H
098C  BF 48       MOV	R7,#48H
098E  74 00       CALL	0B00H
0990  BF 5D       MOV	R7,#5DH
0992  74 00       CALL	0B00H
0994  BF 5D       MOV	R7,#5DH
0996  74 00       CALL	0B00H
0998  BF 76       MOV	R7,#76H
099A  74 00       CALL	0B00H
099C  BF 76       MOV	R7,#76H
099E  74 00       CALL	0B00H
09A0  BF 8F       MOV	R7,#8FH
09A2  74 00       CALL	0B00H
09A4  BF 8F       MOV	R7,#8FH
09A6  74 00       CALL	0B00H
09A8  E5          SEL	MB0
09A9  24 7A       JMP	097AH
09AB  14 D4       CALL	08D4H
09AD  23 08       MOV	A,#08H
09AF  90          MOVX	@R0,A
09B0  BF 33       MOV	R7,#33H
09B2  74 00       CALL	0B00H
09B4  04 9B       JMP	089BH
09B6  14 D4       CALL	08D4H
09B8  23 04       MOV	A,#04H
09BA  90          MOVX	@R0,A
09BB  14 DF       CALL	08DFH
09BD  23 08       MOV	A,#08H
09BF  90          MOVX	@R0,A
09C0  BF 31       MOV	R7,#31H
09C2  F5          SEL	MB1
09C3  F4 00       CALL	0F00H
09C5  E5          SEL	MB0
09C6  04 9B       JMP	089BH
09C8  D5          SEL	RB1
09C9  FE          MOV	A,R6
09CA  37          CPL	A
09CB  AE          MOV	R6,A
09CC  C5          SEL	RB0
09CD  12 D1       JB0	01D1H
09CF  24 DA       JMP	09DAH
09D1  14 F2       CALL	08F2H
09D3  34 09       CALL	0909H
09D5  34 2E       CALL	092EH
09D7  E5          SEL	MB0
09D8  04 9B       JMP	089BH
09DA  34 60       CALL	0960H
09DC  E5          SEL	MB0
09DD  34 74       CALL	0974H
09DF  E5          SEL	MB0
09E0  04 9B       JMP	089BH
09E2  FF          MOV	A,R7
09E3  FF          MOV	A,R7
09E4  FF          MOV	A,R7
09E5  FF          MOV	A,R7
09E6  FF          MOV	A,R7
09E7  FF          MOV	A,R7
09E8  FF          MOV	A,R7
09E9  FF          MOV	A,R7
09EA  FF          MOV	A,R7
09EB  FF          MOV	A,R7
09EC  FF          MOV	A,R7
09ED  FF          MOV	A,R7
09EE  FF          MOV	A,R7
09EF  FF          MOV	A,R7
09F0  FF          MOV	A,R7
09F1  FF          MOV	A,R7
09F2  FF          MOV	A,R7
09F3  FF          MOV	A,R7
09F4  FF          MOV	A,R7
09F5  FF          MOV	A,R7
09F6  FF          MOV	A,R7
09F7  FF          MOV	A,R7
09F8  FF          MOV	A,R7
09F9  FF          MOV	A,R7
09FA  FF          MOV	A,R7
09FB  FF          MOV	A,R7
09FC  FF          MOV	A,R7
09FD  FF          MOV	A,R7
09FE  FF          MOV	A,R7
09FF  FF          MOV	A,R7
0A00  B3          JMPP	@A
0A01  2E          XCH	A,R6
0A02  32 36       JB1	0236H
0A04  3A          OUTL	P2,A
0A05  3E          MOVD	P6,A
0A06  42          MOV	A,T
0A07  46 4A       JNT1	024AH
0A09  4E          ORL	A,R6
0A0A  52 56       JB2	0256H
0A0C  5A          ANL	A,R2
0A0D  5E          ANL	A,R6
0A0E  62          MOV	T,A
0A0F  66          DB	66H
0A10  6A          ADD	A,R2
0A11  6E          ADD	A,R6
0A12  72 76       JB3	0276H
0A14  7A          ADDC	A,R2
0A15  7E          ADDC	A,R6
0A16  82          DB	82H
0A17  86 8A       JNI	028AH
0A19  8E          ANLD	A,P6
0A1A  92 96       JB4	0296H
0A1C  9A 9E       ANL	P2,#9EH
0A1E  A2          DB	A2H
0A1F  A6          DB	A6H
0A20  AA          MOV	R2,A
0A21  AE          MOV	R6,A
0A22  B2 B6       JB5	02B6H
0A24  C8          DEC	R0
0A25  CE          DEC	R6
0A26  D3 D8       XRL	A,#D8H
0A28  DD          XRL	A,R5
0A29  E2          DB	E2H
0A2A  E5          SEL	MB0
0A2B  EA EF       DJNZ	R2,02EFH
0A2D  F3          DB	F3H
0A2E  BA 2B       MOV	R2,#2BH
0A30  44 C4       JMP	0AC4H
0A32  BA 8F       MOV	R2,#8FH
0A34  44 C4       JMP	0AC4H
0A36  BA FE       MOV	R2,#FEH
0A38  44 C0       JMP	0AC0H
0A3A  BA AA       MOV	R2,#AAH
0A3C  44 C0       JMP	0AC0H
0A3E  BA 60       MOV	R2,#60H
0A40  44 C0       JMP	0AC0H
0A42  BA 1D       MOV	R2,#1DH
0A44  44 C0       JMP	0AC0H
0A46  BA FF       MOV	R2,#FFH
0A48  44 BC       JMP	0ABCH
0A4A  BA E3       MOV	R2,#E3H
0A4C  44 BC       JMP	0ABCH
0A4E  BA C7       MOV	R2,#C7H
0A50  44 BC       JMP	0ABCH
0A52  BA AE       MOV	R2,#AEH
0A54  44 BC       JMP	0ABCH
0A56  BA 95       MOV	R2,#95H
0A58  44 BC       JMP	0ABCH
0A5A  BA 7F       MOV	R2,#7FH
0A5C  44 BC       JMP	0ABCH
0A5E  BA 6A       MOV	R2,#6AH
0A60  44 BC       JMP	0ABCH
0A62  BA 55       MOV	R2,#55H
0A64  44 BC       JMP	0ABCH
0A66  BA 42       MOV	R2,#42H
0A68  44 BC       JMP	0ABCH
0A6A  BA 30       MOV	R2,#30H
0A6C  44 BC       JMP	0ABCH
0A6E  BA 1F       MOV	R2,#1FH
0A70  44 BC       JMP	0ABCH
0A72  BA 0E       MOV	R2,#0EH
0A74  44 BC       JMP	0ABCH
0A76  BA FF       MOV	R2,#FFH
0A78  44 B8       JMP	0AB8H
0A7A  BA F1       MOV	R2,#F1H
0A7C  44 B8       JMP	0AB8H
0A7E  BA E3       MOV	R2,#E3H
0A80  44 B8       JMP	0AB8H
0A82  BA D6       MOV	R2,#D6H
0A84  44 B8       JMP	0AB8H
0A86  BA CA       MOV	R2,#CAH
0A88  44 B8       JMP	0AB8H
0A8A  BA BF       MOV	R2,#BFH
0A8C  44 B8       JMP	0AB8H
0A8E  BA B4       MOV	R2,#B4H
0A90  44 B8       JMP	0AB8H
0A92  BA AA       MOV	R2,#AAH
0A94  44 B8       JMP	0AB8H
0A96  BA A1       MOV	R2,#A1H
0A98  44 B8       JMP	0AB8H
0A9A  BA 98       MOV	R2,#98H
0A9C  44 B8       JMP	0AB8H
0A9E  BA 8F       MOV	R2,#8FH
0AA0  44 B8       JMP	0AB8H
0AA2  BA 87       MOV	R2,#87H
0AA4  44 B8       JMP	0AB8H
0AA6  BA 7F       MOV	R2,#7FH
0AA8  44 B8       JMP	0AB8H
0AAA  BA 78       MOV	R2,#78H
0AAC  44 B8       JMP	0AB8H
0AAE  BA 71       MOV	R2,#71H
0AB0  44 B8       JMP	0AB8H
0AB2  BA 65       MOV	R2,#65H
0AB4  44 B8       JMP	0AB8H
0AB6  BA 5F       MOV	R2,#5FH
0AB8  BC 80       MOV	R4,#80H
0ABA  44 F7       JMP	0AF7H
0ABC  BC 01       MOV	R4,#01H
0ABE  44 F7       JMP	0AF7H
0AC0  BC 02       MOV	R4,#02H
0AC2  44 F7       JMP	0AF7H
0AC4  BC 03       MOV	R4,#03H
0AC6  44 F7       JMP	0AF7H
0AC8  F9          MOV	A,R1
0AC9  53 FE       ANL	A,#FEH
0ACB  A9          MOV	R1,A
0ACC  90          MOVX	@R0,A
0ACD  83          RET
0ACE  F9          MOV	A,R1
0ACF  53 FD       ANL	A,#FDH
0AD1  44 CB       JMP	0ACBH
0AD3  F9          MOV	A,R1
0AD4  53 FB       ANL	A,#FBH
0AD6  44 CB       JMP	0ACBH
0AD8  F9          MOV	A,R1
0AD9  53 EF       ANL	A,#EFH
0ADB  44 CB       JMP	0ACBH
0ADD  F9          MOV	A,R1
0ADE  43 10       ORL	A,#10H
0AE0  44 CB       JMP	0ACBH
0AE2  27          CLR	A
0AE3  90          MOVX	@R0,A
0AE4  83          RET
0AE5  D5          SEL	RB1
0AE6  F9          MOV	A,R1
0AE7  C5          SEL	RB0
0AE8  44 ED       JMP	0AEDH
0AEA  D5          SEL	RB1
0AEB  FA          MOV	A,R2
0AEC  C5          SEL	RB0
0AED  90          MOVX	@R0,A
0AEE  83          RET
0AEF  23 06       MOV	A,#06H
0AF1  39          OUTL	P1,A
0AF2  83          RET
0AF3  23 05       MOV	A,#05H
0AF5  39          OUTL	P1,A
0AF6  83          RET
0AF7  FC          MOV	A,R4
0AF8  C6 FC       JZ	02FCH
0AFA  90          MOVX	@R0,A
0AFB  C8          DEC	R0
0AFC  FA          MOV	A,R2
0AFD  90          MOVX	@R0,A
0AFE  83          RET
0AFF  FF          MOV	A,R7
0B00  FF          MOV	A,R7
0B01  A3          MOVP	A,@A
0B02  AE          MOV	R6,A
0B03  1F          INC	R7
0B04  FF          MOV	A,R7
0B05  A3          MOVP	A,@A
0B06  AD          MOV	R5,A
0B07  C6 0F       JZ	030FH
0B09  47          SWAP	A
0B0A  53 0F       ANL	A,#0FH
0B0C  A8          MOV	R0,A
0B0D  BC 00       MOV	R4,#00H
0B0F  1F          INC	R7
0B10  FF          MOV	A,R7
0B11  A3          MOVP	A,@A
0B12  54 00       CALL	0A00H
0B14  FD          MOV	A,R5
0B15  43 08       ORL	A,#08H
0B17  74 2F       CALL	0B2FH
0B19  FD          MOV	A,R5
0B1A  53 08       ANL	A,#08H
0B1C  C6 2C       JZ	032CH
0B1E  1F          INC	R7
0B1F  FF          MOV	A,R7
0B20  A3          MOVP	A,@A
0B21  AB          MOV	R3,A
0B22  23 00       MOV	A,#00H
0B24  62          MOV	T,A
0B25  55          STRT	T
0B26  16 2A       JTF	032AH
0B28  64 26       JMP	0B26H
0B2A  EB 22       DJNZ	R3,0322H
0B2C  EE 03       DJNZ	R6,0303H
0B2E  83          RET
0B2F  B8 0D       MOV	R0,#0DH
0B31  90          MOVX	@R0,A
0B32  83          RET
0B33  0A          IN	A,P2
0B34  00          NOP
0B35  2C          XCH	A,R4
0B36  71          ADDC	A,@R1
0B37  24 71       JMP	0971H
0B39  25          EN	TCNTI
0B3A  71          ADDC	A,@R1
0B3B  26 19       JNT0	0319H
0B3D  07          DEC	A
0B3E  04 39       JMP	0839H
0B40  0B          DB	0BH
0B41  04 59       JMP	0859H
0B43  0E          MOVD	A,P6
0B44  04 11       JMP	0811H
0B46  0B          DB	0BH
0B47  31          XCHD	A,@R1
0B48  0E          MOVD	A,P6
0B49  59          ANL	A,R1
0B4A  13 08       ADDC	A,#08H
0B4C  07          DEC	A
0B4D  00          NOP
0B4E  2D          XCH	A,R5
0B4F  71          ADDC	A,@R1
0B50  24 71       JMP	0971H
0B52  25          EN	TCNTI
0B53  71          ADDC	A,@R1
0B54  26 11       JNT0	0311H
0B56  15          DIS	I
0B57  31          XCHD	A,@R1
0B58  0D          MOVD	A,P5
0B59  59          ANL	A,R1
0B5A  10          INC	@R0
0B5B  04 99       JMP	0899H
0B5D  00          NOP
0B5E  BB 03       MOV	R3,#03H
0B60  B9 03       MOV	R1,#03H
0B62  23 07       MOV	A,#07H
0B64  39          OUTL	P1,A
0B65  03 20       ADD	A,#20H
0B67  AA          MOV	R2,A
0B68  D3 77       XRL	A,#77H
0B6A  C6 73       JZ	0373H
0B6C  FA          MOV	A,R2
0B6D  39          OUTL	P1,A
0B6E  03 F0       ADD	A,#F0H
0B70  39          OUTL	P1,A
0B71  64 65       JMP	0B65H
0B73  23 77       MOV	A,#77H
0B75  39          OUTL	P1,A
0B76  03 E0       ADD	A,#E0H
0B78  AA          MOV	R2,A
0B79  D3 07       XRL	A,#07H
0B7B  C6 84       JZ	0384H
0B7D  FA          MOV	A,R2
0B7E  39          OUTL	P1,A
0B7F  03 10       ADD	A,#10H
0B81  39          OUTL	P1,A
0B82  64 76       JMP	0B76H
0B84  E9 62       DJNZ	R1,0362H
0B86  BE 01       MOV	R6,#01H
0B88  23 77       MOV	A,#77H
0B8A  39          OUTL	P1,A
0B8B  CE          DEC	R6
0B8C  FE          MOV	A,R6
0B8D  96 73       JNZ	0373H
0B8F  CB          DEC	R3
0B90  FB          MOV	A,R3
0B91  96 60       JNZ	0360H
0B93  23 77       MOV	A,#77H
0B95  39          OUTL	P1,A
0B96  BE FF       MOV	R6,#FFH
0B98  BF 3A       MOV	R7,#3AH
0B9A  EF 9A       DJNZ	R7,039AH
0B9C  EE 98       DJNZ	R6,0398H
0B9E  64 5E       JMP	0B5EH
0BA0  74 A8       CALL	0BA8H
0BA2  04 9B       JMP	089BH
0BA4  74 A8       CALL	0BA8H
0BA6  64 5C       JMP	0B5CH
0BA8  BB 02       MOV	R3,#02H
0BAA  BD 02       MOV	R5,#02H
0BAC  BF 02       MOV	R7,#02H
0BAE  BE 1E       MOV	R6,#1EH
0BB0  B9 07       MOV	R1,#07H
0BB2  BA 87       MOV	R2,#87H
0BB4  B8 47       MOV	R0,#47H
0BB6  F8          MOV	A,R0
0BB7  39          OUTL	P1,A
0BB8  64 BE       JMP	0BBEH
0BBA  F9          MOV	A,R1
0BBB  03 10       ADD	A,#10H
0BBD  A9          MOV	R1,A
0BBE  F8          MOV	A,R0
0BBF  03 F0       ADD	A,#F0H
0BC1  39          OUTL	P1,A
0BC2  A8          MOV	R0,A
0BC3  D9          XRL	A,R1
0BC4  C6 CA       JZ	03CAH
0BC6  EE BE       DJNZ	R6,03BEH
0BC8  64 D8       JMP	0BD8H
0BCA  FA          MOV	A,R2
0BCB  03 F0       ADD	A,#F0H
0BCD  AA          MOV	R2,A
0BCE  F8          MOV	A,R0
0BCF  03 10       ADD	A,#10H
0BD1  39          OUTL	P1,A
0BD2  A8          MOV	R0,A
0BD3  DA          XRL	A,R2
0BD4  C6 BA       JZ	03BAH
0BD6  EE CE       DJNZ	R6,03CEH
0BD8  EF AE       DJNZ	R7,03AEH
0BDA  23 77       MOV	A,#77H
0BDC  39          OUTL	P1,A
0BDD  BE FF       MOV	R6,#FFH
0BDF  BF 08       MOV	R7,#08H
0BE1  EF E1       DJNZ	R7,03E1H
0BE3  EE DF       DJNZ	R6,03DFH
0BE5  FD          MOV	A,R5
0BE6  D3 00       XRL	A,#00H
0BE8  C6 EC       JZ	03ECH
0BEA  ED AC       DJNZ	R5,03ACH
0BEC  BE FF       MOV	R6,#FFH
0BEE  BF 30       MOV	R7,#30H
0BF0  EF F0       DJNZ	R7,03F0H
0BF2  EE EE       DJNZ	R6,03EEH
0BF4  EB AC       DJNZ	R3,03ACH
0BF6  83          RET
0BF7  FF          MOV	A,R7
0BF8  FF          MOV	A,R7
0BF9  FF          MOV	A,R7
0BFA  FF          MOV	A,R7
0BFB  FF          MOV	A,R7
0BFC  FF          MOV	A,R7
0BFD  FF          MOV	A,R7
0BFE  FF          MOV	A,R7
0BFF  FF          MOV	A,R7
0C00  FF          MOV	A,R7
0C01  A3          MOVP	A,@A
0C02  AE          MOV	R6,A
0C03  1F          INC	R7
0C04  FF          MOV	A,R7
0C05  A3          MOVP	A,@A
0C06  AD          MOV	R5,A
0C07  C6 0F       JZ	040FH
0C09  47          SWAP	A
0C0A  53 0F       ANL	A,#0FH
0C0C  A8          MOV	R0,A
0C0D  BC 00       MOV	R4,#00H
0C0F  1F          INC	R7
0C10  FF          MOV	A,R7
0C11  A3          MOVP	A,@A
0C12  54 00       CALL	0A00H
0C14  FD          MOV	A,R5
0C15  43 08       ORL	A,#08H
0C17  74 2F       CALL	0B2FH
0C19  FD          MOV	A,R5
0C1A  53 08       ANL	A,#08H
0C1C  C6 2C       JZ	042CH
0C1E  1F          INC	R7
0C1F  FF          MOV	A,R7
0C20  A3          MOVP	A,@A
0C21  AB          MOV	R3,A
0C22  23 00       MOV	A,#00H
0C24  62          MOV	T,A
0C25  55          STRT	T
0C26  16 2A       JTF	042AH
0C28  84 26       JMP	0C26H
0C2A  EB 22       DJNZ	R3,0422H
0C2C  EE 03       DJNZ	R6,0403H
0C2E  83          RET
0C2F  41          ORL	A,@R1
0C30  00          NOP
0C31  2D          XCH	A,R5
0C32  71          ADDC	A,@R1
0C33  24 91       JMP	0991H
0C35  29          XCH	A,R1
0C36  A1          MOV	@R1,A
0C37  29          XCH	A,R1
0C38  11          INC	@R1
0C39  04 00       JMP	0800H
0C3B  2C          XCH	A,R4
0C3C  A1          MOV	@R1,A
0C3D  29          XCH	A,R1
0C3E  71          ADDC	A,@R1
0C3F  24 71       JMP	0971H
0C41  25          EN	TCNTI
0C42  11          INC	@R1
0C43  1A          INC	R2
0C44  39          OUTL	P1,A
0C45  17          INC	A
0C46  08          INS	A,BUS
0C47  11          INC	@R1
0C48  1A          INC	R2
0C49  38          DB	38H
0C4A  17          INC	A
0C4B  08          INS	A,BUS
0C4C  00          NOP
0C4D  2D          XCH	A,R5
0C4E  11          INC	@R1
0C4F  05          EN	I
0C50  00          NOP
0C51  2C          XCH	A,R4
0C52  11          INC	@R1
0C53  1C          INC	R4
0C54  39          OUTL	P1,A
0C55  18          INC	R0
0C56  08          INS	A,BUS
0C57  11          INC	@R1
0C58  1C          INC	R4
0C59  39          OUTL	P1,A
0C5A  18          INC	R0
0C5B  08          INS	A,BUS
0C5C  00          NOP
0C5D  2D          XCH	A,R5
0C5E  91          MOVX	@R1,A
0C5F  2B          XCH	A,R3
0C60  11          INC	@R1
0C61  04 00       JMP	0800H
0C63  2C          XCH	A,R4
0C64  11          INC	@R1
0C65  17          INC	A
0C66  39          OUTL	P1,A
0C67  13 08       ADDC	A,#08H
0C69  11          INC	@R1
0C6A  17          INC	A
0C6B  39          OUTL	P1,A
0C6C  13 08       ADDC	A,#08H
0C6E  00          NOP
0C6F  2D          XCH	A,R5
0C70  11          INC	@R1
0C71  07          DEC	A
0C72  00          NOP
0C73  2C          XCH	A,R4
0C74  11          INC	@R1
0C75  1A          INC	R2
0C76  39          OUTL	P1,A
0C77  17          INC	A
0C78  10          INC	@R0
0C79  00          NOP
0C7A  2D          XCH	A,R5
0C7B  71          ADDC	A,@R1
0C7C  25          EN	TCNTI
0C7D  11          INC	@R1
0C7E  0E          MOVD	A,P6
0C7F  31          XCHD	A,@R1
0C80  0B          DB	0BH
0C81  00          NOP
0C82  2C          XCH	A,R4
0C83  11          INC	@R1
0C84  1A          INC	R2
0C85  39          OUTL	P1,A
0C86  17          INC	A
0C87  08          INS	A,BUS
0C88  11          INC	@R1
0C89  1A          INC	R2
0C8A  39          OUTL	P1,A
0C8B  17          INC	A
0C8C  08          INS	A,BUS
0C8D  00          NOP
0C8E  2D          XCH	A,R5
0C8F  11          INC	@R1
0C90  04 91       JMP	0891H
0C92  29          XCH	A,R1
0C93  00          NOP
0C94  2C          XCH	A,R4
0C95  11          INC	@R1
0C96  1C          INC	R4
0C97  39          OUTL	P1,A
0C98  18          INC	R0
0C99  08          INS	A,BUS
0C9A  11          INC	@R1
0C9B  1C          INC	R4
0C9C  39          OUTL	P1,A
0C9D  18          INC	R0
0C9E  08          INS	A,BUS
0C9F  00          NOP
0CA0  2D          XCH	A,R5
0CA1  91          MOVX	@R1,A
0CA2  2B          XCH	A,R3
0CA3  11          INC	@R1
0CA4  0E          MOVD	A,P6
0CA5  31          XCHD	A,@R1
0CA6  0B          DB	0BH
0CA7  00          NOP
0CA8  2C          XCH	A,R4
0CA9  11          INC	@R1
0CAA  17          INC	A
0CAB  39          OUTL	P1,A
0CAC  13 08       ADDC	A,#08H
0CAE  11          INC	@R1
0CAF  17          INC	A
0CB0  39          OUTL	P1,A
0CB1  13 08       ADDC	A,#08H
0CB3  00          NOP
0CB4  2D          XCH	A,R5
0CB5  11          INC	@R1
0CB6  07          DEC	A
0CB7  91          MOVX	@R1,A
0CB8  29          XCH	A,R1
0CB9  00          NOP
0CBA  2C          XCH	A,R4
0CBB  11          INC	@R1
0CBC  1A          INC	R2
0CBD  39          OUTL	P1,A
0CBE  17          INC	A
0CBF  10          INC	@R0
0CC0  1A          INC	R2
0CC1  00          NOP
0CC2  2D          XCH	A,R5
0CC3  91          MOVX	@R1,A
0CC4  2B          XCH	A,R3
0CC5  11          INC	@R1
0CC6  0E          MOVD	A,P6
0CC7  31          XCHD	A,@R1
0CC8  0B          DB	0BH
0CC9  00          NOP
0CCA  2C          XCH	A,R4
0CCB  11          INC	@R1
0CCC  1A          INC	R2
0CCD  39          OUTL	P1,A
0CCE  17          INC	A
0CCF  08          INS	A,BUS
0CD0  11          INC	@R1
0CD1  1A          INC	R2
0CD2  39          OUTL	P1,A
0CD3  17          INC	A
0CD4  08          INS	A,BUS
0CD5  00          NOP
0CD6  2D          XCH	A,R5
0CD7  11          INC	@R1
0CD8  04 91       JMP	0891H
0CDA  29          XCH	A,R1
0CDB  00          NOP
0CDC  2C          XCH	A,R4
0CDD  11          INC	@R1
0CDE  1C          INC	R4
0CDF  39          OUTL	P1,A
0CE0  18          INC	R0
0CE1  08          INS	A,BUS
0CE2  11          INC	@R1
0CE3  1C          INC	R4
0CE4  39          OUTL	P1,A
0CE5  18          INC	R0
0CE6  08          INS	A,BUS
0CE7  00          NOP
0CE8  2D          XCH	A,R5
0CE9  91          MOVX	@R1,A
0CEA  2B          XCH	A,R3
0CEB  11          INC	@R1
0CEC  0E          MOVD	A,P6
0CED  31          XCHD	A,@R1
0CEE  0B          DB	0BH
0CEF  00          NOP
0CF0  2C          XCH	A,R4
0CF1  11          INC	@R1
0CF2  1F          INC	R7
0CF3  39          OUTL	P1,A
0CF4  17          INC	A
0CF5  08          INS	A,BUS
0CF6  11          INC	@R1
0CF7  1F          INC	R7
0CF8  39          OUTL	P1,A
0CF9  17          INC	A
0CFA  08          INS	A,BUS
0CFB  FF          MOV	A,R7
0CFC  FF          MOV	A,R7
0CFD  FF          MOV	A,R7
0CFE  FF          MOV	A,R7
0CFF  FF          MOV	A,R7
0D00  FF          MOV	A,R7
0D01  A3          MOVP	A,@A
0D02  AE          MOV	R6,A
0D03  1F          INC	R7
0D04  FF          MOV	A,R7
0D05  A3          MOVP	A,@A
0D06  AD          MOV	R5,A
0D07  C6 0F       JZ	050FH
0D09  47          SWAP	A
0D0A  53 0F       ANL	A,#0FH
0D0C  A8          MOV	R0,A
0D0D  BC 00       MOV	R4,#00H
0D0F  1F          INC	R7
0D10  FF          MOV	A,R7
0D11  A3          MOVP	A,@A
0D12  54 00       CALL	0A00H
0D14  FD          MOV	A,R5
0D15  43 08       ORL	A,#08H
0D17  74 2F       CALL	0B2FH
0D19  FD          MOV	A,R5
0D1A  53 08       ANL	A,#08H
0D1C  C6 2C       JZ	052CH
0D1E  1F          INC	R7
0D1F  FF          MOV	A,R7
0D20  A3          MOVP	A,@A
0D21  AB          MOV	R3,A
0D22  23 00       MOV	A,#00H
0D24  62          MOV	T,A
0D25  55          STRT	T
0D26  16 2A       JTF	052AH
0D28  A4 26       JMP	0D26H
0D2A  EB 22       DJNZ	R3,0522H
0D2C  EE 03       DJNZ	R6,0503H
0D2E  83          RET
0D2F  06          DB	06H
0D30  00          NOP
0D31  2D          XCH	A,R5
0D32  11          INC	@R1
0D33  09          IN	A,P1
0D34  91          MOVX	@R1,A
0D35  29          XCH	A,R1
0D36  00          NOP
0D37  2C          XCH	A,R4
0D38  11          INC	@R1
0D39  1E          INC	R6
0D3A  39          OUTL	P1,A
0D3B  15          DIS	I
0D3C  10          INC	@R0
0D3D  41          ORL	A,@R1
0D3E  00          NOP
0D3F  2C          XCH	A,R4
0D40  72 24       JB3	0524H
0D42  72 25       JB3	0525H
0D44  A2          DB	A2H
0D45  29          XCH	A,R1
0D46  00          NOP
0D47  2D          XCH	A,R5
0D48  71          ADDC	A,@R1
0D49  24 71       JMP	0971H
0D4B  25          EN	TCNTI
0D4C  A1          MOV	@R1,A
0D4D  29          XCH	A,R1
0D4E  00          NOP
0D4F  2C          XCH	A,R4
0D50  12 17       JB0	0517H
0D52  32 13       JB1	0513H
0D54  00          NOP
0D55  2D          XCH	A,R5
0D56  11          INC	@R1
0D57  07          DEC	A
0D58  99 29       ANL	P1,#29H
0D5A  10          INC	@R0
0D5B  91          MOVX	@R1,A
0D5C  2B          XCH	A,R3
0D5D  11          INC	@R1
0D5E  0E          MOVD	A,P6
0D5F  39          OUTL	P1,A
0D60  0B          DB	0BH
0D61  10          INC	@R0
0D62  11          INC	@R1
0D63  04 99       JMP	0899H
0D65  29          XCH	A,R1
0D66  10          INC	@R0
0D67  91          MOVX	@R1,A
0D68  2B          XCH	A,R3
0D69  00          NOP
0D6A  2C          XCH	A,R4
0D6B  12 1A       JB0	051AH
0D6D  32 17       JB1	0517H
0D6F  00          NOP
0D70  2D          XCH	A,R5
0D71  11          INC	@R1
0D72  0E          MOVD	A,P6
0D73  39          OUTL	P1,A
0D74  0B          DB	0BH
0D75  10          INC	@R0
0D76  00          NOP
0D77  2C          XCH	A,R4
0D78  12 22       JB0	0522H
0D7A  32 1A       JB1	051AH
0D7C  00          NOP
0D7D  2D          XCH	A,R5
0D7E  11          INC	@R1
0D7F  07          DEC	A
0D80  99 29       ANL	P1,#29H
0D82  10          INC	@R0
0D83  91          MOVX	@R1,A
0D84  2B          XCH	A,R3
0D85  11          INC	@R1
0D86  0E          MOVD	A,P6
0D87  39          OUTL	P1,A
0D88  0B          DB	0BH
0D89  10          INC	@R0
0D8A  11          INC	@R1
0D8B  04 99       JMP	0899H
0D8D  29          XCH	A,R1
0D8E  10          INC	@R0
0D8F  91          MOVX	@R1,A
0D90  2B          XCH	A,R3
0D91  00          NOP
0D92  2C          XCH	A,R4
0D93  12 21       JB0	0521H
0D95  32 18       JB1	0518H
0D97  00          NOP
0D98  2D          XCH	A,R5
0D99  11          INC	@R1
0D9A  0E          MOVD	A,P6
0D9B  39          OUTL	P1,A
0D9C  0B          DB	0BH
0D9D  10          INC	@R0
0D9E  00          NOP
0D9F  2C          XCH	A,R4
0DA0  12 21       JB0	0521H
0DA2  32 18       JB1	0518H
0DA4  00          NOP
0DA5  2D          XCH	A,R5
0DA6  11          INC	@R1
0DA7  07          DEC	A
0DA8  99 29       ANL	P1,#29H
0DAA  10          INC	@R0
0DAB  91          MOVX	@R1,A
0DAC  2B          XCH	A,R3
0DAD  11          INC	@R1
0DAE  0E          MOVD	A,P6
0DAF  39          OUTL	P1,A
0DB0  0B          DB	0BH
0DB1  10          INC	@R0
0DB2  00          NOP
0DB3  2C          XCH	A,R4
0DB4  12 1F       JB0	051FH
0DB6  32 17       JB1	0517H
0DB8  00          NOP
0DB9  2D          XCH	A,R5
0DBA  11          INC	@R1
0DBB  04 99       JMP	0899H
0DBD  29          XCH	A,R1
0DBE  10          INC	@R0
0DBF  91          MOVX	@R1,A
0DC0  2B          XCH	A,R3
0DC1  11          INC	@R1
0DC2  0E          MOVD	A,P6
0DC3  39          OUTL	P1,A
0DC4  0B          DB	0BH
0DC5  10          INC	@R0
0DC6  11          INC	@R1
0DC7  07          DEC	A
0DC8  99 29       ANL	P1,#29H
0DCA  10          INC	@R0
0DCB  91          MOVX	@R1,A
0DCC  2B          XCH	A,R3
0DCD  13 00       ADDC	A,#00H
0DCF  2C          XCH	A,R4
0DD0  11          INC	@R1
0DD1  1A          INC	R2
0DD2  31          XCHD	A,@R1
0DD3  17          INC	A
0DD4  00          NOP
0DD5  2D          XCH	A,R5
0DD6  11          INC	@R1
0DD7  0E          MOVD	A,P6
0DD8  39          OUTL	P1,A
0DD9  0B          DB	0BH
0DDA  10          INC	@R0
0DDB  00          NOP
0DDC  2C          XCH	A,R4
0DDD  11          INC	@R1
0DDE  19          INC	R1
0DDF  31          XCHD	A,@R1
0DE0  16 00       JTF	0500H
0DE2  2D          XCH	A,R5
0DE3  11          INC	@R1
0DE4  04 99       JMP	0899H
0DE6  29          XCH	A,R1
0DE7  10          INC	@R0
0DE8  91          MOVX	@R1,A
0DE9  2B          XCH	A,R3
0DEA  00          NOP
0DEB  2C          XCH	A,R4
0DEC  11          INC	@R1
0DED  18          INC	R0
0DEE  31          XCHD	A,@R1
0DEF  15          DIS	I
0DF0  00          NOP
0DF1  2D          XCH	A,R5
0DF2  11          INC	@R1
0DF3  0E          MOVD	A,P6
0DF4  39          OUTL	P1,A
0DF5  0B          DB	0BH
0DF6  10          INC	@R0
0DF7  FF          MOV	A,R7
0DF8  FF          MOV	A,R7
0DF9  FF          MOV	A,R7
0DFA  FF          MOV	A,R7
0DFB  FF          MOV	A,R7
0DFC  FF          MOV	A,R7
0DFD  FF          MOV	A,R7
0DFE  FF          MOV	A,R7
0DFF  FF          MOV	A,R7
0E00  FF          MOV	A,R7
0E01  A3          MOVP	A,@A
0E02  AE          MOV	R6,A
0E03  1F          INC	R7
0E04  FF          MOV	A,R7
0E05  A3          MOVP	A,@A
0E06  AD          MOV	R5,A
0E07  C6 0F       JZ	060FH
0E09  47          SWAP	A
0E0A  53 0F       ANL	A,#0FH
0E0C  A8          MOV	R0,A
0E0D  BC 00       MOV	R4,#00H
0E0F  1F          INC	R7
0E10  FF          MOV	A,R7
0E11  A3          MOVP	A,@A
0E12  54 00       CALL	0A00H
0E14  FD          MOV	A,R5
0E15  43 08       ORL	A,#08H
0E17  74 2F       CALL	0B2FH
0E19  FD          MOV	A,R5
0E1A  53 08       ANL	A,#08H
0E1C  C6 2C       JZ	062CH
0E1E  1F          INC	R7
0E1F  FF          MOV	A,R7
0E20  A3          MOVP	A,@A
0E21  AB          MOV	R3,A
0E22  23 00       MOV	A,#00H
0E24  62          MOV	T,A
0E25  55          STRT	T
0E26  16 2A       JTF	062AH
0E28  C4 26       JMP	0E26H
0E2A  EB 22       DJNZ	R3,0622H
0E2C  EE 03       DJNZ	R6,0603H
0E2E  83          RET
0E2F  3E          MOVD	P6,A
0E30  00          NOP
0E31  2C          XCH	A,R4
0E32  12 17       JB0	0617H
0E34  32 13       JB1	0613H
0E36  00          NOP
0E37  2D          XCH	A,R5
0E38  11          INC	@R1
0E39  07          DEC	A
0E3A  99 29       ANL	P1,#29H
0E3C  10          INC	@R0
0E3D  91          MOVX	@R1,A
0E3E  2B          XCH	A,R3
0E3F  11          INC	@R1
0E40  0E          MOVD	A,P6
0E41  39          OUTL	P1,A
0E42  0B          DB	0BH
0E43  10          INC	@R0
0E44  11          INC	@R1
0E45  04 99       JMP	0899H
0E47  29          XCH	A,R1
0E48  10          INC	@R0
0E49  91          MOVX	@R1,A
0E4A  2B          XCH	A,R3
0E4B  00          NOP
0E4C  2C          XCH	A,R4
0E4D  12 1A       JB0	061AH
0E4F  32 17       JB1	0617H
0E51  00          NOP
0E52  2D          XCH	A,R5
0E53  11          INC	@R1
0E54  0E          MOVD	A,P6
0E55  39          OUTL	P1,A
0E56  0B          DB	0BH
0E57  10          INC	@R0
0E58  00          NOP
0E59  2C          XCH	A,R4
0E5A  12 21       JB0	0621H
0E5C  32 1A       JB1	061AH
0E5E  00          NOP
0E5F  2D          XCH	A,R5
0E60  11          INC	@R1
0E61  07          DEC	A
0E62  99 29       ANL	P1,#29H
0E64  10          INC	@R0
0E65  91          MOVX	@R1,A
0E66  2B          XCH	A,R3
0E67  11          INC	@R1
0E68  0E          MOVD	A,P6
0E69  39          OUTL	P1,A
0E6A  0B          DB	0BH
0E6B  10          INC	@R0
0E6C  11          INC	@R1
0E6D  04 99       JMP	0899H
0E6F  29          XCH	A,R1
0E70  10          INC	@R0
0E71  91          MOVX	@R1,A
0E72  2B          XCH	A,R3
0E73  00          NOP
0E74  2C          XCH	A,R4
0E75  12 1F       JB0	061FH
0E77  32 17       JB1	0617H
0E79  00          NOP
0E7A  2D          XCH	A,R5
0E7B  11          INC	@R1
0E7C  0E          MOVD	A,P6
0E7D  39          OUTL	P1,A
0E7E  0B          DB	0BH
0E7F  10          INC	@R0
0E80  00          NOP
0E81  2C          XCH	A,R4
0E82  12 1E       JB0	061EH
0E84  32 18       JB1	0618H
0E86  72 26       JB3	0626H
0E88  52 15       JB2	0615H
0E8A  00          NOP
0E8B  2D          XCH	A,R5
0E8C  11          INC	@R1
0E8D  09          IN	A,P1
0E8E  99 29       ANL	P1,#29H
0E90  10          INC	@R0
0E91  00          NOP
0E92  2C          XCH	A,R4
0E93  A2          DB	A2H
0E94  29          XCH	A,R1
0E95  00          NOP
0E96  2D          XCH	A,R5
0E97  91          MOVX	@R1,A
0E98  2B          XCH	A,R3
0E99  11          INC	@R1
0E9A  0E          MOVD	A,P6
0E9B  39          OUTL	P1,A
0E9C  0C          MOVD	A,P4
0E9D  10          INC	@R0
0E9E  11          INC	@R1
0E9F  04 99       JMP	0899H
0EA1  29          XCH	A,R1
0EA2  10          INC	@R0
0EA3  91          MOVX	@R1,A
0EA4  2B          XCH	A,R3
0EA5  11          INC	@R1
0EA6  0E          MOVD	A,P6
0EA7  39          OUTL	P1,A
0EA8  0C          MOVD	A,P4
0EA9  10          INC	@R0
0EAA  11          INC	@R1
0EAB  09          IN	A,P1
0EAC  99 29       ANL	P1,#29H
0EAE  10          INC	@R0
0EAF  81          MOVX	A,@R1
0EB0  29          XCH	A,R1
0EB1  00          NOP
0EB2  2C          XCH	A,R4
0EB3  11          INC	@R1
0EB4  29          XCH	A,R1
0EB5  31          XCHD	A,@R1
0EB6  29          XCH	A,R1
0EB7  51          ANL	@R1
0EB8  29          XCH	A,R1
0EB9  18          INC	R0
0EBA  00          NOP
0EBB  2C          XCH	A,R4
0EBC  11          INC	@R1
0EBD  2A          XCH	A,R2
0EBE  31          XCHD	A,@R1
0EBF  2A          XCH	A,R2
0EC0  51          ANL	@R1
0EC1  2A          XCH	A,R2
0EC2  11          INC	@R1
0EC3  1C          INC	R4
0EC4  31          XCHD	A,@R1
0EC5  18          INC	R0
0EC6  00          NOP
0EC7  2D          XCH	A,R5
0EC8  81          MOVX	A,@R1
0EC9  2B          XCH	A,R3
0ECA  91          MOVX	@R1,A
0ECB  2B          XCH	A,R3
0ECC  11          INC	@R1
0ECD  0E          MOVD	A,P6
0ECE  39          OUTL	P1,A
0ECF  0C          MOVD	A,P4
0ED0  10          INC	@R0
0ED1  00          NOP
0ED2  2C          XCH	A,R4
0ED3  11          INC	@R1
0ED4  1B          INC	R3
0ED5  31          XCHD	A,@R1
0ED6  17          INC	A
0ED7  00          NOP
0ED8  2D          XCH	A,R5
0ED9  11          INC	@R1
0EDA  04 99       JMP	0899H
0EDC  29          XCH	A,R1
0EDD  10          INC	@R0
0EDE  91          MOVX	@R1,A
0EDF  2B          XCH	A,R3
0EE0  00          NOP
0EE1  2C          XCH	A,R4
0EE2  11          INC	@R1
0EE3  1A          INC	R2
0EE4  31          XCHD	A,@R1
0EE5  16 00       JTF	0600H
0EE7  2D          XCH	A,R5
0EE8  11          INC	@R1
0EE9  0E          MOVD	A,P6
0EEA  39          OUTL	P1,A
0EEB  0C          MOVD	A,P4
0EEC  10          INC	@R0
0EED  05          EN	I
0EEE  00          NOP
0EEF  2C          XCH	A,R4
0EF0  71          ADDC	A,@R1
0EF1  24 01       JMP	0901H
0EF3  29          XCH	A,R1
0EF4  A1          MOV	@R1,A
0EF5  29          XCH	A,R1
0EF6  18          INC	R0
0EF7  23 FF       MOV	A,#FFH
0EF9  FF          MOV	A,R7
0EFA  FF          MOV	A,R7
0EFB  FF          MOV	A,R7
0EFC  FF          MOV	A,R7
0EFD  FF          MOV	A,R7
0EFE  FF          MOV	A,R7
0EFF  FF          MOV	A,R7
0F00  FF          MOV	A,R7
0F01  A3          MOVP	A,@A
0F02  AE          MOV	R6,A
0F03  1F          INC	R7
0F04  FF          MOV	A,R7
0F05  A3          MOVP	A,@A
0F06  AD          MOV	R5,A
0F07  C6 0F       JZ	070FH
0F09  47          SWAP	A
0F0A  53 0F       ANL	A,#0FH
0F0C  A8          MOV	R0,A
0F0D  BC 00       MOV	R4,#00H
0F0F  1F          INC	R7
0F10  FF          MOV	A,R7
0F11  A3          MOVP	A,@A
0F12  54 00       CALL	0A00H
0F14  FD          MOV	A,R5
0F15  43 08       ORL	A,#08H
0F17  74 2F       CALL	0B2FH
0F19  FD          MOV	A,R5
0F1A  53 08       ANL	A,#08H
0F1C  C6 2C       JZ	072CH
0F1E  1F          INC	R7
0F1F  FF          MOV	A,R7
0F20  A3          MOVP	A,@A
0F21  AB          MOV	R3,A
0F22  23 00       MOV	A,#00H
0F24  62          MOV	T,A
0F25  55          STRT	T
0F26  16 2A       JTF	072AH
0F28  E4 26       JMP	0F26H
0F2A  EB 22       DJNZ	R3,0722H
0F2C  EE 03       DJNZ	R6,0703H
0F2E  83          RET
0F2F  43 00       ORL	A,#00H
0F31  2C          XCH	A,R4
0F32  12 18       JB0	0718H
0F34  32 12       JB1	0712H
0F36  00          NOP
0F37  2D          XCH	A,R5
0F38  11          INC	@R1
0F39  09          IN	A,P1
0F3A  99 29       ANL	P1,#29H
0F3C  10          INC	@R0
0F3D  91          MOVX	@R1,A
0F3E  2B          XCH	A,R3
0F3F  11          INC	@R1
0F40  0E          MOVD	A,P6
0F41  39          OUTL	P1,A
0F42  0C          MOVD	A,P4
0F43  10          INC	@R0
0F44  11          INC	@R1
0F45  04 99       JMP	0899H
0F47  29          XCH	A,R1
0F48  10          INC	@R0
0F49  91          MOVX	@R1,A
0F4A  2B          XCH	A,R3
0F4B  00          NOP
0F4C  2C          XCH	A,R4
0F4D  12 1A       JB0	071AH
0F4F  32 15       JB1	0715H
0F51  00          NOP
0F52  2D          XCH	A,R5
0F53  11          INC	@R1
0F54  0E          MOVD	A,P6
0F55  39          OUTL	P1,A
0F56  0C          MOVD	A,P4
0F57  10          INC	@R0
0F58  00          NOP
0F59  2C          XCH	A,R4
0F5A  12 21       JB0	0721H
0F5C  32 18       JB1	0718H
0F5E  00          NOP
0F5F  2D          XCH	A,R5
0F60  11          INC	@R1
0F61  09          IN	A,P1
0F62  99 29       ANL	P1,#29H
0F64  10          INC	@R0
0F65  91          MOVX	@R1,A
0F66  2B          XCH	A,R3
0F67  11          INC	@R1
0F68  0E          MOVD	A,P6
0F69  39          OUTL	P1,A
0F6A  0C          MOVD	A,P4
0F6B  10          INC	@R0
0F6C  11          INC	@R1
0F6D  04 99       JMP	0899H
0F6F  29          XCH	A,R1
0F70  10          INC	@R0
0F71  91          MOVX	@R1,A
0F72  2B          XCH	A,R3
0F73  00          NOP
0F74  2C          XCH	A,R4
0F75  12 1F       JB0	071FH
0F77  32 17       JB1	0717H
0F79  00          NOP
0F7A  2D          XCH	A,R5
0F7B  11          INC	@R1
0F7C  0E          MOVD	A,P6
0F7D  39          OUTL	P1,A
0F7E  0C          MOVD	A,P4
0F7F  10          INC	@R0
0F80  00          NOP
0F81  2C          XCH	A,R4
0F82  12 1F       JB0	071FH
0F84  32 17       JB1	0717H
0F86  00          NOP
0F87  2D          XCH	A,R5
0F88  11          INC	@R1
0F89  09          IN	A,P1
0F8A  99 29       ANL	P1,#29H
0F8C  10          INC	@R0
0F8D  91          MOVX	@R1,A
0F8E  2B          XCH	A,R3
0F8F  11          INC	@R1
0F90  0E          MOVD	A,P6
0F91  39          OUTL	P1,A
0F92  0C          MOVD	A,P4
0F93  10          INC	@R0
0F94  00          NOP
0F95  2C          XCH	A,R4
0F96  12 1E       JB0	071EH
0F98  32 15       JB1	0715H
0F9A  00          NOP
0F9B  2D          XCH	A,R5
0F9C  11          INC	@R1
0F9D  04 99       JMP	0899H
0F9F  29          XCH	A,R1
0FA0  10          INC	@R0
0FA1  91          MOVX	@R1,A
0FA2  2B          XCH	A,R3
0FA3  00          NOP
0FA4  2C          XCH	A,R4
0FA5  12 1E       JB0	071EH
0FA7  32 15       JB1	0715H
0FA9  00          NOP
0FAA  2D          XCH	A,R5
0FAB  11          INC	@R1
0FAC  0E          MOVD	A,P6
0FAD  39          OUTL	P1,A
0FAE  0C          MOVD	A,P4
0FAF  10          INC	@R0
0FB0  11          INC	@R1
0FB1  09          IN	A,P1
0FB2  99 29       ANL	P1,#29H
0FB4  10          INC	@R0
0FB5  91          MOVX	@R1,A
0FB6  2B          XCH	A,R3
0FB7  00          NOP
0FB8  2C          XCH	A,R4
0FB9  12 21       JB0	0721H
0FBB  32 18       JB1	0718H
0FBD  00          NOP
0FBE  2D          XCH	A,R5
0FBF  11          INC	@R1
0FC0  0E          MOVD	A,P6
0FC1  39          OUTL	P1,A
0FC2  0C          MOVD	A,P4
0FC3  10          INC	@R0
0FC4  FF          MOV	A,R7
0FC5  FF          MOV	A,R7
0FC6  FF          MOV	A,R7
0FC7  FF          MOV	A,R7
0FC8  FF          MOV	A,R7
0FC9  FF          MOV	A,R7
0FCA  FF          MOV	A,R7
0FCB  FF          MOV	A,R7
0FCC  FF          MOV	A,R7
0FCD  FF          MOV	A,R7
0FCE  FF          MOV	A,R7
0FCF  FF          MOV	A,R7
0FD0  FF          MOV	A,R7
0FD1  FF          MOV	A,R7
0FD2  FF          MOV	A,R7
0FD3  FF          MOV	A,R7
0FD4  FF          MOV	A,R7
0FD5  FF          MOV	A,R7
0FD6  FF          MOV	A,R7
0FD7  FF          MOV	A,R7
0FD8  FF          MOV	A,R7
0FD9  FF          MOV	A,R7
0FDA  FF          MOV	A,R7
0FDB  FF          MOV	A,R7
0FDC  FF          MOV	A,R7
0FDD  FF          MOV	A,R7
0FDE  FF          MOV	A,R7
0FDF  FF          MOV	A,R7
0FE0  FF          MOV	A,R7
0FE1  FF          MOV	A,R7
0FE2  FF          MOV	A,R7
0FE3  FF          MOV	A,R7
0FE4  FF          MOV	A,R7
0FE5  FF          MOV	A,R7
0FE6  FF          MOV	A,R7
0FE7  FF          MOV	A,R7
0FE8  FF          MOV	A,R7
0FE9  FF          MOV	A,R7
0FEA  FF          MOV	A,R7
0FEB  FF          MOV	A,R7
0FEC  FF          MOV	A,R7
0FED  FF          MOV	A,R7
0FEE  FF          MOV	A,R7
0FEF  FF          MOV	A,R7
0FF0  FF          MOV	A,R7
0FF1  FF          MOV	A,R7
0FF2  FF          MOV	A,R7
0FF3  FF          MOV	A,R7
0FF4  FF          MOV	A,R7
0FF5  FF          MOV	A,R7
0FF6  FF          MOV	A,R7
0FF7  FF          MOV	A,R7
0FF8  FF          MOV	A,R7
0FF9  FF          MOV	A,R7
0FFA  FF          MOV	A,R7
0FFB  FF          MOV	A,R7
0FFC  FF          MOV	A,R7
0FFD  FF          MOV	A,R7
0FFE  FF          MOV	A,R7
0FFF  FF          MOV	A,R7
1000  5A          ANL	A,R2
1001  00          NOP
1002  00          NOP
1003  EA 85       DJNZ	R2,0085H
1005  FF          MOV	A,R7
1006  FF          MOV	A,R7
1007  FF          MOV	A,R7
1008  FF          MOV	A,R7
1009  FF          MOV	A,R7
100A  FF          MOV	A,R7
100B  FF          MOV	A,R7
100C  FF          MOV	A,R7
100D  FF          MOV	A,R7
100E  FF          MOV	A,R7
100F  FF          MOV	A,R7
1010  FF          MOV	A,R7
1011  FF          MOV	A,R7
1012  FF          MOV	A,R7
1013  FF          MOV	A,R7
1014  FF          MOV	A,R7
1015  FF          MOV	A,R7
1016  FF          MOV	A,R7
1017  FF          MOV	A,R7
1018  FF          MOV	A,R7
1019  FF          MOV	A,R7
101A  FF          MOV	A,R7
101B  FF          MOV	A,R7
101C  FF          MOV	A,R7
101D  FF          MOV	A,R7
101E  FF          MOV	A,R7
101F  FF          MOV	A,R7
1020  FF          MOV	A,R7
1021  FF          MOV	A,R7
1022  FF          MOV	A,R7
1023  FF          MOV	A,R7
1024  FF          MOV	A,R7
1025  FF          MOV	A,R7
1026  FF          MOV	A,R7
1027  FF          MOV	A,R7
1028  FF          MOV	A,R7
1029  FF          MOV	A,R7
102A  FF          MOV	A,R7
102B  FF          MOV	A,R7
102C  FF          MOV	A,R7
102D  FF          MOV	A,R7
102E  FF          MOV	A,R7
102F  FF          MOV	A,R7
1030  FF          MOV	A,R7
1031  FF          MOV	A,R7
1032  FF          MOV	A,R7
1033  FF          MOV	A,R7
1034  FF          MOV	A,R7
1035  FF          MOV	A,R7
1036  FF          MOV	A,R7
1037  FF          MOV	A,R7
1038  FF          MOV	A,R7
1039  FF          MOV	A,R7
103A  FF          MOV	A,R7
103B  FF          MOV	A,R7
103C  FF          MOV	A,R7
103D  FF          MOV	A,R7
103E  FF          MOV	A,R7
103F  FF          MOV	A,R7
1040  FF          MOV	A,R7
1041  FF          MOV	A,R7
1042  FF          MOV	A,R7
1043  FF          MOV	A,R7
1044  FF          MOV	A,R7
1045  FF          MOV	A,R7
1046  FF          MOV	A,R7
1047  FF          MOV	A,R7
1048  FF          MOV	A,R7
1049  FF          MOV	A,R7
104A  FF          MOV	A,R7
104B  FF          MOV	A,R7
104C  FF          MOV	A,R7
104D  FF          MOV	A,R7
104E  FF          MOV	A,R7
104F  FF          MOV	A,R7
1050  FF          MOV	A,R7
1051  FF          MOV	A,R7
1052  FF          MOV	A,R7
1053  FF          MOV	A,R7
1054  FF          MOV	A,R7
1055  FF          MOV	A,R7
1056  FF          MOV	A,R7
1057  FF          MOV	A,R7
1058  FF          MOV	A,R7
1059  FF          MOV	A,R7
105A  FF          MOV	A,R7
105B  FF          MOV	A,R7
105C  FF          MOV	A,R7
105D  FF          MOV	A,R7
105E  FF          MOV	A,R7
105F  FF          MOV	A,R7
1060  FF          MOV	A,R7
1061  FF          MOV	A,R7
1062  FF          MOV	A,R7
1063  FF          MOV	A,R7
1064  FF          MOV	A,R7
1065  FF          MOV	A,R7
1066  FF          MOV	A,R7
1067  FF          MOV	A,R7
1068  FF          MOV	A,R7
1069  FF          MOV	A,R7
106A  FF          MOV	A,R7
106B  FF          MOV	A,R7
106C  FF          MOV	A,R7
106D  FF          MOV	A,R7
106E  FF          MOV	A,R7
106F  FF          MOV	A,R7
1070  FF          MOV	A,R7
1071  FF          MOV	A,R7
1072  FF          MOV	A,R7
1073  FF          MOV	A,R7
1074  FF          MOV	A,R7
1075  FF          MOV	A,R7
1076  FF          MOV	A,R7
1077  FF          MOV	A,R7
1078  FF          MOV	A,R7
1079  FF          MOV	A,R7
107A  FF          MOV	A,R7
107B  FF          MOV	A,R7
107C  FF          MOV	A,R7
107D  FF          MOV	A,R7
107E  FF          MOV	A,R7
107F  FF          MOV	A,R7
1080  FF          MOV	A,R7
1081  FF          MOV	A,R7
1082  FF          MOV	A,R7
1083  FF          MOV	A,R7
1084  FF          MOV	A,R7
1085  FF          MOV	A,R7
1086  FF          MOV	A,R7
1087  FF          MOV	A,R7
1088  FF          MOV	A,R7
1089  FF          MOV	A,R7
108A  FF          MOV	A,R7
108B  FF          MOV	A,R7
108C  FF          MOV	A,R7
108D  FF          MOV	A,R7
108E  FF          MOV	A,R7
108F  FF          MOV	A,R7
1090  FF          MOV	A,R7
1091  FF          MOV	A,R7
1092  FF          MOV	A,R7
1093  FF          MOV	A,R7
1094  FF          MOV	A,R7
1095  FF          MOV	A,R7
1096  FF          MOV	A,R7
1097  FF          MOV	A,R7
1098  FF          MOV	A,R7
1099  FF          MOV	A,R7
109A  FF          MOV	A,R7
109B  FF          MOV	A,R7
109C  FF          MOV	A,R7
109D  FF          MOV	A,R7
109E  FF          MOV	A,R7
109F  FF          MOV	A,R7
10A0  FF          MOV	A,R7
10A1  FF          MOV	A,R7
10A2  FF          MOV	A,R7
10A3  FF          MOV	A,R7
10A4  FF          MOV	A,R7
10A5  FF          MOV	A,R7
10A6  FF          MOV	A,R7
10A7  FF          MOV	A,R7
10A8  FF          MOV	A,R7
10A9  FF          MOV	A,R7
10AA  FF          MOV	A,R7
10AB  FF          MOV	A,R7
10AC  FF          MOV	A,R7
10AD  FF          MOV	A,R7
10AE  FF          MOV	A,R7
10AF  FF          MOV	A,R7
10B0  FF          MOV	A,R7
10B1  FF          MOV	A,R7
10B2  FF          MOV	A,R7
10B3  FF          MOV	A,R7
10B4  FF          MOV	A,R7
10B5  FF          MOV	A,R7
10B6  FF          MOV	A,R7
10B7  FF          MOV	A,R7
10B8  FF          MOV	A,R7
10B9  FF          MOV	A,R7
10BA  FF          MOV	A,R7
10BB  FF          MOV	A,R7
10BC  FF          MOV	A,R7
10BD  FF          MOV	A,R7
10BE  FF          MOV	A,R7
10BF  FF          MOV	A,R7
10C0  FF          MOV	A,R7
10C1  FF          MOV	A,R7
10C2  FF          MOV	A,R7
10C3  FF          MOV	A,R7
10C4  FF          MOV	A,R7
10C5  FF          MOV	A,R7
10C6  FF          MOV	A,R7
10C7  FF          MOV	A,R7
10C8  FF          MOV	A,R7
10C9  FF          MOV	A,R7
10CA  FF          MOV	A,R7
10CB  FF          MOV	A,R7
10CC  FF          MOV	A,R7
10CD  FF          MOV	A,R7
10CE  FF          MOV	A,R7
10CF  FF          MOV	A,R7
10D0  FF          MOV	A,R7
10D1  FF          MOV	A,R7
10D2  FF          MOV	A,R7
10D3  FF          MOV	A,R7
10D4  FF          MOV	A,R7
10D5  FF          MOV	A,R7
10D6  FF          MOV	A,R7
10D7  FF          MOV	A,R7
10D8  FF          MOV	A,R7
10D9  FF          MOV	A,R7
10DA  FF          MOV	A,R7
10DB  FF          MOV	A,R7
10DC  FF          MOV	A,R7
10DD  FF          MOV	A,R7
10DE  FF          MOV	A,R7
10DF  FF          MOV	A,R7
10E0  FF          MOV	A,R7
10E1  FF          MOV	A,R7
10E2  FF          MOV	A,R7
10E3  FF          MOV	A,R7
10E4  FF          MOV	A,R7
10E5  FF          MOV	A,R7
10E6  FF          MOV	A,R7
10E7  FF          MOV	A,R7
10E8  FF          MOV	A,R7
10E9  FF          MOV	A,R7
10EA  FF          MOV	A,R7
10EB  FF          MOV	A,R7
10EC  FF          MOV	A,R7
10ED  FF          MOV	A,R7
10EE  FF          MOV	A,R7
10EF  FF          MOV	A,R7
10F0  FF          MOV	A,R7
10F1  FF          MOV	A,R7
10F2  FF          MOV	A,R7
10F3  FF          MOV	A,R7
10F4  FF          MOV	A,R7
10F5  FF          MOV	A,R7
10F6  FF          MOV	A,R7
10F7  FF          MOV	A,R7
10F8  FF          MOV	A,R7
10F9  FF          MOV	A,R7
10FA  FF          MOV	A,R7
10FB  FF          MOV	A,R7
10FC  FF          MOV	A,R7
10FD  FF          MOV	A,R7
10FE  FF          MOV	A,R7
10FF  FF          MOV	A,R7
1100  FF          MOV	A,R7
1101  FF          MOV	A,R7
1102  FF          MOV	A,R7
1103  FF          MOV	A,R7
1104  FF          MOV	A,R7
1105  FF          MOV	A,R7
1106  FF          MOV	A,R7
1107  FF          MOV	A,R7
1108  FF          MOV	A,R7
1109  FF          MOV	A,R7
110A  FF          MOV	A,R7
110B  FF          MOV	A,R7
110C  FF          MOV	A,R7
110D  FF          MOV	A,R7
110E  FF          MOV	A,R7
110F  FF          MOV	A,R7
1110  FF          MOV	A,R7
1111  FF          MOV	A,R7
1112  FF          MOV	A,R7
1113  FF          MOV	A,R7
1114  FF          MOV	A,R7
1115  FF          MOV	A,R7
1116  FF          MOV	A,R7
1117  FF          MOV	A,R7
1118  FF          MOV	A,R7
1119  FF          MOV	A,R7
111A  FF          MOV	A,R7
111B  FF          MOV	A,R7
111C  FF          MOV	A,R7
111D  FF          MOV	A,R7
111E  FF          MOV	A,R7
111F  FF          MOV	A,R7
1120  FF          MOV	A,R7
1121  FF          MOV	A,R7
1122  FF          MOV	A,R7
1123  FF          MOV	A,R7
1124  FF          MOV	A,R7
1125  FF          MOV	A,R7
1126  FF          MOV	A,R7
1127  FF          MOV	A,R7
1128  FF          MOV	A,R7
1129  FF          MOV	A,R7
112A  FF          MOV	A,R7
112B  FF          MOV	A,R7
112C  FF          MOV	A,R7
112D  FF          MOV	A,R7
112E  FF          MOV	A,R7
112F  FF          MOV	A,R7
1130  FF          MOV	A,R7
1131  FF          MOV	A,R7
1132  FF          MOV	A,R7
1133  FF          MOV	A,R7
1134  FF          MOV	A,R7
1135  FF          MOV	A,R7
1136  FF          MOV	A,R7
1137  FF          MOV	A,R7
1138  FF          MOV	A,R7
1139  FF          MOV	A,R7
113A  FF          MOV	A,R7
113B  FF          MOV	A,R7
113C  FF          MOV	A,R7
113D  FF          MOV	A,R7
113E  FF          MOV	A,R7
113F  FF          MOV	A,R7
1140  FF          MOV	A,R7
1141  FF          MOV	A,R7
1142  FF          MOV	A,R7
1143  FF          MOV	A,R7
1144  FF          MOV	A,R7
1145  FF          MOV	A,R7
1146  FF          MOV	A,R7
1147  FF          MOV	A,R7
1148  FF          MOV	A,R7
1149  FF          MOV	A,R7
114A  FF          MOV	A,R7
114B  FF          MOV	A,R7
114C  FF          MOV	A,R7
114D  FF          MOV	A,R7
114E  FF          MOV	A,R7
114F  FF          MOV	A,R7
1150  FF          MOV	A,R7
1151  FF          MOV	A,R7
1152  FF          MOV	A,R7
1153  FF          MOV	A,R7
1154  FF          MOV	A,R7
1155  FF          MOV	A,R7
1156  FF          MOV	A,R7
1157  FF          MOV	A,R7
1158  FF          MOV	A,R7
1159  FF          MOV	A,R7
115A  FF          MOV	A,R7
115B  FF          MOV	A,R7
115C  FF          MOV	A,R7
115D  FF          MOV	A,R7
115E  FF          MOV	A,R7
115F  FF          MOV	A,R7
1160  FF          MOV	A,R7
1161  FF          MOV	A,R7
1162  FF          MOV	A,R7
1163  FF          MOV	A,R7
1164  FF          MOV	A,R7
1165  FF          MOV	A,R7
1166  FF          MOV	A,R7
1167  FF          MOV	A,R7
1168  FF          MOV	A,R7
1169  FF          MOV	A,R7
116A  FF          MOV	A,R7
116B  FF          MOV	A,R7
116C  FF          MOV	A,R7
116D  FF          MOV	A,R7
116E  FF          MOV	A,R7
116F  FF          MOV	A,R7
1170  FF          MOV	A,R7
1171  FF          MOV	A,R7
1172  FF          MOV	A,R7
1173  FF          MOV	A,R7
1174  FF          MOV	A,R7
1175  FF          MOV	A,R7
1176  FF          MOV	A,R7
1177  FF          MOV	A,R7
1178  FF          MOV	A,R7
1179  FF          MOV	A,R7
117A  FF          MOV	A,R7
117B  FF          MOV	A,R7
117C  FF          MOV	A,R7
117D  FF          MOV	A,R7
117E  FF          MOV	A,R7
117F  FF          MOV	A,R7
1180  FF          MOV	A,R7
1181  FF          MOV	A,R7
1182  FF          MOV	A,R7
1183  FF          MOV	A,R7
1184  FF          MOV	A,R7
1185  FF          MOV	A,R7
1186  FF          MOV	A,R7
1187  FF          MOV	A,R7
1188  FF          MOV	A,R7
1189  FF          MOV	A,R7
118A  FF          MOV	A,R7
118B  FF          MOV	A,R7
118C  FF          MOV	A,R7
118D  FF          MOV	A,R7
118E  FF          MOV	A,R7
118F  FF          MOV	A,R7
1190  FF          MOV	A,R7
1191  FF          MOV	A,R7
1192  FF          MOV	A,R7
1193  FF          MOV	A,R7
1194  FF          MOV	A,R7
1195  FF          MOV	A,R7
1196  FF          MOV	A,R7
1197  FF          MOV	A,R7
1198  FF          MOV	A,R7
1199  FF          MOV	A,R7
119A  FF          MOV	A,R7
119B  FF          MOV	A,R7
119C  FF          MOV	A,R7
119D  FF          MOV	A,R7
119E  FF          MOV	A,R7
119F  FF          MOV	A,R7
11A0  FF          MOV	A,R7
11A1  FF          MOV	A,R7
11A2  FF          MOV	A,R7
11A3  FF          MOV	A,R7
11A4  FF          MOV	A,R7
11A5  FF          MOV	A,R7
11A6  FF          MOV	A,R7
11A7  FF          MOV	A,R7
11A8  FF          MOV	A,R7
11A9  FF          MOV	A,R7
11AA  FF          MOV	A,R7
11AB  FF          MOV	A,R7
11AC  FF          MOV	A,R7
11AD  FF          MOV	A,R7
11AE  FF          MOV	A,R7
11AF  FF          MOV	A,R7
11B0  FF          MOV	A,R7
11B1  FF          MOV	A,R7
11B2  FF          MOV	A,R7
11B3  FF          MOV	A,R7
11B4  FF          MOV	A,R7
11B5  FF          MOV	A,R7
11B6  FF          MOV	A,R7
11B7  FF          MOV	A,R7
11B8  FF          MOV	A,R7
11B9  FF          MOV	A,R7
11BA  FF          MOV	A,R7
11BB  FF          MOV	A,R7
11BC  FF          MOV	A,R7
11BD  FF          MOV	A,R7
11BE  FF          MOV	A,R7
11BF  FF          MOV	A,R7
11C0  FF          MOV	A,R7
11C1  FF          MOV	A,R7
11C2  FF          MOV	A,R7
11C3  FF          MOV	A,R7
11C4  FF          MOV	A,R7
11C5  FF          MOV	A,R7
11C6  FF          MOV	A,R7
11C7  FF          MOV	A,R7
11C8  FF          MOV	A,R7
11C9  FF          MOV	A,R7
11CA  FF          MOV	A,R7
11CB  FF          MOV	A,R7
11CC  FF          MOV	A,R7
11CD  FF          MOV	A,R7
11CE  FF          MOV	A,R7
11CF  FF          MOV	A,R7
11D0  FF          MOV	A,R7
11D1  FF          MOV	A,R7
11D2  FF          MOV	A,R7
11D3  FF          MOV	A,R7
11D4  FF          MOV	A,R7
11D5  FF          MOV	A,R7
11D6  FF          MOV	A,R7
11D7  FF          MOV	A,R7
11D8  FF          MOV	A,R7
11D9  FF          MOV	A,R7
11DA  FF          MOV	A,R7
11DB  FF          MOV	A,R7
11DC  FF          MOV	A,R7
11DD  FF          MOV	A,R7
11DE  FF          MOV	A,R7
11DF  FF          MOV	A,R7
11E0  FF          MOV	A,R7
11E1  FF          MOV	A,R7
11E2  FF          MOV	A,R7
11E3  FF          MOV	A,R7
11E4  FF          MOV	A,R7
11E5  FF          MOV	A,R7
11E6  FF          MOV	A,R7
11E7  FF          MOV	A,R7
11E8  FF          MOV	A,R7
11E9  FF          MOV	A,R7
11EA  FF          MOV	A,R7
11EB  FF          MOV	A,R7
11EC  FF          MOV	A,R7
11ED  FF          MOV	A,R7
11EE  FF          MOV	A,R7
11EF  FF          MOV	A,R7
11F0  FF          MOV	A,R7
11F1  FF          MOV	A,R7
11F2  FF          MOV	A,R7
11F3  FF          MOV	A,R7
11F4  FF          MOV	A,R7
11F5  FF          MOV	A,R7
11F6  FF          MOV	A,R7
11F7  FF          MOV	A,R7
11F8  FF          MOV	A,R7
11F9  FF          MOV	A,R7
11FA  FF          MOV	A,R7
11FB  FF          MOV	A,R7
11FC  FF          MOV	A,R7
11FD  FF          MOV	A,R7
11FE  FF          MOV	A,R7
11FF  FF          MOV	A,R7
1200  FF          MOV	A,R7
1201  FF          MOV	A,R7
1202  FF          MOV	A,R7
1203  FF          MOV	A,R7
1204  FF          MOV	A,R7
1205  FF          MOV	A,R7
1206  FF          MOV	A,R7
1207  FF          MOV	A,R7
1208  FF          MOV	A,R7
1209  FF          MOV	A,R7
120A  FF          MOV	A,R7
120B  FF          MOV	A,R7
120C  FF          MOV	A,R7
120D  FF          MOV	A,R7
120E  FF          MOV	A,R7
120F  FF          MOV	A,R7
1210  FF          MOV	A,R7
1211  FF          MOV	A,R7
1212  FF          MOV	A,R7
1213  FF          MOV	A,R7
1214  FF          MOV	A,R7
1215  FF          MOV	A,R7
1216  FF          MOV	A,R7
1217  FF          MOV	A,R7
1218  FF          MOV	A,R7
1219  FF          MOV	A,R7
121A  FF          MOV	A,R7
121B  FF          MOV	A,R7
121C  FF          MOV	A,R7
121D  FF          MOV	A,R7
121E  FF          MOV	A,R7
121F  FF          MOV	A,R7
1220  FF          MOV	A,R7
1221  FF          MOV	A,R7
1222  FF          MOV	A,R7
1223  FF          MOV	A,R7
1224  FF          MOV	A,R7
1225  FF          MOV	A,R7
1226  FF          MOV	A,R7
1227  FF          MOV	A,R7
1228  FF          MOV	A,R7
1229  FF          MOV	A,R7
122A  FF          MOV	A,R7
122B  FF          MOV	A,R7
122C  FF          MOV	A,R7
122D  FF          MOV	A,R7
122E  FF          MOV	A,R7
122F  FF          MOV	A,R7
1230  FF          MOV	A,R7
1231  FF          MOV	A,R7
1232  FF          MOV	A,R7
1233  FF          MOV	A,R7
1234  FF          MOV	A,R7
1235  FF          MOV	A,R7
1236  FF          MOV	A,R7
1237  FF          MOV	A,R7
1238  FF          MOV	A,R7
1239  FF          MOV	A,R7
123A  FF          MOV	A,R7
123B  FF          MOV	A,R7
123C  FF          MOV	A,R7
123D  FF          MOV	A,R7
123E  FF          MOV	A,R7
123F  FF          MOV	A,R7
1240  FF          MOV	A,R7
1241  FF          MOV	A,R7
1242  FF          MOV	A,R7
1243  FF          MOV	A,R7
1244  FF          MOV	A,R7
1245  FF          MOV	A,R7
1246  FF          MOV	A,R7
1247  FF          MOV	A,R7
1248  FF          MOV	A,R7
1249  FF          MOV	A,R7
124A  FF          MOV	A,R7
124B  FF          MOV	A,R7
124C  FF          MOV	A,R7
124D  FF          MOV	A,R7
124E  FF          MOV	A,R7
124F  FF          MOV	A,R7
1250  FF          MOV	A,R7
1251  FF          MOV	A,R7
1252  FF          MOV	A,R7
1253  FF          MOV	A,R7
1254  FF          MOV	A,R7
1255  FF          MOV	A,R7
1256  FF          MOV	A,R7
1257  FF          MOV	A,R7
1258  FF          MOV	A,R7
1259  FF          MOV	A,R7
125A  FF          MOV	A,R7
125B  FF          MOV	A,R7
125C  FF          MOV	A,R7
125D  FF          MOV	A,R7
125E  FF          MOV	A,R7
125F  FF          MOV	A,R7
1260  FF          MOV	A,R7
1261  FF          MOV	A,R7
1262  FF          MOV	A,R7
1263  FF          MOV	A,R7
1264  FF          MOV	A,R7
1265  FF          MOV	A,R7
1266  FF          MOV	A,R7
1267  FF          MOV	A,R7
1268  FF          MOV	A,R7
1269  FF          MOV	A,R7
126A  FF          MOV	A,R7
126B  FF          MOV	A,R7
126C  FF          MOV	A,R7
126D  FF          MOV	A,R7
126E  FF          MOV	A,R7
126F  FF          MOV	A,R7
1270  FF          MOV	A,R7
1271  FF          MOV	A,R7
1272  FF          MOV	A,R7
1273  FF          MOV	A,R7
1274  FF          MOV	A,R7
1275  FF          MOV	A,R7
1276  FF          MOV	A,R7
1277  FF          MOV	A,R7
1278  FF          MOV	A,R7
1279  FF          MOV	A,R7
127A  FF          MOV	A,R7
127B  FF          MOV	A,R7
127C  FF          MOV	A,R7
127D  FF          MOV	A,R7
127E  FF          MOV	A,R7
127F  FF          MOV	A,R7
1280  FF          MOV	A,R7
1281  FF          MOV	A,R7
1282  FF          MOV	A,R7
1283  FF          MOV	A,R7
1284  FF          MOV	A,R7
1285  FF          MOV	A,R7
1286  FF          MOV	A,R7
1287  FF          MOV	A,R7
1288  FF          MOV	A,R7
1289  FF          MOV	A,R7
128A  FF          MOV	A,R7
128B  FF          MOV	A,R7
128C  FF          MOV	A,R7
128D  FF          MOV	A,R7
128E  FF          MOV	A,R7
128F  FF          MOV	A,R7
1290  FF          MOV	A,R7
1291  FF          MOV	A,R7
1292  FF          MOV	A,R7
1293  FF          MOV	A,R7
1294  FF          MOV	A,R7
1295  FF          MOV	A,R7
1296  FF          MOV	A,R7
1297  FF          MOV	A,R7
1298  FF          MOV	A,R7
1299  FF          MOV	A,R7
129A  FF          MOV	A,R7
129B  FF          MOV	A,R7
129C  FF          MOV	A,R7
129D  FF          MOV	A,R7
129E  FF          MOV	A,R7
129F  FF          MOV	A,R7
12A0  FF          MOV	A,R7
12A1  FF          MOV	A,R7
12A2  FF          MOV	A,R7
12A3  FF          MOV	A,R7
12A4  FF          MOV	A,R7
12A5  FF          MOV	A,R7
12A6  FF          MOV	A,R7
12A7  FF          MOV	A,R7
12A8  FF          MOV	A,R7
12A9  FF          MOV	A,R7
12AA  FF          MOV	A,R7
12AB  FF          MOV	A,R7
12AC  FF          MOV	A,R7
12AD  FF          MOV	A,R7
12AE  FF          MOV	A,R7
12AF  FF          MOV	A,R7
12B0  FF          MOV	A,R7
12B1  FF          MOV	A,R7
12B2  FF          MOV	A,R7
12B3  FF          MOV	A,R7
12B4  FF          MOV	A,R7
12B5  FF          MOV	A,R7
12B6  FF          MOV	A,R7
12B7  FF          MOV	A,R7
12B8  FF          MOV	A,R7
12B9  FF          MOV	A,R7
12BA  FF          MOV	A,R7
12BB  FF          MOV	A,R7
12BC  FF          MOV	A,R7
12BD  FF          MOV	A,R7
12BE  FF          MOV	A,R7
12BF  FF          MOV	A,R7
12C0  FF          MOV	A,R7
12C1  FF          MOV	A,R7
12C2  FF          MOV	A,R7
12C3  FF          MOV	A,R7
12C4  FF          MOV	A,R7
12C5  FF          MOV	A,R7
12C6  FF          MOV	A,R7
12C7  FF          MOV	A,R7
12C8  FF          MOV	A,R7
12C9  FF          MOV	A,R7
12CA  FF          MOV	A,R7
12CB  FF          MOV	A,R7
12CC  FF          MOV	A,R7
12CD  FF          MOV	A,R7
12CE  FF          MOV	A,R7
12CF  FF          MOV	A,R7
12D0  FF          MOV	A,R7
12D1  FF          MOV	A,R7
12D2  FF          MOV	A,R7
12D3  FF          MOV	A,R7
12D4  FF          MOV	A,R7
12D5  FF          MOV	A,R7
12D6  FF          MOV	A,R7
12D7  FF          MOV	A,R7
12D8  FF          MOV	A,R7
12D9  FF          MOV	A,R7
12DA  FF          MOV	A,R7
12DB  FF          MOV	A,R7
12DC  FF          MOV	A,R7
12DD  FF          MOV	A,R7
12DE  FF          MOV	A,R7
12DF  FF          MOV	A,R7
12E0  FF          MOV	A,R7
12E1  FF          MOV	A,R7
12E2  FF          MOV	A,R7
12E3  FF          MOV	A,R7
12E4  FF          MOV	A,R7
12E5  FF          MOV	A,R7
12E6  FF          MOV	A,R7
12E7  FF          MOV	A,R7
12E8  FF          MOV	A,R7
12E9  FF          MOV	A,R7
12EA  FF          MOV	A,R7
12EB  FF          MOV	A,R7
12EC  FF          MOV	A,R7
12ED  FF          MOV	A,R7
12EE  FF          MOV	A,R7
12EF  FF          MOV	A,R7
12F0  FF          MOV	A,R7
12F1  FF          MOV	A,R7
12F2  FF          MOV	A,R7
12F3  FF          MOV	A,R7
12F4  FF          MOV	A,R7
12F5  FF          MOV	A,R7
12F6  FF          MOV	A,R7
12F7  FF          MOV	A,R7
12F8  FF          MOV	A,R7
12F9  FF          MOV	A,R7
12FA  FF          MOV	A,R7
12FB  FF          MOV	A,R7
12FC  FF          MOV	A,R7
12FD  FF          MOV	A,R7
12FE  FF          MOV	A,R7
12FF  FF          MOV	A,R7
1300  FF          MOV	A,R7
1301  FF          MOV	A,R7
1302  FF          MOV	A,R7
1303  FF          MOV	A,R7
1304  FF          MOV	A,R7
1305  FF          MOV	A,R7
1306  FF          MOV	A,R7
1307  FF          MOV	A,R7
1308  FF          MOV	A,R7
1309  FF          MOV	A,R7
130A  FF          MOV	A,R7
130B  FF          MOV	A,R7
130C  FF          MOV	A,R7
130D  FF          MOV	A,R7
130E  FF          MOV	A,R7
130F  FF          MOV	A,R7
1310  FF          MOV	A,R7
1311  FF          MOV	A,R7
1312  FF          MOV	A,R7
1313  FF          MOV	A,R7
1314  FF          MOV	A,R7
1315  FF          MOV	A,R7
1316  FF          MOV	A,R7
1317  FF          MOV	A,R7
1318  FF          MOV	A,R7
1319  FF          MOV	A,R7
131A  FF          MOV	A,R7
131B  FF          MOV	A,R7
131C  FF          MOV	A,R7
131D  FF          MOV	A,R7
131E  FF          MOV	A,R7
131F  FF          MOV	A,R7
1320  FF          MOV	A,R7
1321  FF          MOV	A,R7
1322  FF          MOV	A,R7
1323  FF          MOV	A,R7
1324  FF          MOV	A,R7
1325  FF          MOV	A,R7
1326  FF          MOV	A,R7
1327  FF          MOV	A,R7
1328  FF          MOV	A,R7
1329  FF          MOV	A,R7
132A  FF          MOV	A,R7
132B  FF          MOV	A,R7
132C  FF          MOV	A,R7
132D  FF          MOV	A,R7
132E  FF          MOV	A,R7
132F  FF          MOV	A,R7
1330  FF          MOV	A,R7
1331  FF          MOV	A,R7
1332  FF          MOV	A,R7
1333  FF          MOV	A,R7
1334  FF          MOV	A,R7
1335  FF          MOV	A,R7
1336  FF          MOV	A,R7
1337  FF          MOV	A,R7
1338  FF          MOV	A,R7
1339  FF          MOV	A,R7
133A  FF          MOV	A,R7
133B  FF          MOV	A,R7
133C  FF          MOV	A,R7
133D  FF          MOV	A,R7
133E  FF          MOV	A,R7
133F  FF          MOV	A,R7
1340  FF          MOV	A,R7
1341  FF          MOV	A,R7
1342  FF          MOV	A,R7
1343  FF          MOV	A,R7
1344  FF          MOV	A,R7
1345  FF          MOV	A,R7
1346  FF          MOV	A,R7
1347  FF          MOV	A,R7
1348  FF          MOV	A,R7
1349  FF          MOV	A,R7
134A  FF          MOV	A,R7
134B  FF          MOV	A,R7
134C  FF          MOV	A,R7
134D  FF          MOV	A,R7
134E  FF          MOV	A,R7
134F  FF          MOV	A,R7
1350  FF          MOV	A,R7
1351  FF          MOV	A,R7
1352  FF          MOV	A,R7
1353  FF          MOV	A,R7
1354  FF          MOV	A,R7
1355  FF          MOV	A,R7
1356  FF          MOV	A,R7
1357  FF          MOV	A,R7
1358  FF          MOV	A,R7
1359  FF          MOV	A,R7
135A  FF          MOV	A,R7
135B  FF          MOV	A,R7
135C  FF          MOV	A,R7
135D  FF          MOV	A,R7
135E  FF          MOV	A,R7
135F  FF          MOV	A,R7
1360  FF          MOV	A,R7
1361  FF          MOV	A,R7
1362  FF          MOV	A,R7
1363  FF          MOV	A,R7
1364  FF          MOV	A,R7
1365  FF          MOV	A,R7
1366  FF          MOV	A,R7
1367  FF          MOV	A,R7
1368  FF          MOV	A,R7
1369  FF          MOV	A,R7
136A  FF          MOV	A,R7
136B  FF          MOV	A,R7
136C  FF          MOV	A,R7
136D  FF          MOV	A,R7
136E  FF          MOV	A,R7
136F  FF          MOV	A,R7
1370  FF          MOV	A,R7
1371  FF          MOV	A,R7
1372  FF          MOV	A,R7
1373  FF          MOV	A,R7
1374  FF          MOV	A,R7
1375  FF          MOV	A,R7
1376  FF          MOV	A,R7
1377  FF          MOV	A,R7
1378  FF          MOV	A,R7
1379  FF          MOV	A,R7
137A  FF          MOV	A,R7
137B  FF          MOV	A,R7
137C  FF          MOV	A,R7
137D  FF          MOV	A,R7
137E  FF          MOV	A,R7
137F  FF          MOV	A,R7
1380  FF          MOV	A,R7
1381  FF          MOV	A,R7
1382  FF          MOV	A,R7
1383  FF          MOV	A,R7
1384  FF          MOV	A,R7
1385  FF          MOV	A,R7
1386  FF          MOV	A,R7
1387  FF          MOV	A,R7
1388  FF          MOV	A,R7
1389  FF          MOV	A,R7
138A  FF          MOV	A,R7
138B  FF          MOV	A,R7
138C  FF          MOV	A,R7
138D  FF          MOV	A,R7
138E  FF          MOV	A,R7
138F  FF          MOV	A,R7
1390  FF          MOV	A,R7
1391  FF          MOV	A,R7
1392  FF          MOV	A,R7
1393  FF          MOV	A,R7
1394  FF          MOV	A,R7
1395  FF          MOV	A,R7
1396  FF          MOV	A,R7
1397  FF          MOV	A,R7
1398  FF          MOV	A,R7
1399  FF          MOV	A,R7
139A  FF          MOV	A,R7
139B  FF          MOV	A,R7
139C  FF          MOV	A,R7
139D  FF          MOV	A,R7
139E  FF          MOV	A,R7
139F  FF          MOV	A,R7
13A0  FF          MOV	A,R7
13A1  FF          MOV	A,R7
13A2  FF          MOV	A,R7
13A3  FF          MOV	A,R7
13A4  FF          MOV	A,R7
13A5  FF          MOV	A,R7
13A6  FF          MOV	A,R7
13A7  FF          MOV	A,R7
13A8  FF          MOV	A,R7
13A9  FF          MOV	A,R7
13AA  FF          MOV	A,R7
13AB  FF          MOV	A,R7
13AC  FF          MOV	A,R7
13AD  FF          MOV	A,R7
13AE  FF          MOV	A,R7
13AF  FF          MOV	A,R7
13B0  FF          MOV	A,R7
13B1  FF          MOV	A,R7
13B2  FF          MOV	A,R7
13B3  FF          MOV	A,R7
13B4  FF          MOV	A,R7
13B5  FF          MOV	A,R7
13B6  FF          MOV	A,R7
13B7  FF          MOV	A,R7
13B8  FF          MOV	A,R7
13B9  FF          MOV	A,R7
13BA  FF          MOV	A,R7
13BB  FF          MOV	A,R7
13BC  FF          MOV	A,R7
13BD  FF          MOV	A,R7
13BE  FF          MOV	A,R7
13BF  FF          MOV	A,R7
13C0  FF          MOV	A,R7
13C1  FF          MOV	A,R7
13C2  FF          MOV	A,R7
13C3  FF          MOV	A,R7
13C4  FF          MOV	A,R7
13C5  FF          MOV	A,R7
13C6  FF          MOV	A,R7
13C7  FF          MOV	A,R7
13C8  FF          MOV	A,R7
13C9  FF          MOV	A,R7
13CA  FF          MOV	A,R7
13CB  FF          MOV	A,R7
13CC  FF          MOV	A,R7
13CD  FF          MOV	A,R7
13CE  FF          MOV	A,R7
13CF  FF          MOV	A,R7
13D0  FF          MOV	A,R7
13D1  FF          MOV	A,R7
13D2  FF          MOV	A,R7
13D3  FF          MOV	A,R7
13D4  FF          MOV	A,R7
13D5  FF          MOV	A,R7
13D6  FF          MOV	A,R7
13D7  FF          MOV	A,R7
13D8  FF          MOV	A,R7
13D9  FF          MOV	A,R7
13DA  FF          MOV	A,R7
13DB  FF          MOV	A,R7
13DC  FF          MOV	A,R7
13DD  FF          MOV	A,R7
13DE  FF          MOV	A,R7
13DF  FF          MOV	A,R7
13E0  FF          MOV	A,R7
13E1  FF          MOV	A,R7
13E2  FF          MOV	A,R7
13E3  FF          MOV	A,R7
13E4  FF          MOV	A,R7
13E5  FF          MOV	A,R7
13E6  FF          MOV	A,R7
13E7  FF          MOV	A,R7
13E8  FF          MOV	A,R7
13E9  FF          MOV	A,R7
13EA  FF          MOV	A,R7
13EB  FF          MOV	A,R7
13EC  FF          MOV	A,R7
13ED  FF          MOV	A,R7
13EE  FF          MOV	A,R7
13EF  FF          MOV	A,R7
13F0  FF          MOV	A,R7
13F1  FF          MOV	A,R7
13F2  FF          MOV	A,R7
13F3  FF          MOV	A,R7
13F4  FF          MOV	A,R7
13F5  FF          MOV	A,R7
13F6  FF          MOV	A,R7
13F7  FF          MOV	A,R7
13F8  FF          MOV	A,R7
13F9  FF          MOV	A,R7
13FA  FF          MOV	A,R7
13FB  FF          MOV	A,R7
13FC  FF          MOV	A,R7
13FD  FF          MOV	A,R7
13FE  FF          MOV	A,R7
13FF  FF          MOV	A,R7
1400  FF          MOV	A,R7
1401  FF          MOV	A,R7
1402  FF          MOV	A,R7
1403  FF          MOV	A,R7
1404  FF          MOV	A,R7
1405  FF          MOV	A,R7
1406  FF          MOV	A,R7
1407  FF          MOV	A,R7
1408  FF          MOV	A,R7
1409  FF          MOV	A,R7
140A  FF          MOV	A,R7
140B  FF          MOV	A,R7
140C  FF          MOV	A,R7
140D  FF          MOV	A,R7
140E  FF          MOV	A,R7
140F  FF          MOV	A,R7
1410  FF          MOV	A,R7
1411  FF          MOV	A,R7
1412  FF          MOV	A,R7
1413  FF          MOV	A,R7
1414  FF          MOV	A,R7
1415  FF          MOV	A,R7
1416  FF          MOV	A,R7
1417  FF          MOV	A,R7
1418  FF          MOV	A,R7
1419  FF          MOV	A,R7
141A  FF          MOV	A,R7
141B  FF          MOV	A,R7
141C  FF          MOV	A,R7
141D  FF          MOV	A,R7
141E  FF          MOV	A,R7
141F  FF          MOV	A,R7
1420  FF          MOV	A,R7
1421  FF          MOV	A,R7
1422  FF          MOV	A,R7
1423  FF          MOV	A,R7
1424  FF          MOV	A,R7
1425  FF          MOV	A,R7
1426  FF          MOV	A,R7
1427  FF          MOV	A,R7
1428  FF          MOV	A,R7
1429  FF          MOV	A,R7
142A  FF          MOV	A,R7
142B  FF          MOV	A,R7
142C  FF          MOV	A,R7
142D  FF          MOV	A,R7
142E  FF          MOV	A,R7
142F  FF          MOV	A,R7
1430  FF          MOV	A,R7
1431  FF          MOV	A,R7
1432  FF          MOV	A,R7
1433  FF          MOV	A,R7
1434  FF          MOV	A,R7
1435  FF          MOV	A,R7
1436  FF          MOV	A,R7
1437  FF          MOV	A,R7
1438  FF          MOV	A,R7
1439  FF          MOV	A,R7
143A  FF          MOV	A,R7
143B  FF          MOV	A,R7
143C  FF          MOV	A,R7
143D  FF          MOV	A,R7
143E  FF          MOV	A,R7
143F  FF          MOV	A,R7
1440  FF          MOV	A,R7
1441  FF          MOV	A,R7
1442  FF          MOV	A,R7
1443  FF          MOV	A,R7
1444  FF          MOV	A,R7
1445  FF          MOV	A,R7
1446  FF          MOV	A,R7
1447  FF          MOV	A,R7
1448  FF          MOV	A,R7
1449  FF          MOV	A,R7
144A  FF          MOV	A,R7
144B  FF          MOV	A,R7
144C  FF          MOV	A,R7
144D  FF          MOV	A,R7
144E  FF          MOV	A,R7
144F  FF          MOV	A,R7
1450  FF          MOV	A,R7
1451  FF          MOV	A,R7
1452  FF          MOV	A,R7
1453  FF          MOV	A,R7
1454  FF          MOV	A,R7
1455  FF          MOV	A,R7
1456  FF          MOV	A,R7
1457  FF          MOV	A,R7
1458  FF          MOV	A,R7
1459  FF          MOV	A,R7
145A  FF          MOV	A,R7
145B  FF          MOV	A,R7
145C  FF          MOV	A,R7
145D  FF          MOV	A,R7
145E  FF          MOV	A,R7
145F  FF          MOV	A,R7
1460  FF          MOV	A,R7
1461  FF          MOV	A,R7
1462  FF          MOV	A,R7
1463  FF          MOV	A,R7
1464  FF          MOV	A,R7
1465  FF          MOV	A,R7
1466  FF          MOV	A,R7
1467  FF          MOV	A,R7
1468  FF          MOV	A,R7
1469  FF          MOV	A,R7
146A  FF          MOV	A,R7
146B  FF          MOV	A,R7
146C  FF          MOV	A,R7
146D  FF          MOV	A,R7
146E  FF          MOV	A,R7
146F  FF          MOV	A,R7
1470  FF          MOV	A,R7
1471  FF          MOV	A,R7
1472  FF          MOV	A,R7
1473  FF          MOV	A,R7
1474  FF          MOV	A,R7
1475  FF          MOV	A,R7
1476  FF          MOV	A,R7
1477  FF          MOV	A,R7
1478  FF          MOV	A,R7
1479  FF          MOV	A,R7
147A  FF          MOV	A,R7
147B  FF          MOV	A,R7
147C  FF          MOV	A,R7
147D  FF          MOV	A,R7
147E  FF          MOV	A,R7
147F  FF          MOV	A,R7
1480  FF          MOV	A,R7
1481  FF          MOV	A,R7
1482  FF          MOV	A,R7
1483  FF          MOV	A,R7
1484  FF          MOV	A,R7
1485  FF          MOV	A,R7
1486  FF          MOV	A,R7
1487  FF          MOV	A,R7
1488  FF          MOV	A,R7
1489  FF          MOV	A,R7
148A  FF          MOV	A,R7
148B  FF          MOV	A,R7
148C  FF          MOV	A,R7
148D  FF          MOV	A,R7
148E  FF          MOV	A,R7
148F  FF          MOV	A,R7
1490  FF          MOV	A,R7
1491  FF          MOV	A,R7
1492  FF          MOV	A,R7
1493  FF          MOV	A,R7
1494  FF          MOV	A,R7
1495  FF          MOV	A,R7
1496  FF          MOV	A,R7
1497  FF          MOV	A,R7
1498  FF          MOV	A,R7
1499  FF          MOV	A,R7
149A  FF          MOV	A,R7
149B  FF          MOV	A,R7
149C  FF          MOV	A,R7
149D  FF          MOV	A,R7
149E  FF          MOV	A,R7
149F  FF          MOV	A,R7
14A0  FF          MOV	A,R7
14A1  FF          MOV	A,R7
14A2  FF          MOV	A,R7
14A3  FF          MOV	A,R7
14A4  FF          MOV	A,R7
14A5  FF          MOV	A,R7
14A6  FF          MOV	A,R7
14A7  FF          MOV	A,R7
14A8  FF          MOV	A,R7
14A9  FF          MOV	A,R7
14AA  FF          MOV	A,R7
14AB  FF          MOV	A,R7
14AC  FF          MOV	A,R7
14AD  FF          MOV	A,R7
14AE  FF          MOV	A,R7
14AF  FF          MOV	A,R7
14B0  FF          MOV	A,R7
14B1  FF          MOV	A,R7
14B2  FF          MOV	A,R7
14B3  FF          MOV	A,R7
14B4  FF          MOV	A,R7
14B5  FF          MOV	A,R7
14B6  FF          MOV	A,R7
14B7  FF          MOV	A,R7
14B8  FF          MOV	A,R7
14B9  FF          MOV	A,R7
14BA  FF          MOV	A,R7
14BB  FF          MOV	A,R7
14BC  FF          MOV	A,R7
14BD  FF          MOV	A,R7
14BE  FF          MOV	A,R7
14BF  FF          MOV	A,R7
14C0  FF          MOV	A,R7
14C1  FF          MOV	A,R7
14C2  FF          MOV	A,R7
14C3  FF          MOV	A,R7
14C4  FF          MOV	A,R7
14C5  FF          MOV	A,R7
14C6  FF          MOV	A,R7
14C7  FF          MOV	A,R7
14C8  FF          MOV	A,R7
14C9  FF          MOV	A,R7
14CA  FF          MOV	A,R7
14CB  FF          MOV	A,R7
14CC  FF          MOV	A,R7
14CD  FF          MOV	A,R7
14CE  FF          MOV	A,R7
14CF  FF          MOV	A,R7
14D0  FF          MOV	A,R7
14D1  FF          MOV	A,R7
14D2  FF          MOV	A,R7
14D3  FF          MOV	A,R7
14D4  FF          MOV	A,R7
14D5  FF          MOV	A,R7
14D6  FF          MOV	A,R7
14D7  FF          MOV	A,R7
14D8  FF          MOV	A,R7
14D9  FF          MOV	A,R7
14DA  FF          MOV	A,R7
14DB  FF          MOV	A,R7
14DC  FF          MOV	A,R7
14DD  FF          MOV	A,R7
14DE  FF          MOV	A,R7
14DF  FF          MOV	A,R7
14E0  FF          MOV	A,R7
14E1  FF          MOV	A,R7
14E2  FF          MOV	A,R7
14E3  FF          MOV	A,R7
14E4  FF          MOV	A,R7
14E5  FF          MOV	A,R7
14E6  FF          MOV	A,R7
14E7  FF          MOV	A,R7
14E8  FF          MOV	A,R7
14E9  FF          MOV	A,R7
14EA  FF          MOV	A,R7
14EB  FF          MOV	A,R7
14EC  FF          MOV	A,R7
14ED  FF          MOV	A,R7
14EE  FF          MOV	A,R7
14EF  FF          MOV	A,R7
14F0  FF          MOV	A,R7
14F1  FF          MOV	A,R7
14F2  FF          MOV	A,R7
14F3  FF          MOV	A,R7
14F4  FF          MOV	A,R7
14F5  FF          MOV	A,R7
14F6  FF          MOV	A,R7
14F7  FF          MOV	A,R7
14F8  FF          MOV	A,R7
14F9  FF          MOV	A,R7
14FA  FF          MOV	A,R7
14FB  FF          MOV	A,R7
14FC  FF          MOV	A,R7
14FD  FF          MOV	A,R7
14FE  FF          MOV	A,R7
14FF  FF          MOV	A,R7
1500  FF          MOV	A,R7
1501  FF          MOV	A,R7
1502  FF          MOV	A,R7
1503  FF          MOV	A,R7
1504  FF          MOV	A,R7
1505  FF          MOV	A,R7
1506  FF          MOV	A,R7
1507  FF          MOV	A,R7
1508  FF          MOV	A,R7
1509  FF          MOV	A,R7
150A  FF          MOV	A,R7
150B  FF          MOV	A,R7
150C  FF          MOV	A,R7
150D  FF          MOV	A,R7
150E  FF          MOV	A,R7
150F  FF          MOV	A,R7
1510  FF          MOV	A,R7
1511  FF          MOV	A,R7
1512  FF          MOV	A,R7
1513  FF          MOV	A,R7
1514  FF          MOV	A,R7
1515  FF          MOV	A,R7
1516  FF          MOV	A,R7
1517  FF          MOV	A,R7
1518  FF          MOV	A,R7
1519  FF          MOV	A,R7
151A  FF          MOV	A,R7
151B  FF          MOV	A,R7
151C  FF          MOV	A,R7
151D  FF          MOV	A,R7
151E  FF          MOV	A,R7
151F  FF          MOV	A,R7
1520  FF          MOV	A,R7
1521  FF          MOV	A,R7
1522  FF          MOV	A,R7
1523  FF          MOV	A,R7
1524  FF          MOV	A,R7
1525  FF          MOV	A,R7
1526  FF          MOV	A,R7
1527  FF          MOV	A,R7
1528  FF          MOV	A,R7
1529  FF          MOV	A,R7
152A  FF          MOV	A,R7
152B  FF          MOV	A,R7
152C  FF          MOV	A,R7
152D  FF          MOV	A,R7
152E  FF          MOV	A,R7
152F  FF          MOV	A,R7
1530  FF          MOV	A,R7
1531  FF          MOV	A,R7
1532  FF          MOV	A,R7
1533  FF          MOV	A,R7
1534  FF          MOV	A,R7
1535  FF          MOV	A,R7
1536  FF          MOV	A,R7
1537  FF          MOV	A,R7
1538  FF          MOV	A,R7
1539  FF          MOV	A,R7
153A  FF          MOV	A,R7
153B  FF          MOV	A,R7
153C  FF          MOV	A,R7
153D  FF          MOV	A,R7
153E  FF          MOV	A,R7
153F  FF          MOV	A,R7
1540  FF          MOV	A,R7
1541  FF          MOV	A,R7
1542  FF          MOV	A,R7
1543  FF          MOV	A,R7
1544  FF          MOV	A,R7
1545  FF          MOV	A,R7
1546  FF          MOV	A,R7
1547  FF          MOV	A,R7
1548  FF          MOV	A,R7
1549  FF          MOV	A,R7
154A  FF          MOV	A,R7
154B  FF          MOV	A,R7
154C  FF          MOV	A,R7
154D  FF          MOV	A,R7
154E  FF          MOV	A,R7
154F  FF          MOV	A,R7
1550  FF          MOV	A,R7
1551  FF          MOV	A,R7
1552  FF          MOV	A,R7
1553  FF          MOV	A,R7
1554  FF          MOV	A,R7
1555  FF          MOV	A,R7
1556  FF          MOV	A,R7
1557  FF          MOV	A,R7
1558  FF          MOV	A,R7
1559  FF          MOV	A,R7
155A  FF          MOV	A,R7
155B  FF          MOV	A,R7
155C  FF          MOV	A,R7
155D  FF          MOV	A,R7
155E  FF          MOV	A,R7
155F  FF          MOV	A,R7
1560  FF          MOV	A,R7
1561  FF          MOV	A,R7
1562  FF          MOV	A,R7
1563  FF          MOV	A,R7
1564  FF          MOV	A,R7
1565  FF          MOV	A,R7
1566  FF          MOV	A,R7
1567  FF          MOV	A,R7
1568  FF          MOV	A,R7
1569  FF          MOV	A,R7
156A  FF          MOV	A,R7
156B  FF          MOV	A,R7
156C  FF          MOV	A,R7
156D  FF          MOV	A,R7
156E  FF          MOV	A,R7
156F  FF          MOV	A,R7
1570  FF          MOV	A,R7
1571  FF          MOV	A,R7
1572  FF          MOV	A,R7
1573  FF          MOV	A,R7
1574  FF          MOV	A,R7
1575  FF          MOV	A,R7
1576  FF          MOV	A,R7
1577  FF          MOV	A,R7
1578  FF          MOV	A,R7
1579  FF          MOV	A,R7
157A  FF          MOV	A,R7
157B  FF          MOV	A,R7
157C  FF          MOV	A,R7
157D  FF          MOV	A,R7
157E  FF          MOV	A,R7
157F  FF          MOV	A,R7
1580  FF          MOV	A,R7
1581  FF          MOV	A,R7
1582  FF          MOV	A,R7
1583  FF          MOV	A,R7
1584  FF          MOV	A,R7
1585  FF          MOV	A,R7
1586  FF          MOV	A,R7
1587  FF          MOV	A,R7
1588  FF          MOV	A,R7
1589  FF          MOV	A,R7
158A  FF          MOV	A,R7
158B  FF          MOV	A,R7
158C  FF          MOV	A,R7
158D  FF          MOV	A,R7
158E  FF          MOV	A,R7
158F  FF          MOV	A,R7
1590  FF          MOV	A,R7
1591  FF          MOV	A,R7
1592  FF          MOV	A,R7
1593  FF          MOV	A,R7
1594  FF          MOV	A,R7
1595  FF          MOV	A,R7
1596  FF          MOV	A,R7
1597  FF          MOV	A,R7
1598  FF          MOV	A,R7
1599  FF          MOV	A,R7
159A  FF          MOV	A,R7
159B  FF          MOV	A,R7
159C  FF          MOV	A,R7
159D  FF          MOV	A,R7
159E  FF          MOV	A,R7
159F  FF          MOV	A,R7
15A0  FF          MOV	A,R7
15A1  FF          MOV	A,R7
15A2  FF          MOV	A,R7
15A3  FF          MOV	A,R7
15A4  FF          MOV	A,R7
15A5  FF          MOV	A,R7
15A6  FF          MOV	A,R7
15A7  FF          MOV	A,R7
15A8  FF          MOV	A,R7
15A9  FF          MOV	A,R7
15AA  FF          MOV	A,R7
15AB  FF          MOV	A,R7
15AC  FF          MOV	A,R7
15AD  FF          MOV	A,R7
15AE  FF          MOV	A,R7
15AF  FF          MOV	A,R7
15B0  FF          MOV	A,R7
15B1  FF          MOV	A,R7
15B2  FF          MOV	A,R7
15B3  FF          MOV	A,R7
15B4  FF          MOV	A,R7
15B5  FF          MOV	A,R7
15B6  FF          MOV	A,R7
15B7  FF          MOV	A,R7
15B8  FF          MOV	A,R7
15B9  FF          MOV	A,R7
15BA  FF          MOV	A,R7
15BB  FF          MOV	A,R7
15BC  FF          MOV	A,R7
15BD  FF          MOV	A,R7
15BE  FF          MOV	A,R7
15BF  FF          MOV	A,R7
15C0  FF          MOV	A,R7
15C1  FF          MOV	A,R7
15C2  FF          MOV	A,R7
15C3  FF          MOV	A,R7
15C4  FF          MOV	A,R7
15C5  FF          MOV	A,R7
15C6  FF          MOV	A,R7
15C7  FF          MOV	A,R7
15C8  FF          MOV	A,R7
15C9  FF          MOV	A,R7
15CA  FF          MOV	A,R7
15CB  FF          MOV	A,R7
15CC  FF          MOV	A,R7
15CD  FF          MOV	A,R7
15CE  FF          MOV	A,R7
15CF  FF          MOV	A,R7
15D0  FF          MOV	A,R7
15D1  FF          MOV	A,R7
15D2  FF          MOV	A,R7
15D3  FF          MOV	A,R7
15D4  FF          MOV	A,R7
15D5  FF          MOV	A,R7
15D6  FF          MOV	A,R7
15D7  FF          MOV	A,R7
15D8  FF          MOV	A,R7
15D9  FF          MOV	A,R7
15DA  FF          MOV	A,R7
15DB  FF          MOV	A,R7
15DC  FF          MOV	A,R7
15DD  FF          MOV	A,R7
15DE  FF          MOV	A,R7
15DF  FF          MOV	A,R7
15E0  FF          MOV	A,R7
15E1  FF          MOV	A,R7
15E2  FF          MOV	A,R7
15E3  FF          MOV	A,R7
15E4  FF          MOV	A,R7
15E5  FF          MOV	A,R7
15E6  FF          MOV	A,R7
15E7  FF          MOV	A,R7
15E8  FF          MOV	A,R7
15E9  FF          MOV	A,R7
15EA  FF          MOV	A,R7
15EB  FF          MOV	A,R7
15EC  FF          MOV	A,R7
15ED  FF          MOV	A,R7
15EE  FF          MOV	A,R7
15EF  FF          MOV	A,R7
15F0  FF          MOV	A,R7
15F1  FF          MOV	A,R7
15F2  FF          MOV	A,R7
15F3  FF          MOV	A,R7
15F4  FF          MOV	A,R7
15F5  FF          MOV	A,R7
15F6  FF          MOV	A,R7
15F7  FF          MOV	A,R7
15F8  FF          MOV	A,R7
15F9  FF          MOV	A,R7
15FA  FF          MOV	A,R7
15FB  FF          MOV	A,R7
15FC  FF          MOV	A,R7
15FD  FF          MOV	A,R7
15FE  FF          MOV	A,R7
15FF  FF          MOV	A,R7
1600  FF          MOV	A,R7
1601  FF          MOV	A,R7
1602  FF          MOV	A,R7
1603  FF          MOV	A,R7
1604  FF          MOV	A,R7
1605  FF          MOV	A,R7
1606  FF          MOV	A,R7
1607  FF          MOV	A,R7
1608  FF          MOV	A,R7
1609  FF          MOV	A,R7
160A  FF          MOV	A,R7
160B  FF          MOV	A,R7
160C  FF          MOV	A,R7
160D  FF          MOV	A,R7
160E  FF          MOV	A,R7
160F  FF          MOV	A,R7
1610  FF          MOV	A,R7
1611  FF          MOV	A,R7
1612  FF          MOV	A,R7
1613  FF          MOV	A,R7
1614  FF          MOV	A,R7
1615  FF          MOV	A,R7
1616  FF          MOV	A,R7
1617  FF          MOV	A,R7
1618  FF          MOV	A,R7
1619  FF          MOV	A,R7
161A  FF          MOV	A,R7
161B  FF          MOV	A,R7
161C  FF          MOV	A,R7
161D  FF          MOV	A,R7
161E  FF          MOV	A,R7
161F  FF          MOV	A,R7
1620  FF          MOV	A,R7
1621  FF          MOV	A,R7
1622  FF          MOV	A,R7
1623  FF          MOV	A,R7
1624  FF          MOV	A,R7
1625  FF          MOV	A,R7
1626  FF          MOV	A,R7
1627  FF          MOV	A,R7
1628  FF          MOV	A,R7
1629  FF          MOV	A,R7
162A  FF          MOV	A,R7
162B  FF          MOV	A,R7
162C  FF          MOV	A,R7
162D  FF          MOV	A,R7
162E  FF          MOV	A,R7
162F  FF          MOV	A,R7
1630  FF          MOV	A,R7
1631  FF          MOV	A,R7
1632  FF          MOV	A,R7
1633  FF          MOV	A,R7
1634  FF          MOV	A,R7
1635  FF          MOV	A,R7
1636  FF          MOV	A,R7
1637  FF          MOV	A,R7
1638  FF          MOV	A,R7
1639  FF          MOV	A,R7
163A  FF          MOV	A,R7
163B  FF          MOV	A,R7
163C  FF          MOV	A,R7
163D  FF          MOV	A,R7
163E  FF          MOV	A,R7
163F  FF          MOV	A,R7
1640  FF          MOV	A,R7
1641  FF          MOV	A,R7
1642  FF          MOV	A,R7
1643  FF          MOV	A,R7
1644  FF          MOV	A,R7
1645  FF          MOV	A,R7
1646  FF          MOV	A,R7
1647  FF          MOV	A,R7
1648  FF          MOV	A,R7
1649  FF          MOV	A,R7
164A  FF          MOV	A,R7
164B  FF          MOV	A,R7
164C  FF          MOV	A,R7
164D  FF          MOV	A,R7
164E  FF          MOV	A,R7
164F  FF          MOV	A,R7
1650  FF          MOV	A,R7
1651  FF          MOV	A,R7
1652  FF          MOV	A,R7
1653  FF          MOV	A,R7
1654  FF          MOV	A,R7
1655  FF          MOV	A,R7
1656  FF          MOV	A,R7
1657  FF          MOV	A,R7
1658  FF          MOV	A,R7
1659  FF          MOV	A,R7
165A  FF          MOV	A,R7
165B  FF          MOV	A,R7
165C  FF          MOV	A,R7
165D  FF          MOV	A,R7
165E  FF          MOV	A,R7
165F  FF          MOV	A,R7
1660  FF          MOV	A,R7
1661  FF          MOV	A,R7
1662  FF          MOV	A,R7
1663  FF          MOV	A,R7
1664  FF          MOV	A,R7
1665  FF          MOV	A,R7
1666  FF          MOV	A,R7
1667  FF          MOV	A,R7
1668  FF          MOV	A,R7
1669  FF          MOV	A,R7
166A  FF          MOV	A,R7
166B  FF          MOV	A,R7
166C  FF          MOV	A,R7
166D  FF          MOV	A,R7
166E  FF          MOV	A,R7
166F  FF          MOV	A,R7
1670  FF          MOV	A,R7
1671  FF          MOV	A,R7
1672  FF          MOV	A,R7
1673  FF          MOV	A,R7
1674  FF          MOV	A,R7
1675  FF          MOV	A,R7
1676  FF          MOV	A,R7
1677  FF          MOV	A,R7
1678  FF          MOV	A,R7
1679  FF          MOV	A,R7
167A  FF          MOV	A,R7
167B  FF          MOV	A,R7
167C  FF          MOV	A,R7
167D  FF          MOV	A,R7
167E  FF          MOV	A,R7
167F  FF          MOV	A,R7
1680  FF          MOV	A,R7
1681  FF          MOV	A,R7
1682  FF          MOV	A,R7
1683  FF          MOV	A,R7
1684  FF          MOV	A,R7
1685  FF          MOV	A,R7
1686  FF          MOV	A,R7
1687  FF          MOV	A,R7
1688  FF          MOV	A,R7
1689  FF          MOV	A,R7
168A  FF          MOV	A,R7
168B  FF          MOV	A,R7
168C  FF          MOV	A,R7
168D  FF          MOV	A,R7
168E  FF          MOV	A,R7
168F  FF          MOV	A,R7
1690  FF          MOV	A,R7
1691  FF          MOV	A,R7
1692  FF          MOV	A,R7
1693  FF          MOV	A,R7
1694  FF          MOV	A,R7
1695  FF          MOV	A,R7
1696  FF          MOV	A,R7
1697  FF          MOV	A,R7
1698  FF          MOV	A,R7
1699  FF          MOV	A,R7
169A  FF          MOV	A,R7
169B  FF          MOV	A,R7
169C  FF          MOV	A,R7
169D  FF          MOV	A,R7
169E  FF          MOV	A,R7
169F  FF          MOV	A,R7
16A0  FF          MOV	A,R7
16A1  FF          MOV	A,R7
16A2  FF          MOV	A,R7
16A3  FF          MOV	A,R7
16A4  FF          MOV	A,R7
16A5  FF          MOV	A,R7
16A6  FF          MOV	A,R7
16A7  FF          MOV	A,R7
16A8  FF          MOV	A,R7
16A9  FF          MOV	A,R7
16AA  FF          MOV	A,R7
16AB  FF          MOV	A,R7
16AC  FF          MOV	A,R7
16AD  FF          MOV	A,R7
16AE  FF          MOV	A,R7
16AF  FF          MOV	A,R7
16B0  FF          MOV	A,R7
16B1  FF          MOV	A,R7
16B2  FF          MOV	A,R7
16B3  FF          MOV	A,R7
16B4  FF          MOV	A,R7
16B5  FF          MOV	A,R7
16B6  FF          MOV	A,R7
16B7  FF          MOV	A,R7
16B8  FF          MOV	A,R7
16B9  FF          MOV	A,R7
16BA  FF          MOV	A,R7
16BB  FF          MOV	A,R7
16BC  FF          MOV	A,R7
16BD  FF          MOV	A,R7
16BE  FF          MOV	A,R7
16BF  FF          MOV	A,R7
16C0  FF          MOV	A,R7
16C1  FF          MOV	A,R7
16C2  FF          MOV	A,R7
16C3  FF          MOV	A,R7
16C4  FF          MOV	A,R7
16C5  FF          MOV	A,R7
16C6  FF          MOV	A,R7
16C7  FF          MOV	A,R7
16C8  FF          MOV	A,R7
16C9  FF          MOV	A,R7
16CA  FF          MOV	A,R7
16CB  FF          MOV	A,R7
16CC  FF          MOV	A,R7
16CD  FF          MOV	A,R7
16CE  FF          MOV	A,R7
16CF  FF          MOV	A,R7
16D0  FF          MOV	A,R7
16D1  FF          MOV	A,R7
16D2  FF          MOV	A,R7
16D3  FF          MOV	A,R7
16D4  FF          MOV	A,R7
16D5  FF          MOV	A,R7
16D6  FF          MOV	A,R7
16D7  FF          MOV	A,R7
16D8  FF          MOV	A,R7
16D9  FF          MOV	A,R7
16DA  FF          MOV	A,R7
16DB  FF          MOV	A,R7
16DC  FF          MOV	A,R7
16DD  FF          MOV	A,R7
16DE  FF          MOV	A,R7
16DF  FF          MOV	A,R7
16E0  FF          MOV	A,R7
16E1  FF          MOV	A,R7
16E2  FF          MOV	A,R7
16E3  FF          MOV	A,R7
16E4  FF          MOV	A,R7
16E5  FF          MOV	A,R7
16E6  FF          MOV	A,R7
16E7  FF          MOV	A,R7
16E8  FF          MOV	A,R7
16E9  FF          MOV	A,R7
16EA  FF          MOV	A,R7
16EB  FF          MOV	A,R7
16EC  FF          MOV	A,R7
16ED  FF          MOV	A,R7
16EE  FF          MOV	A,R7
16EF  FF          MOV	A,R7
16F0  FF          MOV	A,R7
16F1  FF          MOV	A,R7
16F2  FF          MOV	A,R7
16F3  FF          MOV	A,R7
16F4  FF          MOV	A,R7
16F5  FF          MOV	A,R7
16F6  FF          MOV	A,R7
16F7  FF          MOV	A,R7
16F8  FF          MOV	A,R7
16F9  FF          MOV	A,R7
16FA  FF          MOV	A,R7
16FB  FF          MOV	A,R7
16FC  FF          MOV	A,R7
16FD  FF          MOV	A,R7
16FE  FF          MOV	A,R7
16FF  FF          MOV	A,R7
1700  FF          MOV	A,R7
1701  FF          MOV	A,R7
1702  FF          MOV	A,R7
1703  FF          MOV	A,R7
1704  FF          MOV	A,R7
1705  FF          MOV	A,R7
1706  FF          MOV	A,R7
1707  FF          MOV	A,R7
1708  FF          MOV	A,R7
1709  FF          MOV	A,R7
170A  FF          MOV	A,R7
170B  FF          MOV	A,R7
170C  FF          MOV	A,R7
170D  FF          MOV	A,R7
170E  FF          MOV	A,R7
170F  FF          MOV	A,R7
1710  FF          MOV	A,R7
1711  FF          MOV	A,R7
1712  FF          MOV	A,R7
1713  FF          MOV	A,R7
1714  FF          MOV	A,R7
1715  FF          MOV	A,R7
1716  FF          MOV	A,R7
1717  FF          MOV	A,R7
1718  FF          MOV	A,R7
1719  FF          MOV	A,R7
171A  FF          MOV	A,R7
171B  FF          MOV	A,R7
171C  FF          MOV	A,R7
171D  FF          MOV	A,R7
171E  FF          MOV	A,R7
171F  FF          MOV	A,R7
1720  FF          MOV	A,R7
1721  FF          MOV	A,R7
1722  FF          MOV	A,R7
1723  FF          MOV	A,R7
1724  FF          MOV	A,R7
1725  FF          MOV	A,R7
1726  FF          MOV	A,R7
1727  FF          MOV	A,R7
1728  FF          MOV	A,R7
1729  FF          MOV	A,R7
172A  FF          MOV	A,R7
172B  FF          MOV	A,R7
172C  FF          MOV	A,R7
172D  FF          MOV	A,R7
172E  FF          MOV	A,R7
172F  FF          MOV	A,R7
1730  FF          MOV	A,R7
1731  FF          MOV	A,R7
1732  FF          MOV	A,R7
1733  FF          MOV	A,R7
1734  FF          MOV	A,R7
1735  FF          MOV	A,R7
1736  FF          MOV	A,R7
1737  FF          MOV	A,R7
1738  FF          MOV	A,R7
1739  FF          MOV	A,R7
173A  FF          MOV	A,R7
173B  FF          MOV	A,R7
173C  FF          MOV	A,R7
173D  FF          MOV	A,R7
173E  FF          MOV	A,R7
173F  FF          MOV	A,R7
1740  FF          MOV	A,R7
1741  FF          MOV	A,R7
1742  FF          MOV	A,R7
1743  FF          MOV	A,R7
1744  FF          MOV	A,R7
1745  FF          MOV	A,R7
1746  FF          MOV	A,R7
1747  FF          MOV	A,R7
1748  FF          MOV	A,R7
1749  FF          MOV	A,R7
174A  FF          MOV	A,R7
174B  FF          MOV	A,R7
174C  FF          MOV	A,R7
174D  FF          MOV	A,R7
174E  FF          MOV	A,R7
174F  FF          MOV	A,R7
1750  FF          MOV	A,R7
1751  FF          MOV	A,R7
1752  FF          MOV	A,R7
1753  FF          MOV	A,R7
1754  FF          MOV	A,R7
1755  FF          MOV	A,R7
1756  FF          MOV	A,R7
1757  FF          MOV	A,R7
1758  FF          MOV	A,R7
1759  FF          MOV	A,R7
175A  FF          MOV	A,R7
175B  FF          MOV	A,R7
175C  FF          MOV	A,R7
175D  FF          MOV	A,R7
175E  FF          MOV	A,R7
175F  FF          MOV	A,R7
1760  FF          MOV	A,R7
1761  FF          MOV	A,R7
1762  FF          MOV	A,R7
1763  FF          MOV	A,R7
1764  FF          MOV	A,R7
1765  FF          MOV	A,R7
1766  FF          MOV	A,R7
1767  FF          MOV	A,R7
1768  FF          MOV	A,R7
1769  FF          MOV	A,R7
176A  FF          MOV	A,R7
176B  FF          MOV	A,R7
176C  FF          MOV	A,R7
176D  FF          MOV	A,R7
176E  FF          MOV	A,R7
176F  FF          MOV	A,R7
1770  FF          MOV	A,R7
1771  FF          MOV	A,R7
1772  FF          MOV	A,R7
1773  FF          MOV	A,R7
1774  FF          MOV	A,R7
1775  FF          MOV	A,R7
1776  FF          MOV	A,R7
1777  FF          MOV	A,R7
1778  FF          MOV	A,R7
1779  FF          MOV	A,R7
177A  FF          MOV	A,R7
177B  FF          MOV	A,R7
177C  FF          MOV	A,R7
177D  FF          MOV	A,R7
177E  FF          MOV	A,R7
177F  FF          MOV	A,R7
1780  FF          MOV	A,R7
1781  FF          MOV	A,R7
1782  FF          MOV	A,R7
1783  FF          MOV	A,R7
1784  FF          MOV	A,R7
1785  FF          MOV	A,R7
1786  FF          MOV	A,R7
1787  FF          MOV	A,R7
1788  FF          MOV	A,R7
1789  FF          MOV	A,R7
178A  FF          MOV	A,R7
178B  FF          MOV	A,R7
178C  FF          MOV	A,R7
178D  FF          MOV	A,R7
178E  FF          MOV	A,R7
178F  FF          MOV	A,R7
1790  FF          MOV	A,R7
1791  FF          MOV	A,R7
1792  FF          MOV	A,R7
1793  FF          MOV	A,R7
1794  FF          MOV	A,R7
1795  FF          MOV	A,R7
1796  FF          MOV	A,R7
1797  FF          MOV	A,R7
1798  FF          MOV	A,R7
1799  FF          MOV	A,R7
179A  FF          MOV	A,R7
179B  FF          MOV	A,R7
179C  FF          MOV	A,R7
179D  FF          MOV	A,R7
179E  FF          MOV	A,R7
179F  FF          MOV	A,R7
17A0  FF          MOV	A,R7
17A1  FF          MOV	A,R7
17A2  FF          MOV	A,R7
17A3  FF          MOV	A,R7
17A4  FF          MOV	A,R7
17A5  FF          MOV	A,R7
17A6  FF          MOV	A,R7
17A7  FF          MOV	A,R7
17A8  FF          MOV	A,R7
17A9  FF          MOV	A,R7
17AA  FF          MOV	A,R7
17AB  FF          MOV	A,R7
17AC  FF          MOV	A,R7
17AD  FF          MOV	A,R7
17AE  FF          MOV	A,R7
17AF  FF          MOV	A,R7
17B0  FF          MOV	A,R7
17B1  FF          MOV	A,R7
17B2  FF          MOV	A,R7
17B3  FF          MOV	A,R7
17B4  FF          MOV	A,R7
17B5  FF          MOV	A,R7
17B6  FF          MOV	A,R7
17B7  FF          MOV	A,R7
17B8  FF          MOV	A,R7
17B9  FF          MOV	A,R7
17BA  FF          MOV	A,R7
17BB  FF          MOV	A,R7
17BC  FF          MOV	A,R7
17BD  FF          MOV	A,R7
17BE  FF          MOV	A,R7
17BF  FF          MOV	A,R7
17C0  FF          MOV	A,R7
17C1  FF          MOV	A,R7
17C2  FF          MOV	A,R7
17C3  FF          MOV	A,R7
17C4  FF          MOV	A,R7
17C5  FF          MOV	A,R7
17C6  FF          MOV	A,R7
17C7  FF          MOV	A,R7
17C8  FF          MOV	A,R7
17C9  FF          MOV	A,R7
17CA  FF          MOV	A,R7
17CB  FF          MOV	A,R7
17CC  FF          MOV	A,R7
17CD  FF          MOV	A,R7
17CE  FF          MOV	A,R7
17CF  FF          MOV	A,R7
17D0  FF          MOV	A,R7
17D1  FF          MOV	A,R7
17D2  FF          MOV	A,R7
17D3  FF          MOV	A,R7
17D4  FF          MOV	A,R7
17D5  FF          MOV	A,R7
17D6  FF          MOV	A,R7
17D7  FF          MOV	A,R7
17D8  FF          MOV	A,R7
17D9  FF          MOV	A,R7
17DA  FF          MOV	A,R7
17DB  FF          MOV	A,R7
17DC  FF          MOV	A,R7
17DD  FF          MOV	A,R7
17DE  FF          MOV	A,R7
17DF  FF          MOV	A,R7
17E0  FF          MOV	A,R7
17E1  FF          MOV	A,R7
17E2  FF          MOV	A,R7
17E3  FF          MOV	A,R7
17E4  FF          MOV	A,R7
17E5  FF          MOV	A,R7
17E6  FF          MOV	A,R7
17E7  FF          MOV	A,R7
17E8  FF          MOV	A,R7
17E9  FF          MOV	A,R7
17EA  FF          MOV	A,R7
17EB  FF          MOV	A,R7
17EC  FF          MOV	A,R7
17ED  FF          MOV	A,R7
17EE  FF          MOV	A,R7
17EF  FF          MOV	A,R7
17F0  FF          MOV	A,R7
17F1  FF          MOV	A,R7
17F2  FF          MOV	A,R7
17F3  FF          MOV	A,R7
17F4  FF          MOV	A,R7
17F5  FF          MOV	A,R7
17F6  FF          MOV	A,R7
17F7  FF          MOV	A,R7
17F8  FF          MOV	A,R7
17F9  FF          MOV	A,R7
17FA  FF          MOV	A,R7
17FB  FF          MOV	A,R7
17FC  FF          MOV	A,R7
17FD  FF          MOV	A,R7
17FE  FF          MOV	A,R7
17FF  FF          MOV	A,R7
1800  FF          MOV	A,R7
1801  FF          MOV	A,R7
1802  FF          MOV	A,R7
1803  FF          MOV	A,R7
1804  FF          MOV	A,R7
1805  FF          MOV	A,R7
1806  FF          MOV	A,R7
1807  FF          MOV	A,R7
1808  FF          MOV	A,R7
1809  FF          MOV	A,R7
180A  FF          MOV	A,R7
180B  FF          MOV	A,R7
180C  FF          MOV	A,R7
180D  FF          MOV	A,R7
180E  FF          MOV	A,R7
180F  FF          MOV	A,R7
1810  FF          MOV	A,R7
1811  FF          MOV	A,R7
1812  FF          MOV	A,R7
1813  FF          MOV	A,R7
1814  FF          MOV	A,R7
1815  FF          MOV	A,R7
1816  FF          MOV	A,R7
1817  FF          MOV	A,R7
1818  FF          MOV	A,R7
1819  FF          MOV	A,R7
181A  FF          MOV	A,R7
181B  FF          MOV	A,R7
181C  FF          MOV	A,R7
181D  FF          MOV	A,R7
181E  FF          MOV	A,R7
181F  FF          MOV	A,R7
1820  FF          MOV	A,R7
1821  FF          MOV	A,R7
1822  FF          MOV	A,R7
1823  FF          MOV	A,R7
1824  FF          MOV	A,R7
1825  FF          MOV	A,R7
1826  FF          MOV	A,R7
1827  FF          MOV	A,R7
1828  FF          MOV	A,R7
1829  FF          MOV	A,R7
182A  FF          MOV	A,R7
182B  FF          MOV	A,R7
182C  FF          MOV	A,R7
182D  FF          MOV	A,R7
182E  FF          MOV	A,R7
182F  FF          MOV	A,R7
1830  FF          MOV	A,R7
1831  FF          MOV	A,R7
1832  FF          MOV	A,R7
1833  FF          MOV	A,R7
1834  FF          MOV	A,R7
1835  FF          MOV	A,R7
1836  FF          MOV	A,R7
1837  FF          MOV	A,R7
1838  FF          MOV	A,R7
1839  FF          MOV	A,R7
183A  FF          MOV	A,R7
183B  FF          MOV	A,R7
183C  FF          MOV	A,R7
183D  FF          MOV	A,R7
183E  FF          MOV	A,R7
183F  FF          MOV	A,R7
1840  FF          MOV	A,R7
1841  FF          MOV	A,R7
1842  FF          MOV	A,R7
1843  FF          MOV	A,R7
1844  FF          MOV	A,R7
1845  FF          MOV	A,R7
1846  FF          MOV	A,R7
1847  FF          MOV	A,R7
1848  FF          MOV	A,R7
1849  FF          MOV	A,R7
184A  FF          MOV	A,R7
184B  FF          MOV	A,R7
184C  FF          MOV	A,R7
184D  FF          MOV	A,R7
184E  FF          MOV	A,R7
184F  FF          MOV	A,R7
1850  FF          MOV	A,R7
1851  FF          MOV	A,R7
1852  FF          MOV	A,R7
1853  FF          MOV	A,R7
1854  FF          MOV	A,R7
1855  FF          MOV	A,R7
1856  FF          MOV	A,R7
1857  FF          MOV	A,R7
1858  FF          MOV	A,R7
1859  FF          MOV	A,R7
185A  FF          MOV	A,R7
185B  FF          MOV	A,R7
185C  FF          MOV	A,R7
185D  FF          MOV	A,R7
185E  FF          MOV	A,R7
185F  FF          MOV	A,R7
1860  FF          MOV	A,R7
1861  FF          MOV	A,R7
1862  FF          MOV	A,R7
1863  FF          MOV	A,R7
1864  FF          MOV	A,R7
1865  FF          MOV	A,R7
1866  FF          MOV	A,R7
1867  FF          MOV	A,R7
1868  FF          MOV	A,R7
1869  FF          MOV	A,R7
186A  FF          MOV	A,R7
186B  FF          MOV	A,R7
186C  FF          MOV	A,R7
186D  FF          MOV	A,R7
186E  FF          MOV	A,R7
186F  FF          MOV	A,R7
1870  FF          MOV	A,R7
1871  FF          MOV	A,R7
1872  FF          MOV	A,R7
1873  FF          MOV	A,R7
1874  FF          MOV	A,R7
1875  FF          MOV	A,R7
1876  FF          MOV	A,R7
1877  FF          MOV	A,R7
1878  FF          MOV	A,R7
1879  FF          MOV	A,R7
187A  FF          MOV	A,R7
187B  FF          MOV	A,R7
187C  FF          MOV	A,R7
187D  FF          MOV	A,R7
187E  FF          MOV	A,R7
187F  FF          MOV	A,R7
1880  FF          MOV	A,R7
1881  FF          MOV	A,R7
1882  FF          MOV	A,R7
1883  FF          MOV	A,R7
1884  FF          MOV	A,R7
1885  FF          MOV	A,R7
1886  FF          MOV	A,R7
1887  FF          MOV	A,R7
1888  FF          MOV	A,R7
1889  FF          MOV	A,R7
188A  FF          MOV	A,R7
188B  FF          MOV	A,R7
188C  FF          MOV	A,R7
188D  FF          MOV	A,R7
188E  FF          MOV	A,R7
188F  FF          MOV	A,R7
1890  FF          MOV	A,R7
1891  FF          MOV	A,R7
1892  FF          MOV	A,R7
1893  FF          MOV	A,R7
1894  FF          MOV	A,R7
1895  FF          MOV	A,R7
1896  FF          MOV	A,R7
1897  FF          MOV	A,R7
1898  FF          MOV	A,R7
1899  FF          MOV	A,R7
189A  FF          MOV	A,R7
189B  FF          MOV	A,R7
189C  FF          MOV	A,R7
189D  FF          MOV	A,R7
189E  FF          MOV	A,R7
189F  FF          MOV	A,R7
18A0  FF          MOV	A,R7
18A1  FF          MOV	A,R7
18A2  FF          MOV	A,R7
18A3  FF          MOV	A,R7
18A4  FF          MOV	A,R7
18A5  FF          MOV	A,R7
18A6  FF          MOV	A,R7
18A7  FF          MOV	A,R7
18A8  FF          MOV	A,R7
18A9  FF          MOV	A,R7
18AA  FF          MOV	A,R7
18AB  FF          MOV	A,R7
18AC  FF          MOV	A,R7
18AD  FF          MOV	A,R7
18AE  FF          MOV	A,R7
18AF  FF          MOV	A,R7
18B0  FF          MOV	A,R7
18B1  FF          MOV	A,R7
18B2  FF          MOV	A,R7
18B3  FF          MOV	A,R7
18B4  FF          MOV	A,R7
18B5  FF          MOV	A,R7
18B6  FF          MOV	A,R7
18B7  FF          MOV	A,R7
18B8  FF          MOV	A,R7
18B9  FF          MOV	A,R7
18BA  FF          MOV	A,R7
18BB  FF          MOV	A,R7
18BC  FF          MOV	A,R7
18BD  FF          MOV	A,R7
18BE  FF          MOV	A,R7
18BF  FF          MOV	A,R7
18C0  FF          MOV	A,R7
18C1  FF          MOV	A,R7
18C2  FF          MOV	A,R7
18C3  FF          MOV	A,R7
18C4  FF          MOV	A,R7
18C5  FF          MOV	A,R7
18C6  FF          MOV	A,R7
18C7  FF          MOV	A,R7
18C8  FF          MOV	A,R7
18C9  FF          MOV	A,R7
18CA  FF          MOV	A,R7
18CB  FF          MOV	A,R7
18CC  FF          MOV	A,R7
18CD  FF          MOV	A,R7
18CE  FF          MOV	A,R7
18CF  FF          MOV	A,R7
18D0  FF          MOV	A,R7
18D1  FF          MOV	A,R7
18D2  FF          MOV	A,R7
18D3  FF          MOV	A,R7
18D4  FF          MOV	A,R7
18D5  FF          MOV	A,R7
18D6  FF          MOV	A,R7
18D7  FF          MOV	A,R7
18D8  FF          MOV	A,R7
18D9  FF          MOV	A,R7
18DA  FF          MOV	A,R7
18DB  FF          MOV	A,R7
18DC  FF          MOV	A,R7
18DD  FF          MOV	A,R7
18DE  FF          MOV	A,R7
18DF  FF          MOV	A,R7
18E0  FF          MOV	A,R7
18E1  FF          MOV	A,R7
18E2  FF          MOV	A,R7
18E3  FF          MOV	A,R7
18E4  FF          MOV	A,R7
18E5  FF          MOV	A,R7
18E6  FF          MOV	A,R7
18E7  FF          MOV	A,R7
18E8  FF          MOV	A,R7
18E9  FF          MOV	A,R7
18EA  FF          MOV	A,R7
18EB  FF          MOV	A,R7
18EC  FF          MOV	A,R7
18ED  FF          MOV	A,R7
18EE  FF          MOV	A,R7
18EF  FF          MOV	A,R7
18F0  FF          MOV	A,R7
18F1  FF          MOV	A,R7
18F2  FF          MOV	A,R7
18F3  FF          MOV	A,R7
18F4  FF          MOV	A,R7
18F5  FF          MOV	A,R7
18F6  FF          MOV	A,R7
18F7  FF          MOV	A,R7
18F8  FF          MOV	A,R7
18F9  FF          MOV	A,R7
18FA  FF          MOV	A,R7
18FB  FF          MOV	A,R7
18FC  FF          MOV	A,R7
18FD  FF          MOV	A,R7
18FE  FF          MOV	A,R7
18FF  FF          MOV	A,R7
1900  FF          MOV	A,R7
1901  FF          MOV	A,R7
1902  FF          MOV	A,R7
1903  FF          MOV	A,R7
1904  FF          MOV	A,R7
1905  FF          MOV	A,R7
1906  FF          MOV	A,R7
1907  FF          MOV	A,R7
1908  FF          MOV	A,R7
1909  FF          MOV	A,R7
190A  FF          MOV	A,R7
190B  FF          MOV	A,R7
190C  FF          MOV	A,R7
190D  FF          MOV	A,R7
190E  FF          MOV	A,R7
190F  FF          MOV	A,R7
1910  FF          MOV	A,R7
1911  FF          MOV	A,R7
1912  FF          MOV	A,R7
1913  FF          MOV	A,R7
1914  FF          MOV	A,R7
1915  FF          MOV	A,R7
1916  FF          MOV	A,R7
1917  FF          MOV	A,R7
1918  FF          MOV	A,R7
1919  FF          MOV	A,R7
191A  FF          MOV	A,R7
191B  FF          MOV	A,R7
191C  FF          MOV	A,R7
191D  FF          MOV	A,R7
191E  FF          MOV	A,R7
191F  FF          MOV	A,R7
1920  FF          MOV	A,R7
1921  FF          MOV	A,R7
1922  FF          MOV	A,R7
1923  FF          MOV	A,R7
1924  FF          MOV	A,R7
1925  FF          MOV	A,R7
1926  FF          MOV	A,R7
1927  FF          MOV	A,R7
1928  FF          MOV	A,R7
1929  FF          MOV	A,R7
192A  FF          MOV	A,R7
192B  FF          MOV	A,R7
192C  FF          MOV	A,R7
192D  FF          MOV	A,R7
192E  FF          MOV	A,R7
192F  FF          MOV	A,R7
1930  FF          MOV	A,R7
1931  FF          MOV	A,R7
1932  FF          MOV	A,R7
1933  FF          MOV	A,R7
1934  FF          MOV	A,R7
1935  FF          MOV	A,R7
1936  FF          MOV	A,R7
1937  FF          MOV	A,R7
1938  FF          MOV	A,R7
1939  FF          MOV	A,R7
193A  FF          MOV	A,R7
193B  FF          MOV	A,R7
193C  FF          MOV	A,R7
193D  FF          MOV	A,R7
193E  FF          MOV	A,R7
193F  FF          MOV	A,R7
1940  FF          MOV	A,R7
1941  FF          MOV	A,R7
1942  FF          MOV	A,R7
1943  FF          MOV	A,R7
1944  FF          MOV	A,R7
1945  FF          MOV	A,R7
1946  FF          MOV	A,R7
1947  FF          MOV	A,R7
1948  FF          MOV	A,R7
1949  FF          MOV	A,R7
194A  FF          MOV	A,R7
194B  FF          MOV	A,R7
194C  FF          MOV	A,R7
194D  FF          MOV	A,R7
194E  FF          MOV	A,R7
194F  FF          MOV	A,R7
1950  FF          MOV	A,R7
1951  FF          MOV	A,R7
1952  FF          MOV	A,R7
1953  FF          MOV	A,R7
1954  FF          MOV	A,R7
1955  FF          MOV	A,R7
1956  FF          MOV	A,R7
1957  FF          MOV	A,R7
1958  FF          MOV	A,R7
1959  FF          MOV	A,R7
195A  FF          MOV	A,R7
195B  FF          MOV	A,R7
195C  FF          MOV	A,R7
195D  FF          MOV	A,R7
195E  FF          MOV	A,R7
195F  FF          MOV	A,R7
1960  FF          MOV	A,R7
1961  FF          MOV	A,R7
1962  FF          MOV	A,R7
1963  FF          MOV	A,R7
1964  FF          MOV	A,R7
1965  FF          MOV	A,R7
1966  FF          MOV	A,R7
1967  FF          MOV	A,R7
1968  FF          MOV	A,R7
1969  FF          MOV	A,R7
196A  FF          MOV	A,R7
196B  FF          MOV	A,R7
196C  FF          MOV	A,R7
196D  FF          MOV	A,R7
196E  FF          MOV	A,R7
196F  FF          MOV	A,R7
1970  FF          MOV	A,R7
1971  FF          MOV	A,R7
1972  FF          MOV	A,R7
1973  FF          MOV	A,R7
1974  FF          MOV	A,R7
1975  FF          MOV	A,R7
1976  FF          MOV	A,R7
1977  FF          MOV	A,R7
1978  FF          MOV	A,R7
1979  FF          MOV	A,R7
197A  FF          MOV	A,R7
197B  FF          MOV	A,R7
197C  FF          MOV	A,R7
197D  FF          MOV	A,R7
197E  FF          MOV	A,R7
197F  FF          MOV	A,R7
1980  FF          MOV	A,R7
1981  FF          MOV	A,R7
1982  FF          MOV	A,R7
1983  FF          MOV	A,R7
1984  FF          MOV	A,R7
1985  FF          MOV	A,R7
1986  FF          MOV	A,R7
1987  FF          MOV	A,R7
1988  FF          MOV	A,R7
1989  FF          MOV	A,R7
198A  FF          MOV	A,R7
198B  FF          MOV	A,R7
198C  FF          MOV	A,R7
198D  FF          MOV	A,R7
198E  FF          MOV	A,R7
198F  FF          MOV	A,R7
1990  FF          MOV	A,R7
1991  FF          MOV	A,R7
1992  FF          MOV	A,R7
1993  FF          MOV	A,R7
1994  FF          MOV	A,R7
1995  FF          MOV	A,R7
1996  FF          MOV	A,R7
1997  FF          MOV	A,R7
1998  FF          MOV	A,R7
1999  FF          MOV	A,R7
199A  FF          MOV	A,R7
199B  FF          MOV	A,R7
199C  FF          MOV	A,R7
199D  FF          MOV	A,R7
199E  FF          MOV	A,R7
199F  FF          MOV	A,R7
19A0  FF          MOV	A,R7
19A1  FF          MOV	A,R7
19A2  FF          MOV	A,R7
19A3  FF          MOV	A,R7
19A4  FF          MOV	A,R7
19A5  FF          MOV	A,R7
19A6  FF          MOV	A,R7
19A7  FF          MOV	A,R7
19A8  FF          MOV	A,R7
19A9  FF          MOV	A,R7
19AA  FF          MOV	A,R7
19AB  FF          MOV	A,R7
19AC  FF          MOV	A,R7
19AD  FF          MOV	A,R7
19AE  FF          MOV	A,R7
19AF  FF          MOV	A,R7
19B0  FF          MOV	A,R7
19B1  FF          MOV	A,R7
19B2  FF          MOV	A,R7
19B3  FF          MOV	A,R7
19B4  FF          MOV	A,R7
19B5  FF          MOV	A,R7
19B6  FF          MOV	A,R7
19B7  FF          MOV	A,R7
19B8  FF          MOV	A,R7
19B9  FF          MOV	A,R7
19BA  FF          MOV	A,R7
19BB  FF          MOV	A,R7
19BC  FF          MOV	A,R7
19BD  FF          MOV	A,R7
19BE  FF          MOV	A,R7
19BF  FF          MOV	A,R7
19C0  FF          MOV	A,R7
19C1  FF          MOV	A,R7
19C2  FF          MOV	A,R7
19C3  FF          MOV	A,R7
19C4  FF          MOV	A,R7
19C5  FF          MOV	A,R7
19C6  FF          MOV	A,R7
19C7  FF          MOV	A,R7
19C8  FF          MOV	A,R7
19C9  FF          MOV	A,R7
19CA  FF          MOV	A,R7
19CB  FF          MOV	A,R7
19CC  FF          MOV	A,R7
19CD  FF          MOV	A,R7
19CE  FF          MOV	A,R7
19CF  FF          MOV	A,R7
19D0  FF          MOV	A,R7
19D1  FF          MOV	A,R7
19D2  FF          MOV	A,R7
19D3  FF          MOV	A,R7
19D4  FF          MOV	A,R7
19D5  FF          MOV	A,R7
19D6  FF          MOV	A,R7
19D7  FF          MOV	A,R7
19D8  FF          MOV	A,R7
19D9  FF          MOV	A,R7
19DA  FF          MOV	A,R7
19DB  FF          MOV	A,R7
19DC  FF          MOV	A,R7
19DD  FF          MOV	A,R7
19DE  FF          MOV	A,R7
19DF  FF          MOV	A,R7
19E0  FF          MOV	A,R7
19E1  FF          MOV	A,R7
19E2  FF          MOV	A,R7
19E3  FF          MOV	A,R7
19E4  FF          MOV	A,R7
19E5  FF          MOV	A,R7
19E6  FF          MOV	A,R7
19E7  FF          MOV	A,R7
19E8  FF          MOV	A,R7
19E9  FF          MOV	A,R7
19EA  FF          MOV	A,R7
19EB  FF          MOV	A,R7
19EC  FF          MOV	A,R7
19ED  FF          MOV	A,R7
19EE  FF          MOV	A,R7
19EF  FF          MOV	A,R7
19F0  FF          MOV	A,R7
19F1  FF          MOV	A,R7
19F2  FF          MOV	A,R7
19F3  FF          MOV	A,R7
19F4  FF          MOV	A,R7
19F5  FF          MOV	A,R7
19F6  FF          MOV	A,R7
19F7  FF          MOV	A,R7
19F8  FF          MOV	A,R7
19F9  FF          MOV	A,R7
19FA  FF          MOV	A,R7
19FB  FF          MOV	A,R7
19FC  FF          MOV	A,R7
19FD  FF          MOV	A,R7
19FE  FF          MOV	A,R7
19FF  FF          MOV	A,R7
1A00  FF          MOV	A,R7
1A01  FF          MOV	A,R7
1A02  FF          MOV	A,R7
1A03  FF          MOV	A,R7
1A04  FF          MOV	A,R7
1A05  FF          MOV	A,R7
1A06  FF          MOV	A,R7
1A07  FF          MOV	A,R7
1A08  FF          MOV	A,R7
1A09  FF          MOV	A,R7
1A0A  FF          MOV	A,R7
1A0B  FF          MOV	A,R7
1A0C  FF          MOV	A,R7
1A0D  FF          MOV	A,R7
1A0E  FF          MOV	A,R7
1A0F  FF          MOV	A,R7
1A10  FF          MOV	A,R7
1A11  FF          MOV	A,R7
1A12  FF          MOV	A,R7
1A13  FF          MOV	A,R7
1A14  FF          MOV	A,R7
1A15  FF          MOV	A,R7
1A16  FF          MOV	A,R7
1A17  FF          MOV	A,R7
1A18  FF          MOV	A,R7
1A19  FF          MOV	A,R7
1A1A  FF          MOV	A,R7
1A1B  FF          MOV	A,R7
1A1C  FF          MOV	A,R7
1A1D  FF          MOV	A,R7
1A1E  FF          MOV	A,R7
1A1F  FF          MOV	A,R7
1A20  FF          MOV	A,R7
1A21  FF          MOV	A,R7
1A22  FF          MOV	A,R7
1A23  FF          MOV	A,R7
1A24  FF          MOV	A,R7
1A25  FF          MOV	A,R7
1A26  FF          MOV	A,R7
1A27  FF          MOV	A,R7
1A28  FF          MOV	A,R7
1A29  FF          MOV	A,R7
1A2A  FF          MOV	A,R7
1A2B  FF          MOV	A,R7
1A2C  FF          MOV	A,R7
1A2D  FF          MOV	A,R7
1A2E  FF          MOV	A,R7
1A2F  FF          MOV	A,R7
1A30  FF          MOV	A,R7
1A31  FF          MOV	A,R7
1A32  FF          MOV	A,R7
1A33  FF          MOV	A,R7
1A34  FF          MOV	A,R7
1A35  FF          MOV	A,R7
1A36  FF          MOV	A,R7
1A37  FF          MOV	A,R7
1A38  FF          MOV	A,R7
1A39  FF          MOV	A,R7
1A3A  FF          MOV	A,R7
1A3B  FF          MOV	A,R7
1A3C  FF          MOV	A,R7
1A3D  FF          MOV	A,R7
1A3E  FF          MOV	A,R7
1A3F  FF          MOV	A,R7
1A40  FF          MOV	A,R7
1A41  FF          MOV	A,R7
1A42  FF          MOV	A,R7
1A43  FF          MOV	A,R7
1A44  FF          MOV	A,R7
1A45  FF          MOV	A,R7
1A46  FF          MOV	A,R7
1A47  FF          MOV	A,R7
1A48  FF          MOV	A,R7
1A49  FF          MOV	A,R7
1A4A  FF          MOV	A,R7
1A4B  FF          MOV	A,R7
1A4C  FF          MOV	A,R7
1A4D  FF          MOV	A,R7
1A4E  FF          MOV	A,R7
1A4F  FF          MOV	A,R7
1A50  FF          MOV	A,R7
1A51  FF          MOV	A,R7
1A52  FF          MOV	A,R7
1A53  FF          MOV	A,R7
1A54  FF          MOV	A,R7
1A55  FF          MOV	A,R7
1A56  FF          MOV	A,R7
1A57  FF          MOV	A,R7
1A58  FF          MOV	A,R7
1A59  FF          MOV	A,R7
1A5A  FF          MOV	A,R7
1A5B  FF          MOV	A,R7
1A5C  FF          MOV	A,R7
1A5D  FF          MOV	A,R7
1A5E  FF          MOV	A,R7
1A5F  FF          MOV	A,R7
1A60  FF          MOV	A,R7
1A61  FF          MOV	A,R7
1A62  FF          MOV	A,R7
1A63  FF          MOV	A,R7
1A64  FF          MOV	A,R7
1A65  FF          MOV	A,R7
1A66  FF          MOV	A,R7
1A67  FF          MOV	A,R7
1A68  FF          MOV	A,R7
1A69  FF          MOV	A,R7
1A6A  FF          MOV	A,R7
1A6B  FF          MOV	A,R7
1A6C  FF          MOV	A,R7
1A6D  FF          MOV	A,R7
1A6E  FF          MOV	A,R7
1A6F  FF          MOV	A,R7
1A70  FF          MOV	A,R7
1A71  FF          MOV	A,R7
1A72  FF          MOV	A,R7
1A73  FF          MOV	A,R7
1A74  FF          MOV	A,R7
1A75  FF          MOV	A,R7
1A76  FF          MOV	A,R7
1A77  FF          MOV	A,R7
1A78  FF          MOV	A,R7
1A79  FF          MOV	A,R7
1A7A  FF          MOV	A,R7
1A7B  FF          MOV	A,R7
1A7C  FF          MOV	A,R7
1A7D  FF          MOV	A,R7
1A7E  FF          MOV	A,R7
1A7F  FF          MOV	A,R7
1A80  FF          MOV	A,R7
1A81  FF          MOV	A,R7
1A82  FF          MOV	A,R7
1A83  FF          MOV	A,R7
1A84  FF          MOV	A,R7
1A85  FF          MOV	A,R7
1A86  FF          MOV	A,R7
1A87  FF          MOV	A,R7
1A88  FF          MOV	A,R7
1A89  FF          MOV	A,R7
1A8A  FF          MOV	A,R7
1A8B  FF          MOV	A,R7
1A8C  FF          MOV	A,R7
1A8D  FF          MOV	A,R7
1A8E  FF          MOV	A,R7
1A8F  FF          MOV	A,R7
1A90  FF          MOV	A,R7
1A91  FF          MOV	A,R7
1A92  FF          MOV	A,R7
1A93  FF          MOV	A,R7
1A94  FF          MOV	A,R7
1A95  FF          MOV	A,R7
1A96  FF          MOV	A,R7
1A97  FF          MOV	A,R7
1A98  FF          MOV	A,R7
1A99  FF          MOV	A,R7
1A9A  FF          MOV	A,R7
1A9B  FF          MOV	A,R7
1A9C  FF          MOV	A,R7
1A9D  FF          MOV	A,R7
1A9E  FF          MOV	A,R7
1A9F  FF          MOV	A,R7
1AA0  FF          MOV	A,R7
1AA1  FF          MOV	A,R7
1AA2  FF          MOV	A,R7
1AA3  FF          MOV	A,R7
1AA4  FF          MOV	A,R7
1AA5  FF          MOV	A,R7
1AA6  FF          MOV	A,R7
1AA7  FF          MOV	A,R7
1AA8  FF          MOV	A,R7
1AA9  FF          MOV	A,R7
1AAA  FF          MOV	A,R7
1AAB  FF          MOV	A,R7
1AAC  FF          MOV	A,R7
1AAD  FF          MOV	A,R7
1AAE  FF          MOV	A,R7
1AAF  FF          MOV	A,R7
1AB0  FF          MOV	A,R7
1AB1  FF          MOV	A,R7
1AB2  FF          MOV	A,R7
1AB3  FF          MOV	A,R7
1AB4  FF          MOV	A,R7
1AB5  FF          MOV	A,R7
1AB6  FF          MOV	A,R7
1AB7  FF          MOV	A,R7
1AB8  FF          MOV	A,R7
1AB9  FF          MOV	A,R7
1ABA  FF          MOV	A,R7
1ABB  FF          MOV	A,R7
1ABC  FF          MOV	A,R7
1ABD  FF          MOV	A,R7
1ABE  FF          MOV	A,R7
1ABF  FF          MOV	A,R7
1AC0  FF          MOV	A,R7
1AC1  FF          MOV	A,R7
1AC2  FF          MOV	A,R7
1AC3  FF          MOV	A,R7
1AC4  FF          MOV	A,R7
1AC5  FF          MOV	A,R7
1AC6  FF          MOV	A,R7
1AC7  FF          MOV	A,R7
1AC8  FF          MOV	A,R7
1AC9  FF          MOV	A,R7
1ACA  FF          MOV	A,R7
1ACB  FF          MOV	A,R7
1ACC  FF          MOV	A,R7
1ACD  FF          MOV	A,R7
1ACE  FF          MOV	A,R7
1ACF  FF          MOV	A,R7
1AD0  FF          MOV	A,R7
1AD1  FF          MOV	A,R7
1AD2  FF          MOV	A,R7
1AD3  FF          MOV	A,R7
1AD4  FF          MOV	A,R7
1AD5  FF          MOV	A,R7
1AD6  FF          MOV	A,R7
1AD7  FF          MOV	A,R7
1AD8  FF          MOV	A,R7
1AD9  FF          MOV	A,R7
1ADA  FF          MOV	A,R7
1ADB  FF          MOV	A,R7
1ADC  FF          MOV	A,R7
1ADD  FF          MOV	A,R7
1ADE  FF          MOV	A,R7
1ADF  FF          MOV	A,R7
1AE0  FF          MOV	A,R7
1AE1  FF          MOV	A,R7
1AE2  FF          MOV	A,R7
1AE3  FF          MOV	A,R7
1AE4  FF          MOV	A,R7
1AE5  FF          MOV	A,R7
1AE6  FF          MOV	A,R7
1AE7  FF          MOV	A,R7
1AE8  FF          MOV	A,R7
1AE9  FF          MOV	A,R7
1AEA  FF          MOV	A,R7
1AEB  FF          MOV	A,R7
1AEC  FF          MOV	A,R7
1AED  FF          MOV	A,R7
1AEE  FF          MOV	A,R7
1AEF  FF          MOV	A,R7
1AF0  FF          MOV	A,R7
1AF1  FF          MOV	A,R7
1AF2  FF          MOV	A,R7
1AF3  FF          MOV	A,R7
1AF4  FF          MOV	A,R7
1AF5  FF          MOV	A,R7
1AF6  FF          MOV	A,R7
1AF7  FF          MOV	A,R7
1AF8  FF          MOV	A,R7
1AF9  FF          MOV	A,R7
1AFA  FF          MOV	A,R7
1AFB  FF          MOV	A,R7
1AFC  FF          MOV	A,R7
1AFD  FF          MOV	A,R7
1AFE  FF          MOV	A,R7
1AFF  FF          MOV	A,R7
1B00  FF          MOV	A,R7
1B01  FF          MOV	A,R7
1B02  FF          MOV	A,R7
1B03  FF          MOV	A,R7
1B04  FF          MOV	A,R7
1B05  FF          MOV	A,R7
1B06  FF          MOV	A,R7
1B07  FF          MOV	A,R7
1B08  FF          MOV	A,R7
1B09  FF          MOV	A,R7
1B0A  FF          MOV	A,R7
1B0B  FF          MOV	A,R7
1B0C  FF          MOV	A,R7
1B0D  FF          MOV	A,R7
1B0E  FF          MOV	A,R7
1B0F  FF          MOV	A,R7
1B10  FF          MOV	A,R7
1B11  FF          MOV	A,R7
1B12  FF          MOV	A,R7
1B13  FF          MOV	A,R7
1B14  FF          MOV	A,R7
1B15  FF          MOV	A,R7
1B16  FF          MOV	A,R7
1B17  FF          MOV	A,R7
1B18  FF          MOV	A,R7
1B19  FF          MOV	A,R7
1B1A  FF          MOV	A,R7
1B1B  FF          MOV	A,R7
1B1C  FF          MOV	A,R7
1B1D  FF          MOV	A,R7
1B1E  FF          MOV	A,R7
1B1F  FF          MOV	A,R7
1B20  FF          MOV	A,R7
1B21  FF          MOV	A,R7
1B22  FF          MOV	A,R7
1B23  FF          MOV	A,R7
1B24  FF          MOV	A,R7
1B25  FF          MOV	A,R7
1B26  FF          MOV	A,R7
1B27  FF          MOV	A,R7
1B28  FF          MOV	A,R7
1B29  FF          MOV	A,R7
1B2A  FF          MOV	A,R7
1B2B  FF          MOV	A,R7
1B2C  FF          MOV	A,R7
1B2D  FF          MOV	A,R7
1B2E  FF          MOV	A,R7
1B2F  FF          MOV	A,R7
1B30  FF          MOV	A,R7
1B31  FF          MOV	A,R7
1B32  FF          MOV	A,R7
1B33  FF          MOV	A,R7
1B34  FF          MOV	A,R7
1B35  FF          MOV	A,R7
1B36  FF          MOV	A,R7
1B37  FF          MOV	A,R7
1B38  FF          MOV	A,R7
1B39  FF          MOV	A,R7
1B3A  FF          MOV	A,R7
1B3B  FF          MOV	A,R7
1B3C  FF          MOV	A,R7
1B3D  FF          MOV	A,R7
1B3E  FF          MOV	A,R7
1B3F  FF          MOV	A,R7
1B40  FF          MOV	A,R7
1B41  FF          MOV	A,R7
1B42  FF          MOV	A,R7
1B43  FF          MOV	A,R7
1B44  FF          MOV	A,R7
1B45  FF          MOV	A,R7
1B46  FF          MOV	A,R7
1B47  FF          MOV	A,R7
1B48  FF          MOV	A,R7
1B49  FF          MOV	A,R7
1B4A  FF          MOV	A,R7
1B4B  FF          MOV	A,R7
1B4C  FF          MOV	A,R7
1B4D  FF          MOV	A,R7
1B4E  FF          MOV	A,R7
1B4F  FF          MOV	A,R7
1B50  FF          MOV	A,R7
1B51  FF          MOV	A,R7
1B52  FF          MOV	A,R7
1B53  FF          MOV	A,R7
1B54  FF          MOV	A,R7
1B55  FF          MOV	A,R7
1B56  FF          MOV	A,R7
1B57  FF          MOV	A,R7
1B58  FF          MOV	A,R7
1B59  FF          MOV	A,R7
1B5A  FF          MOV	A,R7
1B5B  FF          MOV	A,R7
1B5C  FF          MOV	A,R7
1B5D  FF          MOV	A,R7
1B5E  FF          MOV	A,R7
1B5F  FF          MOV	A,R7
1B60  FF          MOV	A,R7
1B61  FF          MOV	A,R7
1B62  FF          MOV	A,R7
1B63  FF          MOV	A,R7
1B64  FF          MOV	A,R7
1B65  FF          MOV	A,R7
1B66  FF          MOV	A,R7
1B67  FF          MOV	A,R7
1B68  FF          MOV	A,R7
1B69  FF          MOV	A,R7
1B6A  FF          MOV	A,R7
1B6B  FF          MOV	A,R7
1B6C  FF          MOV	A,R7
1B6D  FF          MOV	A,R7
1B6E  FF          MOV	A,R7
1B6F  FF          MOV	A,R7
1B70  FF          MOV	A,R7
1B71  FF          MOV	A,R7
1B72  FF          MOV	A,R7
1B73  FF          MOV	A,R7
1B74  FF          MOV	A,R7
1B75  FF          MOV	A,R7
1B76  FF          MOV	A,R7
1B77  FF          MOV	A,R7
1B78  FF          MOV	A,R7
1B79  FF          MOV	A,R7
1B7A  FF          MOV	A,R7
1B7B  FF          MOV	A,R7
1B7C  FF          MOV	A,R7
1B7D  FF          MOV	A,R7
1B7E  FF          MOV	A,R7
1B7F  FF          MOV	A,R7
1B80  FF          MOV	A,R7
1B81  FF          MOV	A,R7
1B82  FF          MOV	A,R7
1B83  FF          MOV	A,R7
1B84  FF          MOV	A,R7
1B85  FF          MOV	A,R7
1B86  FF          MOV	A,R7
1B87  FF          MOV	A,R7
1B88  FF          MOV	A,R7
1B89  FF          MOV	A,R7
1B8A  FF          MOV	A,R7
1B8B  FF          MOV	A,R7
1B8C  FF          MOV	A,R7
1B8D  FF          MOV	A,R7
1B8E  FF          MOV	A,R7
1B8F  FF          MOV	A,R7
1B90  FF          MOV	A,R7
1B91  FF          MOV	A,R7
1B92  FF          MOV	A,R7
1B93  FF          MOV	A,R7
1B94  FF          MOV	A,R7
1B95  FF          MOV	A,R7
1B96  FF          MOV	A,R7
1B97  FF          MOV	A,R7
1B98  FF          MOV	A,R7
1B99  FF          MOV	A,R7
1B9A  FF          MOV	A,R7
1B9B  FF          MOV	A,R7
1B9C  FF          MOV	A,R7
1B9D  FF          MOV	A,R7
1B9E  FF          MOV	A,R7
1B9F  FF          MOV	A,R7
1BA0  FF          MOV	A,R7
1BA1  FF          MOV	A,R7
1BA2  FF          MOV	A,R7
1BA3  FF          MOV	A,R7
1BA4  FF          MOV	A,R7
1BA5  FF          MOV	A,R7
1BA6  FF          MOV	A,R7
1BA7  FF          MOV	A,R7
1BA8  FF          MOV	A,R7
1BA9  FF          MOV	A,R7
1BAA  FF          MOV	A,R7
1BAB  FF          MOV	A,R7
1BAC  FF          MOV	A,R7
1BAD  FF          MOV	A,R7
1BAE  FF          MOV	A,R7
1BAF  FF          MOV	A,R7
1BB0  FF          MOV	A,R7
1BB1  FF          MOV	A,R7
1BB2  FF          MOV	A,R7
1BB3  FF          MOV	A,R7
1BB4  FF          MOV	A,R7
1BB5  FF          MOV	A,R7
1BB6  FF          MOV	A,R7
1BB7  FF          MOV	A,R7
1BB8  FF          MOV	A,R7
1BB9  FF          MOV	A,R7
1BBA  FF          MOV	A,R7
1BBB  FF          MOV	A,R7
1BBC  FF          MOV	A,R7
1BBD  FF          MOV	A,R7
1BBE  FF          MOV	A,R7
1BBF  FF          MOV	A,R7
1BC0  FF          MOV	A,R7
1BC1  FF          MOV	A,R7
1BC2  FF          MOV	A,R7
1BC3  FF          MOV	A,R7
1BC4  FF          MOV	A,R7
1BC5  FF          MOV	A,R7
1BC6  FF          MOV	A,R7
1BC7  FF          MOV	A,R7
1BC8  FF          MOV	A,R7
1BC9  FF          MOV	A,R7
1BCA  FF          MOV	A,R7
1BCB  FF          MOV	A,R7
1BCC  FF          MOV	A,R7
1BCD  FF          MOV	A,R7
1BCE  FF          MOV	A,R7
1BCF  FF          MOV	A,R7
1BD0  FF          MOV	A,R7
1BD1  FF          MOV	A,R7
1BD2  FF          MOV	A,R7
1BD3  FF          MOV	A,R7
1BD4  FF          MOV	A,R7
1BD5  FF          MOV	A,R7
1BD6  FF          MOV	A,R7
1BD7  FF          MOV	A,R7
1BD8  FF          MOV	A,R7
1BD9  FF          MOV	A,R7
1BDA  FF          MOV	A,R7
1BDB  FF          MOV	A,R7
1BDC  FF          MOV	A,R7
1BDD  FF          MOV	A,R7
1BDE  FF          MOV	A,R7
1BDF  FF          MOV	A,R7
1BE0  FF          MOV	A,R7
1BE1  FF          MOV	A,R7
1BE2  FF          MOV	A,R7
1BE3  FF          MOV	A,R7
1BE4  FF          MOV	A,R7
1BE5  FF          MOV	A,R7
1BE6  FF          MOV	A,R7
1BE7  FF          MOV	A,R7
1BE8  FF          MOV	A,R7
1BE9  FF          MOV	A,R7
1BEA  FF          MOV	A,R7
1BEB  FF          MOV	A,R7
1BEC  FF          MOV	A,R7
1BED  FF          MOV	A,R7
1BEE  FF          MOV	A,R7
1BEF  FF          MOV	A,R7
1BF0  FF          MOV	A,R7
1BF1  FF          MOV	A,R7
1BF2  FF          MOV	A,R7
1BF3  FF          MOV	A,R7
1BF4  FF          MOV	A,R7
1BF5  FF          MOV	A,R7
1BF6  FF          MOV	A,R7
1BF7  FF          MOV	A,R7
1BF8  FF          MOV	A,R7
1BF9  FF          MOV	A,R7
1BFA  FF          MOV	A,R7
1BFB  FF          MOV	A,R7
1BFC  FF          MOV	A,R7
1BFD  FF          MOV	A,R7
1BFE  FF          MOV	A,R7
1BFF  FF          MOV	A,R7
1C00  FF          MOV	A,R7
1C01  FF          MOV	A,R7
1C02  FF          MOV	A,R7
1C03  FF          MOV	A,R7
1C04  FF          MOV	A,R7
1C05  FF          MOV	A,R7
1C06  FF          MOV	A,R7
1C07  FF          MOV	A,R7
1C08  FF          MOV	A,R7
1C09  FF          MOV	A,R7
1C0A  FF          MOV	A,R7
1C0B  FF          MOV	A,R7
1C0C  FF          MOV	A,R7
1C0D  FF          MOV	A,R7
1C0E  FF          MOV	A,R7
1C0F  FF          MOV	A,R7
1C10  FF          MOV	A,R7
1C11  FF          MOV	A,R7
1C12  FF          MOV	A,R7
1C13  FF          MOV	A,R7
1C14  FF          MOV	A,R7
1C15  FF          MOV	A,R7
1C16  FF          MOV	A,R7
1C17  FF          MOV	A,R7
1C18  FF          MOV	A,R7
1C19  FF          MOV	A,R7
1C1A  FF          MOV	A,R7
1C1B  FF          MOV	A,R7
1C1C  FF          MOV	A,R7
1C1D  FF          MOV	A,R7
1C1E  FF          MOV	A,R7
1C1F  FF          MOV	A,R7
1C20  FF          MOV	A,R7
1C21  FF          MOV	A,R7
1C22  FF          MOV	A,R7
1C23  FF          MOV	A,R7
1C24  FF          MOV	A,R7
1C25  FF          MOV	A,R7
1C26  FF          MOV	A,R7
1C27  FF          MOV	A,R7
1C28  FF          MOV	A,R7
1C29  FF          MOV	A,R7
1C2A  FF          MOV	A,R7
1C2B  FF          MOV	A,R7
1C2C  FF          MOV	A,R7
1C2D  FF          MOV	A,R7
1C2E  FF          MOV	A,R7
1C2F  FF          MOV	A,R7
1C30  FF          MOV	A,R7
1C31  FF          MOV	A,R7
1C32  FF          MOV	A,R7
1C33  FF          MOV	A,R7
1C34  FF          MOV	A,R7
1C35  FF          MOV	A,R7
1C36  FF          MOV	A,R7
1C37  FF          MOV	A,R7
1C38  FF          MOV	A,R7
1C39  FF          MOV	A,R7
1C3A  FF          MOV	A,R7
1C3B  FF          MOV	A,R7
1C3C  FF          MOV	A,R7
1C3D  FF          MOV	A,R7
1C3E  FF          MOV	A,R7
1C3F  FF          MOV	A,R7
1C40  FF          MOV	A,R7
1C41  FF          MOV	A,R7
1C42  FF          MOV	A,R7
1C43  FF          MOV	A,R7
1C44  FF          MOV	A,R7
1C45  FF          MOV	A,R7
1C46  FF          MOV	A,R7
1C47  FF          MOV	A,R7
1C48  FF          MOV	A,R7
1C49  FF          MOV	A,R7
1C4A  FF          MOV	A,R7
1C4B  FF          MOV	A,R7
1C4C  FF          MOV	A,R7
1C4D  FF          MOV	A,R7
1C4E  FF          MOV	A,R7
1C4F  FF          MOV	A,R7
1C50  FF          MOV	A,R7
1C51  FF          MOV	A,R7
1C52  FF          MOV	A,R7
1C53  FF          MOV	A,R7
1C54  FF          MOV	A,R7
1C55  FF          MOV	A,R7
1C56  FF          MOV	A,R7
1C57  FF          MOV	A,R7
1C58  FF          MOV	A,R7
1C59  FF          MOV	A,R7
1C5A  FF          MOV	A,R7
1C5B  FF          MOV	A,R7
1C5C  FF          MOV	A,R7
1C5D  FF          MOV	A,R7
1C5E  FF          MOV	A,R7
1C5F  FF          MOV	A,R7
1C60  FF          MOV	A,R7
1C61  FF          MOV	A,R7
1C62  FF          MOV	A,R7
1C63  FF          MOV	A,R7
1C64  FF          MOV	A,R7
1C65  FF          MOV	A,R7
1C66  FF          MOV	A,R7
1C67  FF          MOV	A,R7
1C68  FF          MOV	A,R7
1C69  FF          MOV	A,R7
1C6A  FF          MOV	A,R7
1C6B  FF          MOV	A,R7
1C6C  FF          MOV	A,R7
1C6D  FF          MOV	A,R7
1C6E  FF          MOV	A,R7
1C6F  FF          MOV	A,R7
1C70  FF          MOV	A,R7
1C71  FF          MOV	A,R7
1C72  FF          MOV	A,R7
1C73  FF          MOV	A,R7
1C74  FF          MOV	A,R7
1C75  FF          MOV	A,R7
1C76  FF          MOV	A,R7
1C77  FF          MOV	A,R7
1C78  FF          MOV	A,R7
1C79  FF          MOV	A,R7
1C7A  FF          MOV	A,R7
1C7B  FF          MOV	A,R7
1C7C  FF          MOV	A,R7
1C7D  FF          MOV	A,R7
1C7E  FF          MOV	A,R7
1C7F  FF          MOV	A,R7
1C80  FF          MOV	A,R7
1C81  FF          MOV	A,R7
1C82  FF          MOV	A,R7
1C83  FF          MOV	A,R7
1C84  FF          MOV	A,R7
1C85  FF          MOV	A,R7
1C86  FF          MOV	A,R7
1C87  FF          MOV	A,R7
1C88  FF          MOV	A,R7
1C89  FF          MOV	A,R7
1C8A  FF          MOV	A,R7
1C8B  FF          MOV	A,R7
1C8C  FF          MOV	A,R7
1C8D  FF          MOV	A,R7
1C8E  FF          MOV	A,R7
1C8F  FF          MOV	A,R7
1C90  FF          MOV	A,R7
1C91  FF          MOV	A,R7
1C92  FF          MOV	A,R7
1C93  FF          MOV	A,R7
1C94  FF          MOV	A,R7
1C95  FF          MOV	A,R7
1C96  FF          MOV	A,R7
1C97  FF          MOV	A,R7
1C98  FF          MOV	A,R7
1C99  FF          MOV	A,R7
1C9A  FF          MOV	A,R7
1C9B  FF          MOV	A,R7
1C9C  FF          MOV	A,R7
1C9D  FF          MOV	A,R7
1C9E  FF          MOV	A,R7
1C9F  FF          MOV	A,R7
1CA0  FF          MOV	A,R7
1CA1  FF          MOV	A,R7
1CA2  FF          MOV	A,R7
1CA3  FF          MOV	A,R7
1CA4  FF          MOV	A,R7
1CA5  FF          MOV	A,R7
1CA6  FF          MOV	A,R7
1CA7  FF          MOV	A,R7
1CA8  FF          MOV	A,R7
1CA9  FF          MOV	A,R7
1CAA  FF          MOV	A,R7
1CAB  FF          MOV	A,R7
1CAC  FF          MOV	A,R7
1CAD  FF          MOV	A,R7
1CAE  FF          MOV	A,R7
1CAF  FF          MOV	A,R7
1CB0  FF          MOV	A,R7
1CB1  FF          MOV	A,R7
1CB2  FF          MOV	A,R7
1CB3  FF          MOV	A,R7
1CB4  FF          MOV	A,R7
1CB5  FF          MOV	A,R7
1CB6  FF          MOV	A,R7
1CB7  FF          MOV	A,R7
1CB8  FF          MOV	A,R7
1CB9  FF          MOV	A,R7
1CBA  FF          MOV	A,R7
1CBB  FF          MOV	A,R7
1CBC  FF          MOV	A,R7
1CBD  FF          MOV	A,R7
1CBE  FF          MOV	A,R7
1CBF  FF          MOV	A,R7
1CC0  FF          MOV	A,R7
1CC1  FF          MOV	A,R7
1CC2  FF          MOV	A,R7
1CC3  FF          MOV	A,R7
1CC4  FF          MOV	A,R7
1CC5  FF          MOV	A,R7
1CC6  FF          MOV	A,R7
1CC7  FF          MOV	A,R7
1CC8  FF          MOV	A,R7
1CC9  FF          MOV	A,R7
1CCA  FF          MOV	A,R7
1CCB  FF          MOV	A,R7
1CCC  FF          MOV	A,R7
1CCD  FF          MOV	A,R7
1CCE  FF          MOV	A,R7
1CCF  FF          MOV	A,R7
1CD0  FF          MOV	A,R7
1CD1  FF          MOV	A,R7
1CD2  FF          MOV	A,R7
1CD3  FF          MOV	A,R7
1CD4  FF          MOV	A,R7
1CD5  FF          MOV	A,R7
1CD6  FF          MOV	A,R7
1CD7  FF          MOV	A,R7
1CD8  FF          MOV	A,R7
1CD9  FF          MOV	A,R7
1CDA  FF          MOV	A,R7
1CDB  FF          MOV	A,R7
1CDC  FF          MOV	A,R7
1CDD  FF          MOV	A,R7
1CDE  FF          MOV	A,R7
1CDF  FF          MOV	A,R7
1CE0  FF          MOV	A,R7
1CE1  FF          MOV	A,R7
1CE2  FF          MOV	A,R7
1CE3  FF          MOV	A,R7
1CE4  FF          MOV	A,R7
1CE5  FF          MOV	A,R7
1CE6  FF          MOV	A,R7
1CE7  FF          MOV	A,R7
1CE8  FF          MOV	A,R7
1CE9  FF          MOV	A,R7
1CEA  FF          MOV	A,R7
1CEB  FF          MOV	A,R7
1CEC  FF          MOV	A,R7
1CED  FF          MOV	A,R7
1CEE  FF          MOV	A,R7
1CEF  FF          MOV	A,R7
1CF0  FF          MOV	A,R7
1CF1  FF          MOV	A,R7
1CF2  FF          MOV	A,R7
1CF3  FF          MOV	A,R7
1CF4  FF          MOV	A,R7
1CF5  FF          MOV	A,R7
1CF6  FF          MOV	A,R7
1CF7  FF          MOV	A,R7
1CF8  FF          MOV	A,R7
1CF9  FF          MOV	A,R7
1CFA  FF          MOV	A,R7
1CFB  FF          MOV	A,R7
1CFC  FF          MOV	A,R7
1CFD  FF          MOV	A,R7
1CFE  FF          MOV	A,R7
1CFF  FF          MOV	A,R7
1D00  FF          MOV	A,R7
1D01  FF          MOV	A,R7
1D02  FF          MOV	A,R7
1D03  FF          MOV	A,R7
1D04  FF          MOV	A,R7
1D05  FF          MOV	A,R7
1D06  FF          MOV	A,R7
1D07  FF          MOV	A,R7
1D08  FF          MOV	A,R7
1D09  FF          MOV	A,R7
1D0A  FF          MOV	A,R7
1D0B  FF          MOV	A,R7
1D0C  FF          MOV	A,R7
1D0D  FF          MOV	A,R7
1D0E  FF          MOV	A,R7
1D0F  FF          MOV	A,R7
1D10  FF          MOV	A,R7
1D11  FF          MOV	A,R7
1D12  FF          MOV	A,R7
1D13  FF          MOV	A,R7
1D14  FF          MOV	A,R7
1D15  FF          MOV	A,R7
1D16  FF          MOV	A,R7
1D17  FF          MOV	A,R7
1D18  FF          MOV	A,R7
1D19  FF          MOV	A,R7
1D1A  FF          MOV	A,R7
1D1B  FF          MOV	A,R7
1D1C  FF          MOV	A,R7
1D1D  FF          MOV	A,R7
1D1E  FF          MOV	A,R7
1D1F  FF          MOV	A,R7
1D20  FF          MOV	A,R7
1D21  FF          MOV	A,R7
1D22  FF          MOV	A,R7
1D23  FF          MOV	A,R7
1D24  FF          MOV	A,R7
1D25  FF          MOV	A,R7
1D26  FF          MOV	A,R7
1D27  FF          MOV	A,R7
1D28  FF          MOV	A,R7
1D29  FF          MOV	A,R7
1D2A  FF          MOV	A,R7
1D2B  FF          MOV	A,R7
1D2C  FF          MOV	A,R7
1D2D  FF          MOV	A,R7
1D2E  FF          MOV	A,R7
1D2F  FF          MOV	A,R7
1D30  FF          MOV	A,R7
1D31  FF          MOV	A,R7
1D32  FF          MOV	A,R7
1D33  FF          MOV	A,R7
1D34  FF          MOV	A,R7
1D35  FF          MOV	A,R7
1D36  FF          MOV	A,R7
1D37  FF          MOV	A,R7
1D38  FF          MOV	A,R7
1D39  FF          MOV	A,R7
1D3A  FF          MOV	A,R7
1D3B  FF          MOV	A,R7
1D3C  FF          MOV	A,R7
1D3D  FF          MOV	A,R7
1D3E  FF          MOV	A,R7
1D3F  FF          MOV	A,R7
1D40  FF          MOV	A,R7
1D41  FF          MOV	A,R7
1D42  FF          MOV	A,R7
1D43  FF          MOV	A,R7
1D44  FF          MOV	A,R7
1D45  FF          MOV	A,R7
1D46  FF          MOV	A,R7
1D47  FF          MOV	A,R7
1D48  FF          MOV	A,R7
1D49  FF          MOV	A,R7
1D4A  FF          MOV	A,R7
1D4B  FF          MOV	A,R7
1D4C  FF          MOV	A,R7
1D4D  FF          MOV	A,R7
1D4E  FF          MOV	A,R7
1D4F  FF          MOV	A,R7
1D50  FF          MOV	A,R7
1D51  FF          MOV	A,R7
1D52  FF          MOV	A,R7
1D53  FF          MOV	A,R7
1D54  FF          MOV	A,R7
1D55  FF          MOV	A,R7
1D56  FF          MOV	A,R7
1D57  FF          MOV	A,R7
1D58  FF          MOV	A,R7
1D59  FF          MOV	A,R7
1D5A  FF          MOV	A,R7
1D5B  FF          MOV	A,R7
1D5C  FF          MOV	A,R7
1D5D  FF          MOV	A,R7
1D5E  FF          MOV	A,R7
1D5F  FF          MOV	A,R7
1D60  FF          MOV	A,R7
1D61  FF          MOV	A,R7
1D62  FF          MOV	A,R7
1D63  FF          MOV	A,R7
1D64  FF          MOV	A,R7
1D65  FF          MOV	A,R7
1D66  FF          MOV	A,R7
1D67  FF          MOV	A,R7
1D68  FF          MOV	A,R7
1D69  FF          MOV	A,R7
1D6A  FF          MOV	A,R7
1D6B  FF          MOV	A,R7
1D6C  FF          MOV	A,R7
1D6D  FF          MOV	A,R7
1D6E  FF          MOV	A,R7
1D6F  FF          MOV	A,R7
1D70  FF          MOV	A,R7
1D71  FF          MOV	A,R7
1D72  FF          MOV	A,R7
1D73  FF          MOV	A,R7
1D74  FF          MOV	A,R7
1D75  FF          MOV	A,R7
1D76  FF          MOV	A,R7
1D77  FF          MOV	A,R7
1D78  FF          MOV	A,R7
1D79  FF          MOV	A,R7
1D7A  FF          MOV	A,R7
1D7B  FF          MOV	A,R7
1D7C  FF          MOV	A,R7
1D7D  FF          MOV	A,R7
1D7E  FF          MOV	A,R7
1D7F  FF          MOV	A,R7
1D80  FF          MOV	A,R7
1D81  FF          MOV	A,R7
1D82  FF          MOV	A,R7
1D83  FF          MOV	A,R7
1D84  FF          MOV	A,R7
1D85  FF          MOV	A,R7
1D86  FF          MOV	A,R7
1D87  FF          MOV	A,R7
1D88  FF          MOV	A,R7
1D89  FF          MOV	A,R7
1D8A  FF          MOV	A,R7
1D8B  FF          MOV	A,R7
1D8C  FF          MOV	A,R7
1D8D  FF          MOV	A,R7
1D8E  FF          MOV	A,R7
1D8F  FF          MOV	A,R7
1D90  FF          MOV	A,R7
1D91  FF          MOV	A,R7
1D92  FF          MOV	A,R7
1D93  FF          MOV	A,R7
1D94  FF          MOV	A,R7
1D95  FF          MOV	A,R7
1D96  FF          MOV	A,R7
1D97  FF          MOV	A,R7
1D98  FF          MOV	A,R7
1D99  FF          MOV	A,R7
1D9A  FF          MOV	A,R7
1D9B  FF          MOV	A,R7
1D9C  FF          MOV	A,R7
1D9D  FF          MOV	A,R7
1D9E  FF          MOV	A,R7
1D9F  FF          MOV	A,R7
1DA0  FF          MOV	A,R7
1DA1  FF          MOV	A,R7
1DA2  FF          MOV	A,R7
1DA3  FF          MOV	A,R7
1DA4  FF          MOV	A,R7
1DA5  FF          MOV	A,R7
1DA6  FF          MOV	A,R7
1DA7  FF          MOV	A,R7
1DA8  FF          MOV	A,R7
1DA9  FF          MOV	A,R7
1DAA  FF          MOV	A,R7
1DAB  FF          MOV	A,R7
1DAC  FF          MOV	A,R7
1DAD  FF          MOV	A,R7
1DAE  FF          MOV	A,R7
1DAF  FF          MOV	A,R7
1DB0  FF          MOV	A,R7
1DB1  FF          MOV	A,R7
1DB2  FF          MOV	A,R7
1DB3  FF          MOV	A,R7
1DB4  FF          MOV	A,R7
1DB5  FF          MOV	A,R7
1DB6  FF          MOV	A,R7
1DB7  FF          MOV	A,R7
1DB8  FF          MOV	A,R7
1DB9  FF          MOV	A,R7
1DBA  FF          MOV	A,R7
1DBB  FF          MOV	A,R7
1DBC  FF          MOV	A,R7
1DBD  FF          MOV	A,R7
1DBE  FF          MOV	A,R7
1DBF  FF          MOV	A,R7
1DC0  FF          MOV	A,R7
1DC1  FF          MOV	A,R7
1DC2  FF          MOV	A,R7
1DC3  FF          MOV	A,R7
1DC4  FF          MOV	A,R7
1DC5  FF          MOV	A,R7
1DC6  FF          MOV	A,R7
1DC7  FF          MOV	A,R7
1DC8  FF          MOV	A,R7
1DC9  FF          MOV	A,R7
1DCA  FF          MOV	A,R7
1DCB  FF          MOV	A,R7
1DCC  FF          MOV	A,R7
1DCD  FF          MOV	A,R7
1DCE  FF          MOV	A,R7
1DCF  FF          MOV	A,R7
1DD0  FF          MOV	A,R7
1DD1  FF          MOV	A,R7
1DD2  FF          MOV	A,R7
1DD3  FF          MOV	A,R7
1DD4  FF          MOV	A,R7
1DD5  FF          MOV	A,R7
1DD6  FF          MOV	A,R7
1DD7  FF          MOV	A,R7
1DD8  FF          MOV	A,R7
1DD9  FF          MOV	A,R7
1DDA  FF          MOV	A,R7
1DDB  FF          MOV	A,R7
1DDC  FF          MOV	A,R7
1DDD  FF          MOV	A,R7
1DDE  FF          MOV	A,R7
1DDF  FF          MOV	A,R7
1DE0  FF          MOV	A,R7
1DE1  FF          MOV	A,R7
1DE2  FF          MOV	A,R7
1DE3  FF          MOV	A,R7
1DE4  FF          MOV	A,R7
1DE5  FF          MOV	A,R7
1DE6  FF          MOV	A,R7
1DE7  FF          MOV	A,R7
1DE8  FF          MOV	A,R7
1DE9  FF          MOV	A,R7
1DEA  FF          MOV	A,R7
1DEB  FF          MOV	A,R7
1DEC  FF          MOV	A,R7
1DED  FF          MOV	A,R7
1DEE  FF          MOV	A,R7
1DEF  FF          MOV	A,R7
1DF0  FF          MOV	A,R7
1DF1  FF          MOV	A,R7
1DF2  FF          MOV	A,R7
1DF3  FF          MOV	A,R7
1DF4  FF          MOV	A,R7
1DF5  FF          MOV	A,R7
1DF6  FF          MOV	A,R7
1DF7  FF          MOV	A,R7
1DF8  FF          MOV	A,R7
1DF9  FF          MOV	A,R7
1DFA  FF          MOV	A,R7
1DFB  FF          MOV	A,R7
1DFC  FF          MOV	A,R7
1DFD  FF          MOV	A,R7
1DFE  FF          MOV	A,R7
1DFF  FF          MOV	A,R7
1E00  FF          MOV	A,R7
1E01  FF          MOV	A,R7
1E02  FF          MOV	A,R7
1E03  FF          MOV	A,R7
1E04  FF          MOV	A,R7
1E05  FF          MOV	A,R7
1E06  FF          MOV	A,R7
1E07  FF          MOV	A,R7
1E08  FF          MOV	A,R7
1E09  FF          MOV	A,R7
1E0A  FF          MOV	A,R7
1E0B  FF          MOV	A,R7
1E0C  FF          MOV	A,R7
1E0D  FF          MOV	A,R7
1E0E  FF          MOV	A,R7
1E0F  FF          MOV	A,R7
1E10  FF          MOV	A,R7
1E11  FF          MOV	A,R7
1E12  FF          MOV	A,R7
1E13  FF          MOV	A,R7
1E14  FF          MOV	A,R7
1E15  FF          MOV	A,R7
1E16  FF          MOV	A,R7
1E17  FF          MOV	A,R7
1E18  FF          MOV	A,R7
1E19  FF          MOV	A,R7
1E1A  FF          MOV	A,R7
1E1B  FF          MOV	A,R7
1E1C  FF          MOV	A,R7
1E1D  FF          MOV	A,R7
1E1E  FF          MOV	A,R7
1E1F  FF          MOV	A,R7
1E20  FF          MOV	A,R7
1E21  FF          MOV	A,R7
1E22  FF          MOV	A,R7
1E23  FF          MOV	A,R7
1E24  FF          MOV	A,R7
1E25  FF          MOV	A,R7
1E26  FF          MOV	A,R7
1E27  FF          MOV	A,R7
1E28  FF          MOV	A,R7
1E29  FF          MOV	A,R7
1E2A  FF          MOV	A,R7
1E2B  FF          MOV	A,R7
1E2C  FF          MOV	A,R7
1E2D  FF          MOV	A,R7
1E2E  FF          MOV	A,R7
1E2F  FF          MOV	A,R7
1E30  FF          MOV	A,R7
1E31  FF          MOV	A,R7
1E32  FF          MOV	A,R7
1E33  FF          MOV	A,R7
1E34  FF          MOV	A,R7
1E35  FF          MOV	A,R7
1E36  FF          MOV	A,R7
1E37  FF          MOV	A,R7
1E38  FF          MOV	A,R7
1E39  FF          MOV	A,R7
1E3A  FF          MOV	A,R7
1E3B  FF          MOV	A,R7
1E3C  FF          MOV	A,R7
1E3D  FF          MOV	A,R7
1E3E  FF          MOV	A,R7
1E3F  FF          MOV	A,R7
1E40  FF          MOV	A,R7
1E41  FF          MOV	A,R7
1E42  FF          MOV	A,R7
1E43  FF          MOV	A,R7
1E44  FF          MOV	A,R7
1E45  FF          MOV	A,R7
1E46  FF          MOV	A,R7
1E47  FF          MOV	A,R7
1E48  FF          MOV	A,R7
1E49  FF          MOV	A,R7
1E4A  FF          MOV	A,R7
1E4B  FF          MOV	A,R7
1E4C  FF          MOV	A,R7
1E4D  FF          MOV	A,R7
1E4E  FF          MOV	A,R7
1E4F  FF          MOV	A,R7
1E50  FF          MOV	A,R7
1E51  FF          MOV	A,R7
1E52  FF          MOV	A,R7
1E53  FF          MOV	A,R7
1E54  FF          MOV	A,R7
1E55  FF          MOV	A,R7
1E56  FF          MOV	A,R7
1E57  FF          MOV	A,R7
1E58  FF          MOV	A,R7
1E59  FF          MOV	A,R7
1E5A  FF          MOV	A,R7
1E5B  FF          MOV	A,R7
1E5C  FF          MOV	A,R7
1E5D  FF          MOV	A,R7
1E5E  FF          MOV	A,R7
1E5F  FF          MOV	A,R7
1E60  FF          MOV	A,R7
1E61  FF          MOV	A,R7
1E62  FF          MOV	A,R7
1E63  FF          MOV	A,R7
1E64  FF          MOV	A,R7
1E65  FF          MOV	A,R7
1E66  FF          MOV	A,R7
1E67  FF          MOV	A,R7
1E68  FF          MOV	A,R7
1E69  FF          MOV	A,R7
1E6A  FF          MOV	A,R7
1E6B  FF          MOV	A,R7
1E6C  FF          MOV	A,R7
1E6D  FF          MOV	A,R7
1E6E  FF          MOV	A,R7
1E6F  FF          MOV	A,R7
1E70  FF          MOV	A,R7
1E71  FF          MOV	A,R7
1E72  FF          MOV	A,R7
1E73  FF          MOV	A,R7
1E74  FF          MOV	A,R7
1E75  FF          MOV	A,R7
1E76  FF          MOV	A,R7
1E77  FF          MOV	A,R7
1E78  FF          MOV	A,R7
1E79  FF          MOV	A,R7
1E7A  FF          MOV	A,R7
1E7B  FF          MOV	A,R7
1E7C  FF          MOV	A,R7
1E7D  FF          MOV	A,R7
1E7E  FF          MOV	A,R7
1E7F  FF          MOV	A,R7
1E80  FF          MOV	A,R7
1E81  FF          MOV	A,R7
1E82  FF          MOV	A,R7
1E83  FF          MOV	A,R7
1E84  FF          MOV	A,R7
1E85  FF          MOV	A,R7
1E86  FF          MOV	A,R7
1E87  FF          MOV	A,R7
1E88  FF          MOV	A,R7
1E89  FF          MOV	A,R7
1E8A  FF          MOV	A,R7
1E8B  FF          MOV	A,R7
1E8C  FF          MOV	A,R7
1E8D  FF          MOV	A,R7
1E8E  FF          MOV	A,R7
1E8F  FF          MOV	A,R7
1E90  FF          MOV	A,R7
1E91  FF          MOV	A,R7
1E92  FF          MOV	A,R7
1E93  FF          MOV	A,R7
1E94  FF          MOV	A,R7
1E95  FF          MOV	A,R7
1E96  FF          MOV	A,R7
1E97  FF          MOV	A,R7
1E98  FF          MOV	A,R7
1E99  FF          MOV	A,R7
1E9A  FF          MOV	A,R7
1E9B  FF          MOV	A,R7
1E9C  FF          MOV	A,R7
1E9D  FF          MOV	A,R7
1E9E  FF          MOV	A,R7
1E9F  FF          MOV	A,R7
1EA0  FF          MOV	A,R7
1EA1  FF          MOV	A,R7
1EA2  FF          MOV	A,R7
1EA3  FF          MOV	A,R7
1EA4  FF          MOV	A,R7
1EA5  FF          MOV	A,R7
1EA6  FF          MOV	A,R7
1EA7  FF          MOV	A,R7
1EA8  FF          MOV	A,R7
1EA9  FF          MOV	A,R7
1EAA  FF          MOV	A,R7
1EAB  FF          MOV	A,R7
1EAC  FF          MOV	A,R7
1EAD  FF          MOV	A,R7
1EAE  FF          MOV	A,R7
1EAF  FF          MOV	A,R7
1EB0  FF          MOV	A,R7
1EB1  FF          MOV	A,R7
1EB2  FF          MOV	A,R7
1EB3  FF          MOV	A,R7
1EB4  FF          MOV	A,R7
1EB5  FF          MOV	A,R7
1EB6  FF          MOV	A,R7
1EB7  FF          MOV	A,R7
1EB8  FF          MOV	A,R7
1EB9  FF          MOV	A,R7
1EBA  FF          MOV	A,R7
1EBB  FF          MOV	A,R7
1EBC  FF          MOV	A,R7
1EBD  FF          MOV	A,R7
1EBE  FF          MOV	A,R7
1EBF  FF          MOV	A,R7
1EC0  FF          MOV	A,R7
1EC1  FF          MOV	A,R7
1EC2  FF          MOV	A,R7
1EC3  FF          MOV	A,R7
1EC4  FF          MOV	A,R7
1EC5  FF          MOV	A,R7
1EC6  FF          MOV	A,R7
1EC7  FF          MOV	A,R7
1EC8  FF          MOV	A,R7
1EC9  FF          MOV	A,R7
1ECA  FF          MOV	A,R7
1ECB  FF          MOV	A,R7
1ECC  FF          MOV	A,R7
1ECD  FF          MOV	A,R7
1ECE  FF          MOV	A,R7
1ECF  FF          MOV	A,R7
1ED0  FF          MOV	A,R7
1ED1  FF          MOV	A,R7
1ED2  FF          MOV	A,R7
1ED3  FF          MOV	A,R7
1ED4  FF          MOV	A,R7
1ED5  FF          MOV	A,R7
1ED6  FF          MOV	A,R7
1ED7  FF          MOV	A,R7
1ED8  FF          MOV	A,R7
1ED9  FF          MOV	A,R7
1EDA  FF          MOV	A,R7
1EDB  FF          MOV	A,R7
1EDC  FF          MOV	A,R7
1EDD  FF          MOV	A,R7
1EDE  FF          MOV	A,R7
1EDF  FF          MOV	A,R7
1EE0  FF          MOV	A,R7
1EE1  FF          MOV	A,R7
1EE2  FF          MOV	A,R7
1EE3  FF          MOV	A,R7
1EE4  FF          MOV	A,R7
1EE5  FF          MOV	A,R7
1EE6  FF          MOV	A,R7
1EE7  FF          MOV	A,R7
1EE8  FF          MOV	A,R7
1EE9  FF          MOV	A,R7
1EEA  FF          MOV	A,R7
1EEB  FF          MOV	A,R7
1EEC  FF          MOV	A,R7
1EED  FF          MOV	A,R7
1EEE  FF          MOV	A,R7
1EEF  FF          MOV	A,R7
1EF0  FF          MOV	A,R7
1EF1  FF          MOV	A,R7
1EF2  FF          MOV	A,R7
1EF3  FF          MOV	A,R7
1EF4  FF          MOV	A,R7
1EF5  FF          MOV	A,R7
1EF6  FF          MOV	A,R7
1EF7  FF          MOV	A,R7
1EF8  FF          MOV	A,R7
1EF9  FF          MOV	A,R7
1EFA  FF          MOV	A,R7
1EFB  FF          MOV	A,R7
1EFC  FF          MOV	A,R7
1EFD  FF          MOV	A,R7
1EFE  FF          MOV	A,R7
1EFF  FF          MOV	A,R7
1F00  FF          MOV	A,R7
1F01  FF          MOV	A,R7
1F02  FF          MOV	A,R7
1F03  FF          MOV	A,R7
1F04  FF          MOV	A,R7
1F05  FF          MOV	A,R7
1F06  FF          MOV	A,R7
1F07  FF          MOV	A,R7
1F08  FF          MOV	A,R7
1F09  FF          MOV	A,R7
1F0A  FF          MOV	A,R7
1F0B  FF          MOV	A,R7
1F0C  FF          MOV	A,R7
1F0D  FF          MOV	A,R7
1F0E  FF          MOV	A,R7
1F0F  FF          MOV	A,R7
1F10  FF          MOV	A,R7
1F11  FF          MOV	A,R7
1F12  FF          MOV	A,R7
1F13  FF          MOV	A,R7
1F14  FF          MOV	A,R7
1F15  FF          MOV	A,R7
1F16  FF          MOV	A,R7
1F17  FF          MOV	A,R7
1F18  FF          MOV	A,R7
1F19  FF          MOV	A,R7
1F1A  FF          MOV	A,R7
1F1B  FF          MOV	A,R7
1F1C  FF          MOV	A,R7
1F1D  FF          MOV	A,R7
1F1E  FF          MOV	A,R7
1F1F  FF          MOV	A,R7
1F20  FF          MOV	A,R7
1F21  FF          MOV	A,R7
1F22  FF          MOV	A,R7
1F23  FF          MOV	A,R7
1F24  FF          MOV	A,R7
1F25  FF          MOV	A,R7
1F26  FF          MOV	A,R7
1F27  FF          MOV	A,R7
1F28  FF          MOV	A,R7
1F29  FF          MOV	A,R7
1F2A  FF          MOV	A,R7
1F2B  FF          MOV	A,R7
1F2C  FF          MOV	A,R7
1F2D  FF          MOV	A,R7
1F2E  FF          MOV	A,R7
1F2F  FF          MOV	A,R7
1F30  FF          MOV	A,R7
1F31  FF          MOV	A,R7
1F32  FF          MOV	A,R7
1F33  FF          MOV	A,R7
1F34  FF          MOV	A,R7
1F35  FF          MOV	A,R7
1F36  FF          MOV	A,R7
1F37  FF          MOV	A,R7
1F38  FF          MOV	A,R7
1F39  FF          MOV	A,R7
1F3A  FF          MOV	A,R7
1F3B  FF          MOV	A,R7
1F3C  FF          MOV	A,R7
1F3D  FF          MOV	A,R7
1F3E  FF          MOV	A,R7
1F3F  FF          MOV	A,R7
1F40  FF          MOV	A,R7
1F41  FF          MOV	A,R7
1F42  FF          MOV	A,R7
1F43  FF          MOV	A,R7
1F44  FF          MOV	A,R7
1F45  FF          MOV	A,R7
1F46  FF          MOV	A,R7
1F47  FF          MOV	A,R7
1F48  FF          MOV	A,R7
1F49  FF          MOV	A,R7
1F4A  FF          MOV	A,R7
1F4B  FF          MOV	A,R7
1F4C  FF          MOV	A,R7
1F4D  FF          MOV	A,R7
1F4E  FF          MOV	A,R7
1F4F  FF          MOV	A,R7
1F50  FF          MOV	A,R7
1F51  FF          MOV	A,R7
1F52  FF          MOV	A,R7
1F53  FF          MOV	A,R7
1F54  FF          MOV	A,R7
1F55  FF          MOV	A,R7
1F56  FF          MOV	A,R7
1F57  FF          MOV	A,R7
1F58  FF          MOV	A,R7
1F59  FF          MOV	A,R7
1F5A  FF          MOV	A,R7
1F5B  FF          MOV	A,R7
1F5C  FF          MOV	A,R7
1F5D  FF          MOV	A,R7
1F5E  FF          MOV	A,R7
1F5F  FF          MOV	A,R7
1F60  FF          MOV	A,R7
1F61  FF          MOV	A,R7
1F62  FF          MOV	A,R7
1F63  FF          MOV	A,R7
1F64  FF          MOV	A,R7
1F65  FF          MOV	A,R7
1F66  FF          MOV	A,R7
1F67  FF          MOV	A,R7
1F68  FF          MOV	A,R7
1F69  FF          MOV	A,R7
1F6A  FF          MOV	A,R7
1F6B  FF          MOV	A,R7
1F6C  FF          MOV	A,R7
1F6D  FF          MOV	A,R7
1F6E  FF          MOV	A,R7
1F6F  FF          MOV	A,R7
1F70  FF          MOV	A,R7
1F71  FF          MOV	A,R7
1F72  FF          MOV	A,R7
1F73  FF          MOV	A,R7
1F74  FF          MOV	A,R7
1F75  FF          MOV	A,R7
1F76  FF          MOV	A,R7
1F77  FF          MOV	A,R7
1F78  FF          MOV	A,R7
1F79  FF          MOV	A,R7
1F7A  FF          MOV	A,R7
1F7B  FF          MOV	A,R7
1F7C  FF          MOV	A,R7
1F7D  FF          MOV	A,R7
1F7E  FF          MOV	A,R7
1F7F  FF          MOV	A,R7
1F80  FF          MOV	A,R7
1F81  FF          MOV	A,R7
1F82  FF          MOV	A,R7
1F83  FF          MOV	A,R7
1F84  FF          MOV	A,R7
1F85  FF          MOV	A,R7
1F86  FF          MOV	A,R7
1F87  FF          MOV	A,R7
1F88  FF          MOV	A,R7
1F89  FF          MOV	A,R7
1F8A  FF          MOV	A,R7
1F8B  FF          MOV	A,R7
1F8C  FF          MOV	A,R7
1F8D  FF          MOV	A,R7
1F8E  FF          MOV	A,R7
1F8F  FF          MOV	A,R7
1F90  FF          MOV	A,R7
1F91  FF          MOV	A,R7
1F92  FF          MOV	A,R7
1F93  FF          MOV	A,R7
1F94  FF          MOV	A,R7
1F95  FF          MOV	A,R7
1F96  FF          MOV	A,R7
1F97  FF          MOV	A,R7
1F98  FF          MOV	A,R7
1F99  FF          MOV	A,R7
1F9A  FF          MOV	A,R7
1F9B  FF          MOV	A,R7
1F9C  FF          MOV	A,R7
1F9D  FF          MOV	A,R7
1F9E  FF          MOV	A,R7
1F9F  FF          MOV	A,R7
1FA0  FF          MOV	A,R7
1FA1  FF          MOV	A,R7
1FA2  FF          MOV	A,R7
1FA3  FF          MOV	A,R7
1FA4  FF          MOV	A,R7
1FA5  FF          MOV	A,R7
1FA6  FF          MOV	A,R7
1FA7  FF          MOV	A,R7
1FA8  FF          MOV	A,R7
1FA9  FF          MOV	A,R7
1FAA  FF          MOV	A,R7
1FAB  FF          MOV	A,R7
1FAC  FF          MOV	A,R7
1FAD  FF          MOV	A,R7
1FAE  FF          MOV	A,R7
1FAF  FF          MOV	A,R7
1FB0  FF          MOV	A,R7
1FB1  FF          MOV	A,R7
1FB2  FF          MOV	A,R7
1FB3  FF          MOV	A,R7
1FB4  FF          MOV	A,R7
1FB5  FF          MOV	A,R7
1FB6  FF          MOV	A,R7
1FB7  FF          MOV	A,R7
1FB8  FF          MOV	A,R7
1FB9  FF          MOV	A,R7
1FBA  FF          MOV	A,R7
1FBB  FF          MOV	A,R7
1FBC  FF          MOV	A,R7
1FBD  FF          MOV	A,R7
1FBE  FF          MOV	A,R7
1FBF  FF          MOV	A,R7
1FC0  FF          MOV	A,R7
1FC1  FF          MOV	A,R7
1FC2  FF          MOV	A,R7
1FC3  FF          MOV	A,R7
1FC4  FF          MOV	A,R7
1FC5  FF          MOV	A,R7
1FC6  FF          MOV	A,R7
1FC7  FF          MOV	A,R7
1FC8  FF          MOV	A,R7
1FC9  FF          MOV	A,R7
1FCA  FF          MOV	A,R7
1FCB  FF          MOV	A,R7
1FCC  FF          MOV	A,R7
1FCD  FF          MOV	A,R7
1FCE  FF          MOV	A,R7
1FCF  FF          MOV	A,R7
1FD0  FF          MOV	A,R7
1FD1  FF          MOV	A,R7
1FD2  FF          MOV	A,R7
1FD3  FF          MOV	A,R7
1FD4  FF          MOV	A,R7
1FD5  FF          MOV	A,R7
1FD6  FF          MOV	A,R7
1FD7  FF          MOV	A,R7
1FD8  FF          MOV	A,R7
1FD9  FF          MOV	A,R7
1FDA  FF          MOV	A,R7
1FDB  FF          MOV	A,R7
1FDC  FF          MOV	A,R7
1FDD  FF          MOV	A,R7
1FDE  FF          MOV	A,R7
1FDF  FF          MOV	A,R7
1FE0  FF          MOV	A,R7
1FE1  FF          MOV	A,R7
1FE2  FF          MOV	A,R7
1FE3  FF          MOV	A,R7
1FE4  FF          MOV	A,R7
1FE5  FF          MOV	A,R7
1FE6  FF          MOV	A,R7
1FE7  FF          MOV	A,R7
1FE8  FF          MOV	A,R7
1FE9  FF          MOV	A,R7
1FEA  FF          MOV	A,R7
1FEB  FF          MOV	A,R7
1FEC  FF          MOV	A,R7
1FED  FF          MOV	A,R7
1FEE  FF          MOV	A,R7
1FEF  FF          MOV	A,R7
1FF0  FF          MOV	A,R7
1FF1  FF          MOV	A,R7
1FF2  FF          MOV	A,R7
1FF3  FF          MOV	A,R7
1FF4  FF          MOV	A,R7
1FF5  FF          MOV	A,R7
1FF6  FF          MOV	A,R7
1FF7  FF          MOV	A,R7
1FF8  FF          MOV	A,R7
1FF9  FF          MOV	A,R7
1FFA  FF          MOV	A,R7
1FFB  FF          MOV	A,R7
1FFC  FF          MOV	A,R7
1FFD  FF          MOV	A,R7
1FFE  FF          MOV	A,R7
1FFF  FF          MOV	A,R7
2000  FF          MOV	A,R7
2001  FF          MOV	A,R7
2002  FF          MOV	A,R7
2003  FF          MOV	A,R7
2004  FF          MOV	A,R7
2005  FF          MOV	A,R7
2006  FF          MOV	A,R7
2007  FF          MOV	A,R7
2008  FF          MOV	A,R7
2009  FF          MOV	A,R7
200A  FF          MOV	A,R7
200B  FF          MOV	A,R7
200C  FF          MOV	A,R7
200D  FF          MOV	A,R7
200E  FF          MOV	A,R7
200F  FF          MOV	A,R7
2010  FF          MOV	A,R7
2011  FF          MOV	A,R7
2012  FF          MOV	A,R7
2013  FF          MOV	A,R7
2014  FF          MOV	A,R7
2015  FF          MOV	A,R7
2016  FF          MOV	A,R7
2017  FF          MOV	A,R7
2018  FF          MOV	A,R7
2019  FF          MOV	A,R7
201A  FF          MOV	A,R7
201B  FF          MOV	A,R7
201C  FF          MOV	A,R7
201D  FF          MOV	A,R7
201E  FF          MOV	A,R7
201F  FF          MOV	A,R7
2020  FF          MOV	A,R7
2021  FF          MOV	A,R7
2022  FF          MOV	A,R7
2023  FF          MOV	A,R7
2024  FF          MOV	A,R7
2025  FF          MOV	A,R7
2026  FF          MOV	A,R7
2027  FF          MOV	A,R7
2028  FF          MOV	A,R7
2029  FF          MOV	A,R7
202A  FF          MOV	A,R7
202B  FF          MOV	A,R7
202C  FF          MOV	A,R7
202D  FF          MOV	A,R7
202E  FF          MOV	A,R7
202F  FF          MOV	A,R7
2030  FF          MOV	A,R7
2031  FF          MOV	A,R7
2032  FF          MOV	A,R7
2033  FF          MOV	A,R7
2034  FF          MOV	A,R7
2035  FF          MOV	A,R7
2036  FF          MOV	A,R7
2037  FF          MOV	A,R7
2038  FF          MOV	A,R7
2039  FF          MOV	A,R7
203A  FF          MOV	A,R7
203B  FF          MOV	A,R7
203C  FF          MOV	A,R7
203D  FF          MOV	A,R7
203E  FF          MOV	A,R7
203F  FF          MOV	A,R7
2040  FF          MOV	A,R7
2041  FF          MOV	A,R7
2042  FF          MOV	A,R7
2043  FF          MOV	A,R7
2044  FF          MOV	A,R7
2045  FF          MOV	A,R7
2046  FF          MOV	A,R7
2047  FF          MOV	A,R7
2048  FF          MOV	A,R7
2049  FF          MOV	A,R7
204A  FF          MOV	A,R7
204B  FF          MOV	A,R7
204C  FF          MOV	A,R7
204D  FF          MOV	A,R7
204E  FF          MOV	A,R7
204F  FF          MOV	A,R7
2050  FF          MOV	A,R7
2051  FF          MOV	A,R7
2052  FF          MOV	A,R7
2053  FF          MOV	A,R7
2054  FF          MOV	A,R7
2055  FF          MOV	A,R7
2056  FF          MOV	A,R7
2057  FF          MOV	A,R7
2058  FF          MOV	A,R7
2059  FF          MOV	A,R7
205A  FF          MOV	A,R7
205B  FF          MOV	A,R7
205C  FF          MOV	A,R7
205D  FF          MOV	A,R7
205E  FF          MOV	A,R7
205F  FF          MOV	A,R7
2060  FF          MOV	A,R7
2061  FF          MOV	A,R7
2062  FF          MOV	A,R7
2063  FF          MOV	A,R7
2064  FF          MOV	A,R7
2065  FF          MOV	A,R7
2066  FF          MOV	A,R7
2067  FF          MOV	A,R7
2068  FF          MOV	A,R7
2069  FF          MOV	A,R7
206A  FF          MOV	A,R7
206B  FF          MOV	A,R7
206C  FF          MOV	A,R7
206D  FF          MOV	A,R7
206E  FF          MOV	A,R7
206F  FF          MOV	A,R7
2070  FF          MOV	A,R7
2071  FF          MOV	A,R7
2072  FF          MOV	A,R7
2073  FF          MOV	A,R7
2074  FF          MOV	A,R7
2075  FF          MOV	A,R7
2076  FF          MOV	A,R7
2077  FF          MOV	A,R7
2078  FF          MOV	A,R7
2079  FF          MOV	A,R7
207A  FF          MOV	A,R7
207B  FF          MOV	A,R7
207C  FF          MOV	A,R7
207D  FF          MOV	A,R7
207E  FF          MOV	A,R7
207F  FF          MOV	A,R7
2080  FF          MOV	A,R7
2081  FF          MOV	A,R7
2082  FF          MOV	A,R7
2083  FF          MOV	A,R7
2084  FF          MOV	A,R7
2085  FF          MOV	A,R7
2086  FF          MOV	A,R7
2087  FF          MOV	A,R7
2088  FF          MOV	A,R7
2089  FF          MOV	A,R7
208A  FF          MOV	A,R7
208B  FF          MOV	A,R7
208C  FF          MOV	A,R7
208D  FF          MOV	A,R7
208E  FF          MOV	A,R7
208F  FF          MOV	A,R7
2090  FF          MOV	A,R7
2091  FF          MOV	A,R7
2092  FF          MOV	A,R7
2093  FF          MOV	A,R7
2094  FF          MOV	A,R7
2095  FF          MOV	A,R7
2096  FF          MOV	A,R7
2097  FF          MOV	A,R7
2098  FF          MOV	A,R7
2099  FF          MOV	A,R7
209A  FF          MOV	A,R7
209B  FF          MOV	A,R7
209C  FF          MOV	A,R7
209D  FF          MOV	A,R7
209E  FF          MOV	A,R7
209F  FF          MOV	A,R7
20A0  FF          MOV	A,R7
20A1  FF          MOV	A,R7
20A2  FF          MOV	A,R7
20A3  FF          MOV	A,R7
20A4  FF          MOV	A,R7
20A5  FF          MOV	A,R7
20A6  FF          MOV	A,R7
20A7  FF          MOV	A,R7
20A8  FF          MOV	A,R7
20A9  FF          MOV	A,R7
20AA  FF          MOV	A,R7
20AB  FF          MOV	A,R7
20AC  FF          MOV	A,R7
20AD  FF          MOV	A,R7
20AE  FF          MOV	A,R7
20AF  FF          MOV	A,R7
20B0  FF          MOV	A,R7
20B1  FF          MOV	A,R7
20B2  FF          MOV	A,R7
20B3  FF          MOV	A,R7
20B4  FF          MOV	A,R7
20B5  FF          MOV	A,R7
20B6  FF          MOV	A,R7
20B7  FF          MOV	A,R7
20B8  FF          MOV	A,R7
20B9  FF          MOV	A,R7
20BA  FF          MOV	A,R7
20BB  FF          MOV	A,R7
20BC  FF          MOV	A,R7
20BD  FF          MOV	A,R7
20BE  FF          MOV	A,R7
20BF  FF          MOV	A,R7
20C0  FF          MOV	A,R7
20C1  FF          MOV	A,R7
20C2  FF          MOV	A,R7
20C3  FF          MOV	A,R7
20C4  FF          MOV	A,R7
20C5  FF          MOV	A,R7
20C6  FF          MOV	A,R7
20C7  FF          MOV	A,R7
20C8  FF          MOV	A,R7
20C9  FF          MOV	A,R7
20CA  FF          MOV	A,R7
20CB  FF          MOV	A,R7
20CC  FF          MOV	A,R7
20CD  FF          MOV	A,R7
20CE  FF          MOV	A,R7
20CF  FF          MOV	A,R7
20D0  FF          MOV	A,R7
20D1  FF          MOV	A,R7
20D2  FF          MOV	A,R7
20D3  FF          MOV	A,R7
20D4  FF          MOV	A,R7
20D5  FF          MOV	A,R7
20D6  FF          MOV	A,R7
20D7  FF          MOV	A,R7
20D8  FF          MOV	A,R7
20D9  FF          MOV	A,R7
20DA  FF          MOV	A,R7
20DB  FF          MOV	A,R7
20DC  FF          MOV	A,R7
20DD  FF          MOV	A,R7
20DE  FF          MOV	A,R7
20DF  FF          MOV	A,R7
20E0  FF          MOV	A,R7
20E1  FF          MOV	A,R7
20E2  FF          MOV	A,R7
20E3  FF          MOV	A,R7
20E4  FF          MOV	A,R7
20E5  FF          MOV	A,R7
20E6  FF          MOV	A,R7
20E7  FF          MOV	A,R7
20E8  FF          MOV	A,R7
20E9  FF          MOV	A,R7
20EA  FF          MOV	A,R7
20EB  FF          MOV	A,R7
20EC  FF          MOV	A,R7
20ED  FF          MOV	A,R7
20EE  FF          MOV	A,R7
20EF  FF          MOV	A,R7
20F0  FF          MOV	A,R7
20F1  FF          MOV	A,R7
20F2  FF          MOV	A,R7
20F3  FF          MOV	A,R7
20F4  FF          MOV	A,R7
20F5  FF          MOV	A,R7
20F6  FF          MOV	A,R7
20F7  FF          MOV	A,R7
20F8  FF          MOV	A,R7
20F9  FF          MOV	A,R7
20FA  FF          MOV	A,R7
20FB  FF          MOV	A,R7
20FC  FF          MOV	A,R7
20FD  FF          MOV	A,R7
20FE  FF          MOV	A,R7
20FF  FF          MOV	A,R7
2100  FF          MOV	A,R7
2101  FF          MOV	A,R7
2102  FF          MOV	A,R7
2103  FF          MOV	A,R7
2104  FF          MOV	A,R7
2105  FF          MOV	A,R7
2106  FF          MOV	A,R7
2107  FF          MOV	A,R7
2108  FF          MOV	A,R7
2109  FF          MOV	A,R7
210A  FF          MOV	A,R7
210B  FF          MOV	A,R7
210C  FF          MOV	A,R7
210D  FF          MOV	A,R7
210E  FF          MOV	A,R7
210F  FF          MOV	A,R7
2110  FF          MOV	A,R7
2111  FF          MOV	A,R7
2112  FF          MOV	A,R7
2113  FF          MOV	A,R7
2114  FF          MOV	A,R7
2115  FF          MOV	A,R7
2116  FF          MOV	A,R7
2117  FF          MOV	A,R7
2118  FF          MOV	A,R7
2119  FF          MOV	A,R7
211A  FF          MOV	A,R7
211B  FF          MOV	A,R7
211C  FF          MOV	A,R7
211D  FF          MOV	A,R7
211E  FF          MOV	A,R7
211F  FF          MOV	A,R7
2120  FF          MOV	A,R7
2121  FF          MOV	A,R7
2122  FF          MOV	A,R7
2123  FF          MOV	A,R7
2124  FF          MOV	A,R7
2125  FF          MOV	A,R7
2126  FF          MOV	A,R7
2127  FF          MOV	A,R7
2128  FF          MOV	A,R7
2129  FF          MOV	A,R7
212A  FF          MOV	A,R7
212B  FF          MOV	A,R7
212C  FF          MOV	A,R7
212D  FF          MOV	A,R7
212E  FF          MOV	A,R7
212F  FF          MOV	A,R7
2130  FF          MOV	A,R7
2131  FF          MOV	A,R7
2132  FF          MOV	A,R7
2133  FF          MOV	A,R7
2134  FF          MOV	A,R7
2135  FF          MOV	A,R7
2136  FF          MOV	A,R7
2137  FF          MOV	A,R7
2138  FF          MOV	A,R7
2139  FF          MOV	A,R7
213A  FF          MOV	A,R7
213B  FF          MOV	A,R7
213C  FF          MOV	A,R7
213D  FF          MOV	A,R7
213E  FF          MOV	A,R7
213F  FF          MOV	A,R7
2140  FF          MOV	A,R7
2141  FF          MOV	A,R7
2142  FF          MOV	A,R7
2143  FF          MOV	A,R7
2144  FF          MOV	A,R7
2145  FF          MOV	A,R7
2146  FF          MOV	A,R7
2147  FF          MOV	A,R7
2148  FF          MOV	A,R7
2149  FF          MOV	A,R7
214A  FF          MOV	A,R7
214B  FF          MOV	A,R7
214C  FF          MOV	A,R7
214D  FF          MOV	A,R7
214E  FF          MOV	A,R7
214F  FF          MOV	A,R7
2150  FF          MOV	A,R7
2151  FF          MOV	A,R7
2152  FF          MOV	A,R7
2153  FF          MOV	A,R7
2154  FF          MOV	A,R7
2155  FF          MOV	A,R7
2156  FF          MOV	A,R7
2157  FF          MOV	A,R7
2158  FF          MOV	A,R7
2159  FF          MOV	A,R7
215A  FF          MOV	A,R7
215B  FF          MOV	A,R7
215C  FF          MOV	A,R7
215D  FF          MOV	A,R7
215E  FF          MOV	A,R7
215F  FF          MOV	A,R7
2160  FF          MOV	A,R7
2161  FF          MOV	A,R7
2162  FF          MOV	A,R7
2163  FF          MOV	A,R7
2164  FF          MOV	A,R7
2165  FF          MOV	A,R7
2166  FF          MOV	A,R7
2167  FF          MOV	A,R7
2168  FF          MOV	A,R7
2169  FF          MOV	A,R7
216A  FF          MOV	A,R7
216B  FF          MOV	A,R7
216C  FF          MOV	A,R7
216D  FF          MOV	A,R7
216E  FF          MOV	A,R7
216F  FF          MOV	A,R7
2170  FF          MOV	A,R7
2171  FF          MOV	A,R7
2172  FF          MOV	A,R7
2173  FF          MOV	A,R7
2174  FF          MOV	A,R7
2175  FF          MOV	A,R7
2176  FF          MOV	A,R7
2177  FF          MOV	A,R7
2178  FF          MOV	A,R7
2179  FF          MOV	A,R7
217A  FF          MOV	A,R7
217B  FF          MOV	A,R7
217C  FF          MOV	A,R7
217D  FF          MOV	A,R7
217E  FF          MOV	A,R7
217F  FF          MOV	A,R7
2180  FF          MOV	A,R7
2181  FF          MOV	A,R7
2182  FF          MOV	A,R7
2183  FF          MOV	A,R7
2184  FF          MOV	A,R7
2185  FF          MOV	A,R7
2186  FF          MOV	A,R7
2187  FF          MOV	A,R7
2188  FF          MOV	A,R7
2189  FF          MOV	A,R7
218A  FF          MOV	A,R7
218B  FF          MOV	A,R7
218C  FF          MOV	A,R7
218D  FF          MOV	A,R7
218E  FF          MOV	A,R7
218F  FF          MOV	A,R7
2190  FF          MOV	A,R7
2191  FF          MOV	A,R7
2192  FF          MOV	A,R7
2193  FF          MOV	A,R7
2194  FF          MOV	A,R7
2195  FF          MOV	A,R7
2196  FF          MOV	A,R7
2197  FF          MOV	A,R7
2198  FF          MOV	A,R7
2199  FF          MOV	A,R7
219A  FF          MOV	A,R7
219B  FF          MOV	A,R7
219C  FF          MOV	A,R7
219D  FF          MOV	A,R7
219E  FF          MOV	A,R7
219F  FF          MOV	A,R7
21A0  FF          MOV	A,R7
21A1  FF          MOV	A,R7
21A2  FF          MOV	A,R7
21A3  FF          MOV	A,R7
21A4  FF          MOV	A,R7
21A5  FF          MOV	A,R7
21A6  FF          MOV	A,R7
21A7  FF          MOV	A,R7
21A8  FF          MOV	A,R7
21A9  FF          MOV	A,R7
21AA  FF          MOV	A,R7
21AB  FF          MOV	A,R7
21AC  FF          MOV	A,R7
21AD  FF          MOV	A,R7
21AE  FF          MOV	A,R7
21AF  FF          MOV	A,R7
21B0  FF          MOV	A,R7
21B1  FF          MOV	A,R7
21B2  FF          MOV	A,R7
21B3  FF          MOV	A,R7
21B4  FF          MOV	A,R7
21B5  FF          MOV	A,R7
21B6  FF          MOV	A,R7
21B7  FF          MOV	A,R7
21B8  FF          MOV	A,R7
21B9  FF          MOV	A,R7
21BA  FF          MOV	A,R7
21BB  FF          MOV	A,R7
21BC  FF          MOV	A,R7
21BD  FF          MOV	A,R7
21BE  FF          MOV	A,R7
21BF  FF          MOV	A,R7
21C0  FF          MOV	A,R7
21C1  FF          MOV	A,R7
21C2  FF          MOV	A,R7
21C3  FF          MOV	A,R7
21C4  FF          MOV	A,R7
21C5  FF          MOV	A,R7
21C6  FF          MOV	A,R7
21C7  FF          MOV	A,R7
21C8  FF          MOV	A,R7
21C9  FF          MOV	A,R7
21CA  FF          MOV	A,R7
21CB  FF          MOV	A,R7
21CC  FF          MOV	A,R7
21CD  FF          MOV	A,R7
21CE  FF          MOV	A,R7
21CF  FF          MOV	A,R7
21D0  FF          MOV	A,R7
21D1  FF          MOV	A,R7
21D2  FF          MOV	A,R7
21D3  FF          MOV	A,R7
21D4  FF          MOV	A,R7
21D5  FF          MOV	A,R7
21D6  FF          MOV	A,R7
21D7  FF          MOV	A,R7
21D8  FF          MOV	A,R7
21D9  FF          MOV	A,R7
21DA  FF          MOV	A,R7
21DB  FF          MOV	A,R7
21DC  FF          MOV	A,R7
21DD  FF          MOV	A,R7
21DE  FF          MOV	A,R7
21DF  FF          MOV	A,R7
21E0  FF          MOV	A,R7
21E1  FF          MOV	A,R7
21E2  FF          MOV	A,R7
21E3  FF          MOV	A,R7
21E4  FF          MOV	A,R7
21E5  FF          MOV	A,R7
21E6  FF          MOV	A,R7
21E7  FF          MOV	A,R7
21E8  FF          MOV	A,R7
21E9  FF          MOV	A,R7
21EA  FF          MOV	A,R7
21EB  FF          MOV	A,R7
21EC  FF          MOV	A,R7
21ED  FF          MOV	A,R7
21EE  FF          MOV	A,R7
21EF  FF          MOV	A,R7
21F0  FF          MOV	A,R7
21F1  FF          MOV	A,R7
21F2  FF          MOV	A,R7
21F3  FF          MOV	A,R7
21F4  FF          MOV	A,R7
21F5  FF          MOV	A,R7
21F6  FF          MOV	A,R7
21F7  FF          MOV	A,R7
21F8  FF          MOV	A,R7
21F9  FF          MOV	A,R7
21FA  FF          MOV	A,R7
21FB  FF          MOV	A,R7
21FC  FF          MOV	A,R7
21FD  FF          MOV	A,R7
21FE  FF          MOV	A,R7
21FF  FF          MOV	A,R7
2200  FF          MOV	A,R7
2201  FF          MOV	A,R7
2202  FF          MOV	A,R7
2203  FF          MOV	A,R7
2204  FF          MOV	A,R7
2205  FF          MOV	A,R7
2206  FF          MOV	A,R7
2207  FF          MOV	A,R7
2208  FF          MOV	A,R7
2209  FF          MOV	A,R7
220A  FF          MOV	A,R7
220B  FF          MOV	A,R7
220C  FF          MOV	A,R7
220D  FF          MOV	A,R7
220E  FF          MOV	A,R7
220F  FF          MOV	A,R7
2210  FF          MOV	A,R7
2211  FF          MOV	A,R7
2212  FF          MOV	A,R7
2213  FF          MOV	A,R7
2214  FF          MOV	A,R7
2215  FF          MOV	A,R7
2216  FF          MOV	A,R7
2217  FF          MOV	A,R7
2218  FF          MOV	A,R7
2219  FF          MOV	A,R7
221A  FF          MOV	A,R7
221B  FF          MOV	A,R7
221C  FF          MOV	A,R7
221D  FF          MOV	A,R7
221E  FF          MOV	A,R7
221F  FF          MOV	A,R7
2220  FF          MOV	A,R7
2221  FF          MOV	A,R7
2222  FF          MOV	A,R7
2223  FF          MOV	A,R7
2224  FF          MOV	A,R7
2225  FF          MOV	A,R7
2226  FF          MOV	A,R7
2227  FF          MOV	A,R7
2228  FF          MOV	A,R7
2229  FF          MOV	A,R7
222A  FF          MOV	A,R7
222B  FF          MOV	A,R7
222C  FF          MOV	A,R7
222D  FF          MOV	A,R7
222E  FF          MOV	A,R7
222F  FF          MOV	A,R7
2230  FF          MOV	A,R7
2231  FF          MOV	A,R7
2232  FF          MOV	A,R7
2233  FF          MOV	A,R7
2234  FF          MOV	A,R7
2235  FF          MOV	A,R7
2236  FF          MOV	A,R7
2237  FF          MOV	A,R7
2238  FF          MOV	A,R7
2239  FF          MOV	A,R7
223A  FF          MOV	A,R7
223B  FF          MOV	A,R7
223C  FF          MOV	A,R7
223D  FF          MOV	A,R7
223E  FF          MOV	A,R7
223F  FF          MOV	A,R7
2240  FF          MOV	A,R7
2241  FF          MOV	A,R7
2242  FF          MOV	A,R7
2243  FF          MOV	A,R7
2244  FF          MOV	A,R7
2245  FF          MOV	A,R7
2246  FF          MOV	A,R7
2247  FF          MOV	A,R7
2248  FF          MOV	A,R7
2249  FF          MOV	A,R7
224A  FF          MOV	A,R7
224B  FF          MOV	A,R7
224C  FF          MOV	A,R7
224D  FF          MOV	A,R7
224E  FF          MOV	A,R7
224F  FF          MOV	A,R7
2250  FF          MOV	A,R7
2251  FF          MOV	A,R7
2252  FF          MOV	A,R7
2253  FF          MOV	A,R7
2254  FF          MOV	A,R7
2255  FF          MOV	A,R7
2256  FF          MOV	A,R7
2257  FF          MOV	A,R7
2258  FF          MOV	A,R7
2259  FF          MOV	A,R7
225A  FF          MOV	A,R7
225B  FF          MOV	A,R7
225C  FF          MOV	A,R7
225D  FF          MOV	A,R7
225E  FF          MOV	A,R7
225F  FF          MOV	A,R7
2260  FF          MOV	A,R7
2261  FF          MOV	A,R7
2262  FF          MOV	A,R7
2263  FF          MOV	A,R7
2264  FF          MOV	A,R7
2265  FF          MOV	A,R7
2266  FF          MOV	A,R7
2267  FF          MOV	A,R7
2268  FF          MOV	A,R7
2269  FF          MOV	A,R7
226A  FF          MOV	A,R7
226B  FF          MOV	A,R7
226C  FF          MOV	A,R7
226D  FF          MOV	A,R7
226E  FF          MOV	A,R7
226F  FF          MOV	A,R7
2270  FF          MOV	A,R7
2271  FF          MOV	A,R7
2272  FF          MOV	A,R7
2273  FF          MOV	A,R7
2274  FF          MOV	A,R7
2275  FF          MOV	A,R7
2276  FF          MOV	A,R7
2277  FF          MOV	A,R7
2278  FF          MOV	A,R7
2279  FF          MOV	A,R7
227A  FF          MOV	A,R7
227B  FF          MOV	A,R7
227C  FF          MOV	A,R7
227D  FF          MOV	A,R7
227E  FF          MOV	A,R7
227F  FF          MOV	A,R7
2280  FF          MOV	A,R7
2281  FF          MOV	A,R7
2282  FF          MOV	A,R7
2283  FF          MOV	A,R7
2284  FF          MOV	A,R7
2285  FF          MOV	A,R7
2286  FF          MOV	A,R7
2287  FF          MOV	A,R7
2288  FF          MOV	A,R7
2289  FF          MOV	A,R7
228A  FF          MOV	A,R7
228B  FF          MOV	A,R7
228C  FF          MOV	A,R7
228D  FF          MOV	A,R7
228E  FF          MOV	A,R7
228F  FF          MOV	A,R7
2290  FF          MOV	A,R7
2291  FF          MOV	A,R7
2292  FF          MOV	A,R7
2293  FF          MOV	A,R7
2294  FF          MOV	A,R7
2295  FF          MOV	A,R7
2296  FF          MOV	A,R7
2297  FF          MOV	A,R7
2298  FF          MOV	A,R7
2299  FF          MOV	A,R7
229A  FF          MOV	A,R7
229B  FF          MOV	A,R7
229C  FF          MOV	A,R7
229D  FF          MOV	A,R7
229E  FF          MOV	A,R7
229F  FF          MOV	A,R7
22A0  FF          MOV	A,R7
22A1  FF          MOV	A,R7
22A2  FF          MOV	A,R7
22A3  FF          MOV	A,R7
22A4  FF          MOV	A,R7
22A5  FF          MOV	A,R7
22A6  FF          MOV	A,R7
22A7  FF          MOV	A,R7
22A8  FF          MOV	A,R7
22A9  FF          MOV	A,R7
22AA  FF          MOV	A,R7
22AB  FF          MOV	A,R7
22AC  FF          MOV	A,R7
22AD  FF          MOV	A,R7
22AE  FF          MOV	A,R7
22AF  FF          MOV	A,R7
22B0  FF          MOV	A,R7
22B1  FF          MOV	A,R7
22B2  FF          MOV	A,R7
22B3  FF          MOV	A,R7
22B4  FF          MOV	A,R7
22B5  FF          MOV	A,R7
22B6  FF          MOV	A,R7
22B7  FF          MOV	A,R7
22B8  FF          MOV	A,R7
22B9  FF          MOV	A,R7
22BA  FF          MOV	A,R7
22BB  FF          MOV	A,R7
22BC  FF          MOV	A,R7
22BD  FF          MOV	A,R7
22BE  FF          MOV	A,R7
22BF  FF          MOV	A,R7
22C0  FF          MOV	A,R7
22C1  FF          MOV	A,R7
22C2  FF          MOV	A,R7
22C3  FF          MOV	A,R7
22C4  FF          MOV	A,R7
22C5  FF          MOV	A,R7
22C6  FF          MOV	A,R7
22C7  FF          MOV	A,R7
22C8  FF          MOV	A,R7
22C9  FF          MOV	A,R7
22CA  FF          MOV	A,R7
22CB  FF          MOV	A,R7
22CC  FF          MOV	A,R7
22CD  FF          MOV	A,R7
22CE  FF          MOV	A,R7
22CF  FF          MOV	A,R7
22D0  FF          MOV	A,R7
22D1  FF          MOV	A,R7
22D2  FF          MOV	A,R7
22D3  FF          MOV	A,R7
22D4  FF          MOV	A,R7
22D5  FF          MOV	A,R7
22D6  FF          MOV	A,R7
22D7  FF          MOV	A,R7
22D8  FF          MOV	A,R7
22D9  FF          MOV	A,R7
22DA  FF          MOV	A,R7
22DB  FF          MOV	A,R7
22DC  FF          MOV	A,R7
22DD  FF          MOV	A,R7
22DE  FF          MOV	A,R7
22DF  FF          MOV	A,R7
22E0  FF          MOV	A,R7
22E1  FF          MOV	A,R7
22E2  FF          MOV	A,R7
22E3  FF          MOV	A,R7
22E4  FF          MOV	A,R7
22E5  FF          MOV	A,R7
22E6  FF          MOV	A,R7
22E7  FF          MOV	A,R7
22E8  FF          MOV	A,R7
22E9  FF          MOV	A,R7
22EA  FF          MOV	A,R7
22EB  FF          MOV	A,R7
22EC  FF          MOV	A,R7
22ED  FF          MOV	A,R7
22EE  FF          MOV	A,R7
22EF  FF          MOV	A,R7
22F0  FF          MOV	A,R7
22F1  FF          MOV	A,R7
22F2  FF          MOV	A,R7
22F3  FF          MOV	A,R7
22F4  FF          MOV	A,R7
22F5  FF          MOV	A,R7
22F6  FF          MOV	A,R7
22F7  FF          MOV	A,R7
22F8  FF          MOV	A,R7
22F9  FF          MOV	A,R7
22FA  FF          MOV	A,R7
22FB  FF          MOV	A,R7
22FC  FF          MOV	A,R7
22FD  FF          MOV	A,R7
22FE  FF          MOV	A,R7
22FF  FF          MOV	A,R7
2300  FF          MOV	A,R7
2301  FF          MOV	A,R7
2302  FF          MOV	A,R7
2303  FF          MOV	A,R7
2304  FF          MOV	A,R7
2305  FF          MOV	A,R7
2306  FF          MOV	A,R7
2307  FF          MOV	A,R7
2308  FF          MOV	A,R7
2309  FF          MOV	A,R7
230A  FF          MOV	A,R7
230B  FF          MOV	A,R7
230C  FF          MOV	A,R7
230D  FF          MOV	A,R7
230E  FF          MOV	A,R7
230F  FF          MOV	A,R7
2310  FF          MOV	A,R7
2311  FF          MOV	A,R7
2312  FF          MOV	A,R7
2313  FF          MOV	A,R7
2314  FF          MOV	A,R7
2315  FF          MOV	A,R7
2316  FF          MOV	A,R7
2317  FF          MOV	A,R7
2318  FF          MOV	A,R7
2319  FF          MOV	A,R7
231A  FF          MOV	A,R7
231B  FF          MOV	A,R7
231C  FF          MOV	A,R7
231D  FF          MOV	A,R7
231E  FF          MOV	A,R7
231F  FF          MOV	A,R7
2320  FF          MOV	A,R7
2321  FF          MOV	A,R7
2322  FF          MOV	A,R7
2323  FF          MOV	A,R7
2324  FF          MOV	A,R7
2325  FF          MOV	A,R7
2326  FF          MOV	A,R7
2327  FF          MOV	A,R7
2328  FF          MOV	A,R7
2329  FF          MOV	A,R7
232A  FF          MOV	A,R7
232B  FF          MOV	A,R7
232C  FF          MOV	A,R7
232D  FF          MOV	A,R7
232E  FF          MOV	A,R7
232F  FF          MOV	A,R7
2330  FF          MOV	A,R7
2331  FF          MOV	A,R7
2332  FF          MOV	A,R7
2333  FF          MOV	A,R7
2334  FF          MOV	A,R7
2335  FF          MOV	A,R7
2336  FF          MOV	A,R7
2337  FF          MOV	A,R7
2338  FF          MOV	A,R7
2339  FF          MOV	A,R7
233A  FF          MOV	A,R7
233B  FF          MOV	A,R7
233C  FF          MOV	A,R7
233D  FF          MOV	A,R7
233E  FF          MOV	A,R7
233F  FF          MOV	A,R7
2340  FF          MOV	A,R7
2341  FF          MOV	A,R7
2342  FF          MOV	A,R7
2343  FF          MOV	A,R7
2344  FF          MOV	A,R7
2345  FF          MOV	A,R7
2346  FF          MOV	A,R7
2347  FF          MOV	A,R7
2348  FF          MOV	A,R7
2349  FF          MOV	A,R7
234A  FF          MOV	A,R7
234B  FF          MOV	A,R7
234C  FF          MOV	A,R7
234D  FF          MOV	A,R7
234E  FF          MOV	A,R7
234F  FF          MOV	A,R7
2350  FF          MOV	A,R7
2351  FF          MOV	A,R7
2352  FF          MOV	A,R7
2353  FF          MOV	A,R7
2354  FF          MOV	A,R7
2355  FF          MOV	A,R7
2356  FF          MOV	A,R7
2357  FF          MOV	A,R7
2358  FF          MOV	A,R7
2359  FF          MOV	A,R7
235A  FF          MOV	A,R7
235B  FF          MOV	A,R7
235C  FF          MOV	A,R7
235D  FF          MOV	A,R7
235E  FF          MOV	A,R7
235F  FF          MOV	A,R7
2360  FF          MOV	A,R7
2361  FF          MOV	A,R7
2362  FF          MOV	A,R7
2363  FF          MOV	A,R7
2364  FF          MOV	A,R7
2365  FF          MOV	A,R7
2366  FF          MOV	A,R7
2367  FF          MOV	A,R7
2368  FF          MOV	A,R7
2369  FF          MOV	A,R7
236A  FF          MOV	A,R7
236B  FF          MOV	A,R7
236C  FF          MOV	A,R7
236D  FF          MOV	A,R7
236E  FF          MOV	A,R7
236F  FF          MOV	A,R7
2370  FF          MOV	A,R7
2371  FF          MOV	A,R7
2372  FF          MOV	A,R7
2373  FF          MOV	A,R7
2374  FF          MOV	A,R7
2375  FF          MOV	A,R7
2376  FF          MOV	A,R7
2377  FF          MOV	A,R7
2378  FF          MOV	A,R7
2379  FF          MOV	A,R7
237A  FF          MOV	A,R7
237B  FF          MOV	A,R7
237C  FF          MOV	A,R7
237D  FF          MOV	A,R7
237E  FF          MOV	A,R7
237F  FF          MOV	A,R7
2380  FF          MOV	A,R7
2381  FF          MOV	A,R7
2382  FF          MOV	A,R7
2383  FF          MOV	A,R7
2384  FF          MOV	A,R7
2385  FF          MOV	A,R7
2386  FF          MOV	A,R7
2387  FF          MOV	A,R7
2388  FF          MOV	A,R7
2389  FF          MOV	A,R7
238A  FF          MOV	A,R7
238B  FF          MOV	A,R7
238C  FF          MOV	A,R7
238D  FF          MOV	A,R7
238E  FF          MOV	A,R7
238F  FF          MOV	A,R7
2390  FF          MOV	A,R7
2391  FF          MOV	A,R7
2392  FF          MOV	A,R7
2393  FF          MOV	A,R7
2394  FF          MOV	A,R7
2395  FF          MOV	A,R7
2396  FF          MOV	A,R7
2397  FF          MOV	A,R7
2398  FF          MOV	A,R7
2399  FF          MOV	A,R7
239A  FF          MOV	A,R7
239B  FF          MOV	A,R7
239C  FF          MOV	A,R7
239D  FF          MOV	A,R7
239E  FF          MOV	A,R7
239F  FF          MOV	A,R7
23A0  FF          MOV	A,R7
23A1  FF          MOV	A,R7
23A2  FF          MOV	A,R7
23A3  FF          MOV	A,R7
23A4  FF          MOV	A,R7
23A5  FF          MOV	A,R7
23A6  FF          MOV	A,R7
23A7  FF          MOV	A,R7
23A8  FF          MOV	A,R7
23A9  FF          MOV	A,R7
23AA  FF          MOV	A,R7
23AB  FF          MOV	A,R7
23AC  FF          MOV	A,R7
23AD  FF          MOV	A,R7
23AE  FF          MOV	A,R7
23AF  FF          MOV	A,R7
23B0  FF          MOV	A,R7
23B1  FF          MOV	A,R7
23B2  FF          MOV	A,R7
23B3  FF          MOV	A,R7
23B4  FF          MOV	A,R7
23B5  FF          MOV	A,R7
23B6  FF          MOV	A,R7
23B7  FF          MOV	A,R7
23B8  FF          MOV	A,R7
23B9  FF          MOV	A,R7
23BA  FF          MOV	A,R7
23BB  FF          MOV	A,R7
23BC  FF          MOV	A,R7
23BD  FF          MOV	A,R7
23BE  FF          MOV	A,R7
23BF  FF          MOV	A,R7
23C0  FF          MOV	A,R7
23C1  FF          MOV	A,R7
23C2  FF          MOV	A,R7
23C3  FF          MOV	A,R7
23C4  FF          MOV	A,R7
23C5  FF          MOV	A,R7
23C6  FF          MOV	A,R7
23C7  FF          MOV	A,R7
23C8  FF          MOV	A,R7
23C9  FF          MOV	A,R7
23CA  FF          MOV	A,R7
23CB  FF          MOV	A,R7
23CC  FF          MOV	A,R7
23CD  FF          MOV	A,R7
23CE  FF          MOV	A,R7
23CF  FF          MOV	A,R7
23D0  FF          MOV	A,R7
23D1  FF          MOV	A,R7
23D2  FF          MOV	A,R7
23D3  FF          MOV	A,R7
23D4  FF          MOV	A,R7
23D5  FF          MOV	A,R7
23D6  FF          MOV	A,R7
23D7  FF          MOV	A,R7
23D8  FF          MOV	A,R7
23D9  FF          MOV	A,R7
23DA  FF          MOV	A,R7
23DB  FF          MOV	A,R7
23DC  FF          MOV	A,R7
23DD  FF          MOV	A,R7
23DE  FF          MOV	A,R7
23DF  FF          MOV	A,R7
23E0  FF          MOV	A,R7
23E1  FF          MOV	A,R7
23E2  FF          MOV	A,R7
23E3  FF          MOV	A,R7
23E4  FF          MOV	A,R7
23E5  FF          MOV	A,R7
23E6  FF          MOV	A,R7
23E7  FF          MOV	A,R7
23E8  FF          MOV	A,R7
23E9  FF          MOV	A,R7
23EA  FF          MOV	A,R7
23EB  FF          MOV	A,R7
23EC  FF          MOV	A,R7
23ED  FF          MOV	A,R7
23EE  FF          MOV	A,R7
23EF  FF          MOV	A,R7
23F0  FF          MOV	A,R7
23F1  FF          MOV	A,R7
23F2  FF          MOV	A,R7
23F3  FF          MOV	A,R7
23F4  FF          MOV	A,R7
23F5  FF          MOV	A,R7
23F6  FF          MOV	A,R7
23F7  FF          MOV	A,R7
23F8  FF          MOV	A,R7
23F9  FF          MOV	A,R7
23FA  FF          MOV	A,R7
23FB  FF          MOV	A,R7
23FC  FF          MOV	A,R7
23FD  FF          MOV	A,R7
23FE  FF          MOV	A,R7
23FF  FF          MOV	A,R7
2400  FF          MOV	A,R7
2401  FF          MOV	A,R7
2402  FF          MOV	A,R7
2403  FF          MOV	A,R7
2404  FF          MOV	A,R7
2405  FF          MOV	A,R7
2406  FF          MOV	A,R7
2407  FF          MOV	A,R7
2408  FF          MOV	A,R7
2409  FF          MOV	A,R7
240A  FF          MOV	A,R7
240B  FF          MOV	A,R7
240C  FF          MOV	A,R7
240D  FF          MOV	A,R7
240E  FF          MOV	A,R7
240F  FF          MOV	A,R7
2410  FF          MOV	A,R7
2411  FF          MOV	A,R7
2412  FF          MOV	A,R7
2413  FF          MOV	A,R7
2414  FF          MOV	A,R7
2415  FF          MOV	A,R7
2416  FF          MOV	A,R7
2417  FF          MOV	A,R7
2418  FF          MOV	A,R7
2419  FF          MOV	A,R7
241A  FF          MOV	A,R7
241B  FF          MOV	A,R7
241C  FF          MOV	A,R7
241D  FF          MOV	A,R7
241E  FF          MOV	A,R7
241F  FF          MOV	A,R7
2420  FF          MOV	A,R7
2421  FF          MOV	A,R7
2422  FF          MOV	A,R7
2423  FF          MOV	A,R7
2424  FF          MOV	A,R7
2425  FF          MOV	A,R7
2426  FF          MOV	A,R7
2427  FF          MOV	A,R7
2428  FF          MOV	A,R7
2429  FF          MOV	A,R7
242A  FF          MOV	A,R7
242B  FF          MOV	A,R7
242C  FF          MOV	A,R7
242D  FF          MOV	A,R7
242E  FF          MOV	A,R7
242F  FF          MOV	A,R7
2430  FF          MOV	A,R7
2431  FF          MOV	A,R7
2432  FF          MOV	A,R7
2433  FF          MOV	A,R7
2434  FF          MOV	A,R7
2435  FF          MOV	A,R7
2436  FF          MOV	A,R7
2437  FF          MOV	A,R7
2438  FF          MOV	A,R7
2439  FF          MOV	A,R7
243A  FF          MOV	A,R7
243B  FF          MOV	A,R7
243C  FF          MOV	A,R7
243D  FF          MOV	A,R7
243E  FF          MOV	A,R7
243F  FF          MOV	A,R7
2440  FF          MOV	A,R7
2441  FF          MOV	A,R7
2442  FF          MOV	A,R7
2443  FF          MOV	A,R7
2444  FF          MOV	A,R7
2445  FF          MOV	A,R7
2446  FF          MOV	A,R7
2447  FF          MOV	A,R7
2448  FF          MOV	A,R7
2449  FF          MOV	A,R7
244A  FF          MOV	A,R7
244B  FF          MOV	A,R7
244C  FF          MOV	A,R7
244D  FF          MOV	A,R7
244E  FF          MOV	A,R7
244F  FF          MOV	A,R7
2450  FF          MOV	A,R7
2451  FF          MOV	A,R7
2452  FF          MOV	A,R7
2453  FF          MOV	A,R7
2454  FF          MOV	A,R7
2455  FF          MOV	A,R7
2456  FF          MOV	A,R7
2457  FF          MOV	A,R7
2458  FF          MOV	A,R7
2459  FF          MOV	A,R7
245A  FF          MOV	A,R7
245B  FF          MOV	A,R7
245C  FF          MOV	A,R7
245D  FF          MOV	A,R7
245E  FF          MOV	A,R7
245F  FF          MOV	A,R7
2460  FF          MOV	A,R7
2461  FF          MOV	A,R7
2462  FF          MOV	A,R7
2463  FF          MOV	A,R7
2464  FF          MOV	A,R7
2465  FF          MOV	A,R7
2466  FF          MOV	A,R7
2467  FF          MOV	A,R7
2468  FF          MOV	A,R7
2469  FF          MOV	A,R7
246A  FF          MOV	A,R7
246B  FF          MOV	A,R7
246C  FF          MOV	A,R7
246D  FF          MOV	A,R7
246E  FF          MOV	A,R7
246F  FF          MOV	A,R7
2470  FF          MOV	A,R7
2471  FF          MOV	A,R7
2472  FF          MOV	A,R7
2473  FF          MOV	A,R7
2474  FF          MOV	A,R7
2475  FF          MOV	A,R7
2476  FF          MOV	A,R7
2477  FF          MOV	A,R7
2478  FF          MOV	A,R7
2479  FF          MOV	A,R7
247A  FF          MOV	A,R7
247B  FF          MOV	A,R7
247C  FF          MOV	A,R7
247D  FF          MOV	A,R7
247E  FF          MOV	A,R7
247F  FF          MOV	A,R7
2480  FF          MOV	A,R7
2481  FF          MOV	A,R7
2482  FF          MOV	A,R7
2483  FF          MOV	A,R7
2484  FF          MOV	A,R7
2485  FF          MOV	A,R7
2486  FF          MOV	A,R7
2487  FF          MOV	A,R7
2488  FF          MOV	A,R7
2489  FF          MOV	A,R7
248A  FF          MOV	A,R7
248B  FF          MOV	A,R7
248C  FF          MOV	A,R7
248D  FF          MOV	A,R7
248E  FF          MOV	A,R7
248F  FF          MOV	A,R7
2490  FF          MOV	A,R7
2491  FF          MOV	A,R7
2492  FF          MOV	A,R7
2493  FF          MOV	A,R7
2494  FF          MOV	A,R7
2495  FF          MOV	A,R7
2496  FF          MOV	A,R7
2497  FF          MOV	A,R7
2498  FF          MOV	A,R7
2499  FF          MOV	A,R7
249A  FF          MOV	A,R7
249B  FF          MOV	A,R7
249C  FF          MOV	A,R7
249D  FF          MOV	A,R7
249E  FF          MOV	A,R7
249F  FF          MOV	A,R7
24A0  FF          MOV	A,R7
24A1  FF          MOV	A,R7
24A2  FF          MOV	A,R7
24A3  FF          MOV	A,R7
24A4  FF          MOV	A,R7
24A5  FF          MOV	A,R7
24A6  FF          MOV	A,R7
24A7  FF          MOV	A,R7
24A8  FF          MOV	A,R7
24A9  FF          MOV	A,R7
24AA  FF          MOV	A,R7
24AB  FF          MOV	A,R7
24AC  FF          MOV	A,R7
24AD  FF          MOV	A,R7
24AE  FF          MOV	A,R7
24AF  FF          MOV	A,R7
24B0  FF          MOV	A,R7
24B1  FF          MOV	A,R7
24B2  FF          MOV	A,R7
24B3  FF          MOV	A,R7
24B4  FF          MOV	A,R7
24B5  FF          MOV	A,R7
24B6  FF          MOV	A,R7
24B7  FF          MOV	A,R7
24B8  FF          MOV	A,R7
24B9  FF          MOV	A,R7
24BA  FF          MOV	A,R7
24BB  FF          MOV	A,R7
24BC  FF          MOV	A,R7
24BD  FF          MOV	A,R7
24BE  FF          MOV	A,R7
24BF  FF          MOV	A,R7
24C0  FF          MOV	A,R7
24C1  FF          MOV	A,R7
24C2  FF          MOV	A,R7
24C3  FF          MOV	A,R7
24C4  FF          MOV	A,R7
24C5  FF          MOV	A,R7
24C6  FF          MOV	A,R7
24C7  FF          MOV	A,R7
24C8  FF          MOV	A,R7
24C9  FF          MOV	A,R7
24CA  FF          MOV	A,R7
24CB  FF          MOV	A,R7
24CC  FF          MOV	A,R7
24CD  FF          MOV	A,R7
24CE  FF          MOV	A,R7
24CF  FF          MOV	A,R7
24D0  FF          MOV	A,R7
24D1  FF          MOV	A,R7
24D2  FF          MOV	A,R7
24D3  FF          MOV	A,R7
24D4  FF          MOV	A,R7
24D5  FF          MOV	A,R7
24D6  FF          MOV	A,R7
24D7  FF          MOV	A,R7
24D8  FF          MOV	A,R7
24D9  FF          MOV	A,R7
24DA  FF          MOV	A,R7
24DB  FF          MOV	A,R7
24DC  FF          MOV	A,R7
24DD  FF          MOV	A,R7
24DE  FF          MOV	A,R7
24DF  FF          MOV	A,R7
24E0  FF          MOV	A,R7
24E1  FF          MOV	A,R7
24E2  FF          MOV	A,R7
24E3  FF          MOV	A,R7
24E4  FF          MOV	A,R7
24E5  FF          MOV	A,R7
24E6  FF          MOV	A,R7
24E7  FF          MOV	A,R7
24E8  FF          MOV	A,R7
24E9  FF          MOV	A,R7
24EA  FF          MOV	A,R7
24EB  FF          MOV	A,R7
24EC  FF          MOV	A,R7
24ED  FF          MOV	A,R7
24EE  FF          MOV	A,R7
24EF  FF          MOV	A,R7
24F0  FF          MOV	A,R7
24F1  FF          MOV	A,R7
24F2  FF          MOV	A,R7
24F3  FF          MOV	A,R7
24F4  FF          MOV	A,R7
24F5  FF          MOV	A,R7
24F6  FF          MOV	A,R7
24F7  FF          MOV	A,R7
24F8  FF          MOV	A,R7
24F9  FF          MOV	A,R7
24FA  FF          MOV	A,R7
24FB  FF          MOV	A,R7
24FC  FF          MOV	A,R7
24FD  FF          MOV	A,R7
24FE  FF          MOV	A,R7
24FF  FF          MOV	A,R7
2500  FF          MOV	A,R7
2501  FF          MOV	A,R7
2502  FF          MOV	A,R7
2503  FF          MOV	A,R7
2504  FF          MOV	A,R7
2505  FF          MOV	A,R7
2506  FF          MOV	A,R7
2507  FF          MOV	A,R7
2508  FF          MOV	A,R7
2509  FF          MOV	A,R7
250A  FF          MOV	A,R7
250B  FF          MOV	A,R7
250C  FF          MOV	A,R7
250D  FF          MOV	A,R7
250E  FF          MOV	A,R7
250F  FF          MOV	A,R7
2510  FF          MOV	A,R7
2511  FF          MOV	A,R7
2512  FF          MOV	A,R7
2513  FF          MOV	A,R7
2514  FF          MOV	A,R7
2515  FF          MOV	A,R7
2516  FF          MOV	A,R7
2517  FF          MOV	A,R7
2518  FF          MOV	A,R7
2519  FF          MOV	A,R7
251A  FF          MOV	A,R7
251B  FF          MOV	A,R7
251C  FF          MOV	A,R7
251D  FF          MOV	A,R7
251E  FF          MOV	A,R7
251F  FF          MOV	A,R7
2520  FF          MOV	A,R7
2521  FF          MOV	A,R7
2522  FF          MOV	A,R7
2523  FF          MOV	A,R7
2524  FF          MOV	A,R7
2525  FF          MOV	A,R7
2526  FF          MOV	A,R7
2527  FF          MOV	A,R7
2528  FF          MOV	A,R7
2529  FF          MOV	A,R7
252A  FF          MOV	A,R7
252B  FF          MOV	A,R7
252C  FF          MOV	A,R7
252D  FF          MOV	A,R7
252E  FF          MOV	A,R7
252F  FF          MOV	A,R7
2530  FF          MOV	A,R7
2531  FF          MOV	A,R7
2532  FF          MOV	A,R7
2533  FF          MOV	A,R7
2534  FF          MOV	A,R7
2535  FF          MOV	A,R7
2536  FF          MOV	A,R7
2537  FF          MOV	A,R7
2538  FF          MOV	A,R7
2539  FF          MOV	A,R7
253A  FF          MOV	A,R7
253B  FF          MOV	A,R7
253C  FF          MOV	A,R7
253D  FF          MOV	A,R7
253E  FF          MOV	A,R7
253F  FF          MOV	A,R7
2540  FF          MOV	A,R7
2541  FF          MOV	A,R7
2542  FF          MOV	A,R7
2543  FF          MOV	A,R7
2544  FF          MOV	A,R7
2545  FF          MOV	A,R7
2546  FF          MOV	A,R7
2547  FF          MOV	A,R7
2548  FF          MOV	A,R7
2549  FF          MOV	A,R7
254A  FF          MOV	A,R7
254B  FF          MOV	A,R7
254C  FF          MOV	A,R7
254D  FF          MOV	A,R7
254E  FF          MOV	A,R7
254F  FF          MOV	A,R7
2550  FF          MOV	A,R7
2551  FF          MOV	A,R7
2552  FF          MOV	A,R7
2553  FF          MOV	A,R7
2554  FF          MOV	A,R7
2555  FF          MOV	A,R7
2556  FF          MOV	A,R7
2557  FF          MOV	A,R7
2558  FF          MOV	A,R7
2559  FF          MOV	A,R7
255A  FF          MOV	A,R7
255B  FF          MOV	A,R7
255C  FF          MOV	A,R7
255D  FF          MOV	A,R7
255E  FF          MOV	A,R7
255F  FF          MOV	A,R7
2560  FF          MOV	A,R7
2561  FF          MOV	A,R7
2562  FF          MOV	A,R7
2563  FF          MOV	A,R7
2564  FF          MOV	A,R7
2565  FF          MOV	A,R7
2566  FF          MOV	A,R7
2567  FF          MOV	A,R7
2568  FF          MOV	A,R7
2569  FF          MOV	A,R7
256A  FF          MOV	A,R7
256B  FF          MOV	A,R7
256C  FF          MOV	A,R7
256D  FF          MOV	A,R7
256E  FF          MOV	A,R7
256F  FF          MOV	A,R7
2570  FF          MOV	A,R7
2571  FF          MOV	A,R7
2572  FF          MOV	A,R7
2573  FF          MOV	A,R7
2574  FF          MOV	A,R7
2575  FF          MOV	A,R7
2576  FF          MOV	A,R7
2577  FF          MOV	A,R7
2578  FF          MOV	A,R7
2579  FF          MOV	A,R7
257A  FF          MOV	A,R7
257B  FF          MOV	A,R7
257C  FF          MOV	A,R7
257D  FF          MOV	A,R7
257E  FF          MOV	A,R7
257F  FF          MOV	A,R7
2580  FF          MOV	A,R7
2581  FF          MOV	A,R7
2582  FF          MOV	A,R7
2583  FF          MOV	A,R7
2584  FF          MOV	A,R7
2585  FF          MOV	A,R7
2586  FF          MOV	A,R7
2587  FF          MOV	A,R7
2588  FF          MOV	A,R7
2589  FF          MOV	A,R7
258A  FF          MOV	A,R7
258B  FF          MOV	A,R7
258C  FF          MOV	A,R7
258D  FF          MOV	A,R7
258E  FF          MOV	A,R7
258F  FF          MOV	A,R7
2590  FF          MOV	A,R7
2591  FF          MOV	A,R7
2592  FF          MOV	A,R7
2593  FF          MOV	A,R7
2594  FF          MOV	A,R7
2595  FF          MOV	A,R7
2596  FF          MOV	A,R7
2597  FF          MOV	A,R7
2598  FF          MOV	A,R7
2599  FF          MOV	A,R7
259A  FF          MOV	A,R7
259B  FF          MOV	A,R7
259C  FF          MOV	A,R7
259D  FF          MOV	A,R7
259E  FF          MOV	A,R7
259F  FF          MOV	A,R7
25A0  FF          MOV	A,R7
25A1  FF          MOV	A,R7
25A2  FF          MOV	A,R7
25A3  FF          MOV	A,R7
25A4  FF          MOV	A,R7
25A5  FF          MOV	A,R7
25A6  FF          MOV	A,R7
25A7  FF          MOV	A,R7
25A8  FF          MOV	A,R7
25A9  FF          MOV	A,R7
25AA  FF          MOV	A,R7
25AB  FF          MOV	A,R7
25AC  FF          MOV	A,R7
25AD  FF          MOV	A,R7
25AE  FF          MOV	A,R7
25AF  FF          MOV	A,R7
25B0  FF          MOV	A,R7
25B1  FF          MOV	A,R7
25B2  FF          MOV	A,R7
25B3  FF          MOV	A,R7
25B4  FF          MOV	A,R7
25B5  FF          MOV	A,R7
25B6  FF          MOV	A,R7
25B7  FF          MOV	A,R7
25B8  FF          MOV	A,R7
25B9  FF          MOV	A,R7
25BA  FF          MOV	A,R7
25BB  FF          MOV	A,R7
25BC  FF          MOV	A,R7
25BD  FF          MOV	A,R7
25BE  FF          MOV	A,R7
25BF  FF          MOV	A,R7
25C0  FF          MOV	A,R7
25C1  FF          MOV	A,R7
25C2  FF          MOV	A,R7
25C3  FF          MOV	A,R7
25C4  FF          MOV	A,R7
25C5  FF          MOV	A,R7
25C6  FF          MOV	A,R7
25C7  FF          MOV	A,R7
25C8  FF          MOV	A,R7
25C9  FF          MOV	A,R7
25CA  FF          MOV	A,R7
25CB  FF          MOV	A,R7
25CC  FF          MOV	A,R7
25CD  FF          MOV	A,R7
25CE  FF          MOV	A,R7
25CF  FF          MOV	A,R7
25D0  FF          MOV	A,R7
25D1  FF          MOV	A,R7
25D2  FF          MOV	A,R7
25D3  FF          MOV	A,R7
25D4  FF          MOV	A,R7
25D5  FF          MOV	A,R7
25D6  FF          MOV	A,R7
25D7  FF          MOV	A,R7
25D8  FF          MOV	A,R7
25D9  FF          MOV	A,R7
25DA  FF          MOV	A,R7
25DB  FF          MOV	A,R7
25DC  FF          MOV	A,R7
25DD  FF          MOV	A,R7
25DE  FF          MOV	A,R7
25DF  FF          MOV	A,R7
25E0  FF          MOV	A,R7
25E1  FF          MOV	A,R7
25E2  FF          MOV	A,R7
25E3  FF          MOV	A,R7
25E4  FF          MOV	A,R7
25E5  FF          MOV	A,R7
25E6  FF          MOV	A,R7
25E7  FF          MOV	A,R7
25E8  FF          MOV	A,R7
25E9  FF          MOV	A,R7
25EA  FF          MOV	A,R7
25EB  FF          MOV	A,R7
25EC  FF          MOV	A,R7
25ED  FF          MOV	A,R7
25EE  FF          MOV	A,R7
25EF  FF          MOV	A,R7
25F0  FF          MOV	A,R7
25F1  FF          MOV	A,R7
25F2  FF          MOV	A,R7
25F3  FF          MOV	A,R7
25F4  FF          MOV	A,R7
25F5  FF          MOV	A,R7
25F6  FF          MOV	A,R7
25F7  FF          MOV	A,R7
25F8  FF          MOV	A,R7
25F9  FF          MOV	A,R7
25FA  FF          MOV	A,R7
25FB  FF          MOV	A,R7
25FC  FF          MOV	A,R7
25FD  FF          MOV	A,R7
25FE  FF          MOV	A,R7
25FF  FF          MOV	A,R7
2600  FF          MOV	A,R7
2601  FF          MOV	A,R7
2602  FF          MOV	A,R7
2603  FF          MOV	A,R7
2604  FF          MOV	A,R7
2605  FF          MOV	A,R7
2606  FF          MOV	A,R7
2607  FF          MOV	A,R7
2608  FF          MOV	A,R7
2609  FF          MOV	A,R7
260A  FF          MOV	A,R7
260B  FF          MOV	A,R7
260C  FF          MOV	A,R7
260D  FF          MOV	A,R7
260E  FF          MOV	A,R7
260F  FF          MOV	A,R7
2610  FF          MOV	A,R7
2611  FF          MOV	A,R7
2612  FF          MOV	A,R7
2613  FF          MOV	A,R7
2614  FF          MOV	A,R7
2615  FF          MOV	A,R7
2616  FF          MOV	A,R7
2617  FF          MOV	A,R7
2618  FF          MOV	A,R7
2619  FF          MOV	A,R7
261A  FF          MOV	A,R7
261B  FF          MOV	A,R7
261C  FF          MOV	A,R7
261D  FF          MOV	A,R7
261E  FF          MOV	A,R7
261F  FF          MOV	A,R7
2620  FF          MOV	A,R7
2621  FF          MOV	A,R7
2622  FF          MOV	A,R7
2623  FF          MOV	A,R7
2624  FF          MOV	A,R7
2625  FF          MOV	A,R7
2626  FF          MOV	A,R7
2627  FF          MOV	A,R7
2628  FF          MOV	A,R7
2629  FF          MOV	A,R7
262A  FF          MOV	A,R7
262B  FF          MOV	A,R7
262C  FF          MOV	A,R7
262D  FF          MOV	A,R7
262E  FF          MOV	A,R7
262F  FF          MOV	A,R7
2630  FF          MOV	A,R7
2631  FF          MOV	A,R7
2632  FF          MOV	A,R7
2633  FF          MOV	A,R7
2634  FF          MOV	A,R7
2635  FF          MOV	A,R7
2636  FF          MOV	A,R7
2637  FF          MOV	A,R7
2638  FF          MOV	A,R7
2639  FF          MOV	A,R7
263A  FF          MOV	A,R7
263B  FF          MOV	A,R7
263C  FF          MOV	A,R7
263D  FF          MOV	A,R7
263E  FF          MOV	A,R7
263F  FF          MOV	A,R7
2640  FF          MOV	A,R7
2641  FF          MOV	A,R7
2642  FF          MOV	A,R7
2643  FF          MOV	A,R7
2644  FF          MOV	A,R7
2645  FF          MOV	A,R7
2646  FF          MOV	A,R7
2647  FF          MOV	A,R7
2648  FF          MOV	A,R7
2649  FF          MOV	A,R7
264A  FF          MOV	A,R7
264B  FF          MOV	A,R7
264C  FF          MOV	A,R7
264D  FF          MOV	A,R7
264E  FF          MOV	A,R7
264F  FF          MOV	A,R7
2650  FF          MOV	A,R7
2651  FF          MOV	A,R7
2652  FF          MOV	A,R7
2653  FF          MOV	A,R7
2654  FF          MOV	A,R7
2655  FF          MOV	A,R7
2656  FF          MOV	A,R7
2657  FF          MOV	A,R7
2658  FF          MOV	A,R7
2659  FF          MOV	A,R7
265A  FF          MOV	A,R7
265B  FF          MOV	A,R7
265C  FF          MOV	A,R7
265D  FF          MOV	A,R7
265E  FF          MOV	A,R7
265F  FF          MOV	A,R7
2660  FF          MOV	A,R7
2661  FF          MOV	A,R7
2662  FF          MOV	A,R7
2663  FF          MOV	A,R7
2664  FF          MOV	A,R7
2665  FF          MOV	A,R7
2666  FF          MOV	A,R7
2667  FF          MOV	A,R7
2668  FF          MOV	A,R7
2669  FF          MOV	A,R7
266A  FF          MOV	A,R7
266B  FF          MOV	A,R7
266C  FF          MOV	A,R7
266D  FF          MOV	A,R7
266E  FF          MOV	A,R7
266F  FF          MOV	A,R7
2670  FF          MOV	A,R7
2671  FF          MOV	A,R7
2672  FF          MOV	A,R7
2673  FF          MOV	A,R7
2674  FF          MOV	A,R7
2675  FF          MOV	A,R7
2676  FF          MOV	A,R7
2677  FF          MOV	A,R7
2678  FF          MOV	A,R7
2679  FF          MOV	A,R7
267A  FF          MOV	A,R7
267B  FF          MOV	A,R7
267C  FF          MOV	A,R7
267D  FF          MOV	A,R7
267E  FF          MOV	A,R7
267F  FF          MOV	A,R7
2680  FF          MOV	A,R7
2681  FF          MOV	A,R7
2682  FF          MOV	A,R7
2683  FF          MOV	A,R7
2684  FF          MOV	A,R7
2685  FF          MOV	A,R7
2686  FF          MOV	A,R7
2687  FF          MOV	A,R7
2688  FF          MOV	A,R7
2689  FF          MOV	A,R7
268A  FF          MOV	A,R7
268B  FF          MOV	A,R7
268C  FF          MOV	A,R7
268D  FF          MOV	A,R7
268E  FF          MOV	A,R7
268F  FF          MOV	A,R7
2690  FF          MOV	A,R7
2691  FF          MOV	A,R7
2692  FF          MOV	A,R7
2693  FF          MOV	A,R7
2694  FF          MOV	A,R7
2695  FF          MOV	A,R7
2696  FF          MOV	A,R7
2697  FF          MOV	A,R7
2698  FF          MOV	A,R7
2699  FF          MOV	A,R7
269A  FF          MOV	A,R7
269B  FF          MOV	A,R7
269C  FF          MOV	A,R7
269D  FF          MOV	A,R7
269E  FF          MOV	A,R7
269F  FF          MOV	A,R7
26A0  FF          MOV	A,R7
26A1  FF          MOV	A,R7
26A2  FF          MOV	A,R7
26A3  FF          MOV	A,R7
26A4  FF          MOV	A,R7
26A5  FF          MOV	A,R7
26A6  FF          MOV	A,R7
26A7  FF          MOV	A,R7
26A8  FF          MOV	A,R7
26A9  FF          MOV	A,R7
26AA  FF          MOV	A,R7
26AB  FF          MOV	A,R7
26AC  FF          MOV	A,R7
26AD  FF          MOV	A,R7
26AE  FF          MOV	A,R7
26AF  FF          MOV	A,R7
26B0  FF          MOV	A,R7
26B1  FF          MOV	A,R7
26B2  FF          MOV	A,R7
26B3  FF          MOV	A,R7
26B4  FF          MOV	A,R7
26B5  FF          MOV	A,R7
26B6  FF          MOV	A,R7
26B7  FF          MOV	A,R7
26B8  FF          MOV	A,R7
26B9  FF          MOV	A,R7
26BA  FF          MOV	A,R7
26BB  FF          MOV	A,R7
26BC  FF          MOV	A,R7
26BD  FF          MOV	A,R7
26BE  FF          MOV	A,R7
26BF  FF          MOV	A,R7
26C0  FF          MOV	A,R7
26C1  FF          MOV	A,R7
26C2  FF          MOV	A,R7
26C3  FF          MOV	A,R7
26C4  FF          MOV	A,R7
26C5  FF          MOV	A,R7
26C6  FF          MOV	A,R7
26C7  FF          MOV	A,R7
26C8  FF          MOV	A,R7
26C9  FF          MOV	A,R7
26CA  FF          MOV	A,R7
26CB  FF          MOV	A,R7
26CC  FF          MOV	A,R7
26CD  FF          MOV	A,R7
26CE  FF          MOV	A,R7
26CF  FF          MOV	A,R7
26D0  FF          MOV	A,R7
26D1  FF          MOV	A,R7
26D2  FF          MOV	A,R7
26D3  FF          MOV	A,R7
26D4  FF          MOV	A,R7
26D5  FF          MOV	A,R7
26D6  FF          MOV	A,R7
26D7  FF          MOV	A,R7
26D8  FF          MOV	A,R7
26D9  FF          MOV	A,R7
26DA  FF          MOV	A,R7
26DB  FF          MOV	A,R7
26DC  FF          MOV	A,R7
26DD  FF          MOV	A,R7
26DE  FF          MOV	A,R7
26DF  FF          MOV	A,R7
26E0  FF          MOV	A,R7
26E1  FF          MOV	A,R7
26E2  FF          MOV	A,R7
26E3  FF          MOV	A,R7
26E4  FF          MOV	A,R7
26E5  FF          MOV	A,R7
26E6  FF          MOV	A,R7
26E7  FF          MOV	A,R7
26E8  FF          MOV	A,R7
26E9  FF          MOV	A,R7
26EA  FF          MOV	A,R7
26EB  FF          MOV	A,R7
26EC  FF          MOV	A,R7
26ED  FF          MOV	A,R7
26EE  FF          MOV	A,R7
26EF  FF          MOV	A,R7
26F0  FF          MOV	A,R7
26F1  FF          MOV	A,R7
26F2  FF          MOV	A,R7
26F3  FF          MOV	A,R7
26F4  FF          MOV	A,R7
26F5  FF          MOV	A,R7
26F6  FF          MOV	A,R7
26F7  FF          MOV	A,R7
26F8  FF          MOV	A,R7
26F9  FF          MOV	A,R7
26FA  FF          MOV	A,R7
26FB  FF          MOV	A,R7
26FC  FF          MOV	A,R7
26FD  FF          MOV	A,R7
26FE  FF          MOV	A,R7
26FF  FF          MOV	A,R7
2700  FF          MOV	A,R7
2701  FF          MOV	A,R7
2702  FF          MOV	A,R7
2703  FF          MOV	A,R7
2704  FF          MOV	A,R7
2705  FF          MOV	A,R7
2706  FF          MOV	A,R7
2707  FF          MOV	A,R7
2708  FF          MOV	A,R7
2709  FF          MOV	A,R7
270A  FF          MOV	A,R7
270B  FF          MOV	A,R7
270C  FF          MOV	A,R7
270D  FF          MOV	A,R7
270E  FF          MOV	A,R7
270F  FF          MOV	A,R7
2710  FF          MOV	A,R7
2711  FF          MOV	A,R7
2712  FF          MOV	A,R7
2713  FF          MOV	A,R7
2714  FF          MOV	A,R7
2715  FF          MOV	A,R7
2716  FF          MOV	A,R7
2717  FF          MOV	A,R7
2718  FF          MOV	A,R7
2719  FF          MOV	A,R7
271A  FF          MOV	A,R7
271B  FF          MOV	A,R7
271C  FF          MOV	A,R7
271D  FF          MOV	A,R7
271E  FF          MOV	A,R7
271F  FF          MOV	A,R7
2720  FF          MOV	A,R7
2721  FF          MOV	A,R7
2722  FF          MOV	A,R7
2723  FF          MOV	A,R7
2724  FF          MOV	A,R7
2725  FF          MOV	A,R7
2726  FF          MOV	A,R7
2727  FF          MOV	A,R7
2728  FF          MOV	A,R7
2729  FF          MOV	A,R7
272A  FF          MOV	A,R7
272B  FF          MOV	A,R7
272C  FF          MOV	A,R7
272D  FF          MOV	A,R7
272E  FF          MOV	A,R7
272F  FF          MOV	A,R7
2730  FF          MOV	A,R7
2731  FF          MOV	A,R7
2732  FF          MOV	A,R7
2733  FF          MOV	A,R7
2734  FF          MOV	A,R7
2735  FF          MOV	A,R7
2736  FF          MOV	A,R7
2737  FF          MOV	A,R7
2738  FF          MOV	A,R7
2739  FF          MOV	A,R7
273A  FF          MOV	A,R7
273B  FF          MOV	A,R7
273C  FF          MOV	A,R7
273D  FF          MOV	A,R7
273E  FF          MOV	A,R7
273F  FF          MOV	A,R7
2740  FF          MOV	A,R7
2741  FF          MOV	A,R7
2742  FF          MOV	A,R7
2743  FF          MOV	A,R7
2744  FF          MOV	A,R7
2745  FF          MOV	A,R7
2746  FF          MOV	A,R7
2747  FF          MOV	A,R7
2748  FF          MOV	A,R7
2749  FF          MOV	A,R7
274A  FF          MOV	A,R7
274B  FF          MOV	A,R7
274C  FF          MOV	A,R7
274D  FF          MOV	A,R7
274E  FF          MOV	A,R7
274F  FF          MOV	A,R7
2750  FF          MOV	A,R7
2751  FF          MOV	A,R7
2752  FF          MOV	A,R7
2753  FF          MOV	A,R7
2754  FF          MOV	A,R7
2755  FF          MOV	A,R7
2756  FF          MOV	A,R7
2757  FF          MOV	A,R7
2758  FF          MOV	A,R7
2759  FF          MOV	A,R7
275A  FF          MOV	A,R7
275B  FF          MOV	A,R7
275C  FF          MOV	A,R7
275D  FF          MOV	A,R7
275E  FF          MOV	A,R7
275F  FF          MOV	A,R7
2760  FF          MOV	A,R7
2761  FF          MOV	A,R7
2762  FF          MOV	A,R7
2763  FF          MOV	A,R7
2764  FF          MOV	A,R7
2765  FF          MOV	A,R7
2766  FF          MOV	A,R7
2767  FF          MOV	A,R7
2768  FF          MOV	A,R7
2769  FF          MOV	A,R7
276A  FF          MOV	A,R7
276B  FF          MOV	A,R7
276C  FF          MOV	A,R7
276D  FF          MOV	A,R7
276E  FF          MOV	A,R7
276F  FF          MOV	A,R7
2770  FF          MOV	A,R7
2771  FF          MOV	A,R7
2772  FF          MOV	A,R7
2773  FF          MOV	A,R7
2774  FF          MOV	A,R7
2775  FF          MOV	A,R7
2776  FF          MOV	A,R7
2777  FF          MOV	A,R7
2778  FF          MOV	A,R7
2779  FF          MOV	A,R7
277A  FF          MOV	A,R7
277B  FF          MOV	A,R7
277C  FF          MOV	A,R7
277D  FF          MOV	A,R7
277E  FF          MOV	A,R7
277F  FF          MOV	A,R7
2780  FF          MOV	A,R7
2781  FF          MOV	A,R7
2782  FF          MOV	A,R7
2783  FF          MOV	A,R7
2784  FF          MOV	A,R7
2785  FF          MOV	A,R7
2786  FF          MOV	A,R7
2787  FF          MOV	A,R7
2788  FF          MOV	A,R7
2789  FF          MOV	A,R7
278A  FF          MOV	A,R7
278B  FF          MOV	A,R7
278C  FF          MOV	A,R7
278D  FF          MOV	A,R7
278E  FF          MOV	A,R7
278F  FF          MOV	A,R7
2790  FF          MOV	A,R7
2791  FF          MOV	A,R7
2792  FF          MOV	A,R7
2793  FF          MOV	A,R7
2794  FF          MOV	A,R7
2795  FF          MOV	A,R7
2796  FF          MOV	A,R7
2797  FF          MOV	A,R7
2798  FF          MOV	A,R7
2799  FF          MOV	A,R7
279A  FF          MOV	A,R7
279B  FF          MOV	A,R7
279C  FF          MOV	A,R7
279D  FF          MOV	A,R7
279E  FF          MOV	A,R7
279F  FF          MOV	A,R7
27A0  FF          MOV	A,R7
27A1  FF          MOV	A,R7
27A2  FF          MOV	A,R7
27A3  FF          MOV	A,R7
27A4  FF          MOV	A,R7
27A5  FF          MOV	A,R7
27A6  FF          MOV	A,R7
27A7  FF          MOV	A,R7
27A8  FF          MOV	A,R7
27A9  FF          MOV	A,R7
27AA  FF          MOV	A,R7
27AB  FF          MOV	A,R7
27AC  FF          MOV	A,R7
27AD  FF          MOV	A,R7
27AE  FF          MOV	A,R7
27AF  FF          MOV	A,R7
27B0  FF          MOV	A,R7
27B1  FF          MOV	A,R7
27B2  FF          MOV	A,R7
27B3  FF          MOV	A,R7
27B4  FF          MOV	A,R7
27B5  FF          MOV	A,R7
27B6  FF          MOV	A,R7
27B7  FF          MOV	A,R7
27B8  FF          MOV	A,R7
27B9  FF          MOV	A,R7
27BA  FF          MOV	A,R7
27BB  FF          MOV	A,R7
27BC  FF          MOV	A,R7
27BD  FF          MOV	A,R7
27BE  FF          MOV	A,R7
27BF  FF          MOV	A,R7
27C0  FF          MOV	A,R7
27C1  FF          MOV	A,R7
27C2  FF          MOV	A,R7
27C3  FF          MOV	A,R7
27C4  FF          MOV	A,R7
27C5  FF          MOV	A,R7
27C6  FF          MOV	A,R7
27C7  FF          MOV	A,R7
27C8  FF          MOV	A,R7
27C9  FF          MOV	A,R7
27CA  FF          MOV	A,R7
27CB  FF          MOV	A,R7
27CC  FF          MOV	A,R7
27CD  FF          MOV	A,R7
27CE  FF          MOV	A,R7
27CF  FF          MOV	A,R7
27D0  FF          MOV	A,R7
27D1  FF          MOV	A,R7
27D2  FF          MOV	A,R7
27D3  FF          MOV	A,R7
27D4  FF          MOV	A,R7
27D5  FF          MOV	A,R7
27D6  FF          MOV	A,R7
27D7  FF          MOV	A,R7
27D8  FF          MOV	A,R7
27D9  FF          MOV	A,R7
27DA  FF          MOV	A,R7
27DB  FF          MOV	A,R7
27DC  FF          MOV	A,R7
27DD  FF          MOV	A,R7
27DE  FF          MOV	A,R7
27DF  FF          MOV	A,R7
27E0  FF          MOV	A,R7
27E1  FF          MOV	A,R7
27E2  FF          MOV	A,R7
27E3  FF          MOV	A,R7
27E4  FF          MOV	A,R7
27E5  FF          MOV	A,R7
27E6  FF          MOV	A,R7
27E7  FF          MOV	A,R7
27E8  FF          MOV	A,R7
27E9  FF          MOV	A,R7
27EA  FF          MOV	A,R7
27EB  FF          MOV	A,R7
27EC  FF          MOV	A,R7
27ED  FF          MOV	A,R7
27EE  FF          MOV	A,R7
27EF  FF          MOV	A,R7
27F0  FF          MOV	A,R7
27F1  FF          MOV	A,R7
27F2  FF          MOV	A,R7
27F3  FF          MOV	A,R7
27F4  FF          MOV	A,R7
27F5  FF          MOV	A,R7
27F6  FF          MOV	A,R7
27F7  FF          MOV	A,R7
27F8  FF          MOV	A,R7
27F9  FF          MOV	A,R7
27FA  FF          MOV	A,R7
27FB  FF          MOV	A,R7
27FC  FF          MOV	A,R7
27FD  FF          MOV	A,R7
27FE  FF          MOV	A,R7
27FF  FF          MOV	A,R7
2800  FF          MOV	A,R7
2801  FF          MOV	A,R7
2802  FF          MOV	A,R7
2803  FF          MOV	A,R7
2804  FF          MOV	A,R7
2805  FF          MOV	A,R7
2806  FF          MOV	A,R7
2807  FF          MOV	A,R7
2808  FF          MOV	A,R7
2809  FF          MOV	A,R7
280A  FF          MOV	A,R7
280B  FF          MOV	A,R7
280C  FF          MOV	A,R7
280D  FF          MOV	A,R7
280E  FF          MOV	A,R7
280F  FF          MOV	A,R7
2810  FF          MOV	A,R7
2811  FF          MOV	A,R7
2812  FF          MOV	A,R7
2813  FF          MOV	A,R7
2814  FF          MOV	A,R7
2815  FF          MOV	A,R7
2816  FF          MOV	A,R7
2817  FF          MOV	A,R7
2818  FF          MOV	A,R7
2819  FF          MOV	A,R7
281A  FF          MOV	A,R7
281B  FF          MOV	A,R7
281C  FF          MOV	A,R7
281D  FF          MOV	A,R7
281E  FF          MOV	A,R7
281F  FF          MOV	A,R7
2820  FF          MOV	A,R7
2821  FF          MOV	A,R7
2822  FF          MOV	A,R7
2823  FF          MOV	A,R7
2824  FF          MOV	A,R7
2825  FF          MOV	A,R7
2826  FF          MOV	A,R7
2827  FF          MOV	A,R7
2828  FF          MOV	A,R7
2829  FF          MOV	A,R7
282A  FF          MOV	A,R7
282B  FF          MOV	A,R7
282C  FF          MOV	A,R7
282D  FF          MOV	A,R7
282E  FF          MOV	A,R7
282F  FF          MOV	A,R7
2830  FF          MOV	A,R7
2831  FF          MOV	A,R7
2832  FF          MOV	A,R7
2833  FF          MOV	A,R7
2834  FF          MOV	A,R7
2835  FF          MOV	A,R7
2836  FF          MOV	A,R7
2837  FF          MOV	A,R7
2838  FF          MOV	A,R7
2839  FF          MOV	A,R7
283A  FF          MOV	A,R7
283B  FF          MOV	A,R7
283C  FF          MOV	A,R7
283D  FF          MOV	A,R7
283E  FF          MOV	A,R7
283F  FF          MOV	A,R7
2840  FF          MOV	A,R7
2841  FF          MOV	A,R7
2842  FF          MOV	A,R7
2843  FF          MOV	A,R7
2844  FF          MOV	A,R7
2845  FF          MOV	A,R7
2846  FF          MOV	A,R7
2847  FF          MOV	A,R7
2848  FF          MOV	A,R7
2849  FF          MOV	A,R7
284A  FF          MOV	A,R7
284B  FF          MOV	A,R7
284C  FF          MOV	A,R7
284D  FF          MOV	A,R7
284E  FF          MOV	A,R7
284F  FF          MOV	A,R7
2850  FF          MOV	A,R7
2851  FF          MOV	A,R7
2852  FF          MOV	A,R7
2853  FF          MOV	A,R7
2854  FF          MOV	A,R7
2855  FF          MOV	A,R7
2856  FF          MOV	A,R7
2857  FF          MOV	A,R7
2858  FF          MOV	A,R7
2859  FF          MOV	A,R7
285A  FF          MOV	A,R7
285B  FF          MOV	A,R7
285C  FF          MOV	A,R7
285D  FF          MOV	A,R7
285E  FF          MOV	A,R7
285F  FF          MOV	A,R7
2860  FF          MOV	A,R7
2861  FF          MOV	A,R7
2862  FF          MOV	A,R7
2863  FF          MOV	A,R7
2864  FF          MOV	A,R7
2865  FF          MOV	A,R7
2866  FF          MOV	A,R7
2867  FF          MOV	A,R7
2868  FF          MOV	A,R7
2869  FF          MOV	A,R7
286A  FF          MOV	A,R7
286B  FF          MOV	A,R7
286C  FF          MOV	A,R7
286D  FF          MOV	A,R7
286E  FF          MOV	A,R7
286F  FF          MOV	A,R7
2870  FF          MOV	A,R7
2871  FF          MOV	A,R7
2872  FF          MOV	A,R7
2873  FF          MOV	A,R7
2874  FF          MOV	A,R7
2875  FF          MOV	A,R7
2876  FF          MOV	A,R7
2877  FF          MOV	A,R7
2878  FF          MOV	A,R7
2879  FF          MOV	A,R7
287A  FF          MOV	A,R7
287B  FF          MOV	A,R7
287C  FF          MOV	A,R7
287D  FF          MOV	A,R7
287E  FF          MOV	A,R7
287F  FF          MOV	A,R7
2880  FF          MOV	A,R7
2881  FF          MOV	A,R7
2882  FF          MOV	A,R7
2883  FF          MOV	A,R7
2884  FF          MOV	A,R7
2885  FF          MOV	A,R7
2886  FF          MOV	A,R7
2887  FF          MOV	A,R7
2888  FF          MOV	A,R7
2889  FF          MOV	A,R7
288A  FF          MOV	A,R7
288B  FF          MOV	A,R7
288C  FF          MOV	A,R7
288D  FF          MOV	A,R7
288E  FF          MOV	A,R7
288F  FF          MOV	A,R7
2890  FF          MOV	A,R7
2891  FF          MOV	A,R7
2892  FF          MOV	A,R7
2893  FF          MOV	A,R7
2894  FF          MOV	A,R7
2895  FF          MOV	A,R7
2896  FF          MOV	A,R7
2897  FF          MOV	A,R7
2898  FF          MOV	A,R7
2899  FF          MOV	A,R7
289A  FF          MOV	A,R7
289B  FF          MOV	A,R7
289C  FF          MOV	A,R7
289D  FF          MOV	A,R7
289E  FF          MOV	A,R7
289F  FF          MOV	A,R7
28A0  FF          MOV	A,R7
28A1  FF          MOV	A,R7
28A2  FF          MOV	A,R7
28A3  FF          MOV	A,R7
28A4  FF          MOV	A,R7
28A5  FF          MOV	A,R7
28A6  FF          MOV	A,R7
28A7  FF          MOV	A,R7
28A8  FF          MOV	A,R7
28A9  FF          MOV	A,R7
28AA  FF          MOV	A,R7
28AB  FF          MOV	A,R7
28AC  FF          MOV	A,R7
28AD  FF          MOV	A,R7
28AE  FF          MOV	A,R7
28AF  FF          MOV	A,R7
28B0  FF          MOV	A,R7
28B1  FF          MOV	A,R7
28B2  FF          MOV	A,R7
28B3  FF          MOV	A,R7
28B4  FF          MOV	A,R7
28B5  FF          MOV	A,R7
28B6  FF          MOV	A,R7
28B7  FF          MOV	A,R7
28B8  FF          MOV	A,R7
28B9  FF          MOV	A,R7
28BA  FF          MOV	A,R7
28BB  FF          MOV	A,R7
28BC  FF          MOV	A,R7
28BD  FF          MOV	A,R7
28BE  FF          MOV	A,R7
28BF  FF          MOV	A,R7
28C0  FF          MOV	A,R7
28C1  FF          MOV	A,R7
28C2  FF          MOV	A,R7
28C3  FF          MOV	A,R7
28C4  FF          MOV	A,R7
28C5  FF          MOV	A,R7
28C6  FF          MOV	A,R7
28C7  FF          MOV	A,R7
28C8  FF          MOV	A,R7
28C9  FF          MOV	A,R7
28CA  FF          MOV	A,R7
28CB  FF          MOV	A,R7
28CC  FF          MOV	A,R7
28CD  FF          MOV	A,R7
28CE  FF          MOV	A,R7
28CF  FF          MOV	A,R7
28D0  FF          MOV	A,R7
28D1  FF          MOV	A,R7
28D2  FF          MOV	A,R7
28D3  FF          MOV	A,R7
28D4  FF          MOV	A,R7
28D5  FF          MOV	A,R7
28D6  FF          MOV	A,R7
28D7  FF          MOV	A,R7
28D8  FF          MOV	A,R7
28D9  FF          MOV	A,R7
28DA  FF          MOV	A,R7
28DB  FF          MOV	A,R7
28DC  FF          MOV	A,R7
28DD  FF          MOV	A,R7
28DE  FF          MOV	A,R7
28DF  FF          MOV	A,R7
28E0  FF          MOV	A,R7
28E1  FF          MOV	A,R7
28E2  FF          MOV	A,R7
28E3  FF          MOV	A,R7
28E4  FF          MOV	A,R7
28E5  FF          MOV	A,R7
28E6  FF          MOV	A,R7
28E7  FF          MOV	A,R7
28E8  FF          MOV	A,R7
28E9  FF          MOV	A,R7
28EA  FF          MOV	A,R7
28EB  FF          MOV	A,R7
28EC  FF          MOV	A,R7
28ED  FF          MOV	A,R7
28EE  FF          MOV	A,R7
28EF  FF          MOV	A,R7
28F0  FF          MOV	A,R7
28F1  FF          MOV	A,R7
28F2  FF          MOV	A,R7
28F3  FF          MOV	A,R7
28F4  FF          MOV	A,R7
28F5  FF          MOV	A,R7
28F6  FF          MOV	A,R7
28F7  FF          MOV	A,R7
28F8  FF          MOV	A,R7
28F9  FF          MOV	A,R7
28FA  FF          MOV	A,R7
28FB  FF          MOV	A,R7
28FC  FF          MOV	A,R7
28FD  FF          MOV	A,R7
28FE  FF          MOV	A,R7
28FF  FF          MOV	A,R7
2900  FF          MOV	A,R7
2901  FF          MOV	A,R7
2902  FF          MOV	A,R7
2903  FF          MOV	A,R7
2904  FF          MOV	A,R7
2905  FF          MOV	A,R7
2906  FF          MOV	A,R7
2907  FF          MOV	A,R7
2908  FF          MOV	A,R7
2909  FF          MOV	A,R7
290A  FF          MOV	A,R7
290B  FF          MOV	A,R7
290C  FF          MOV	A,R7
290D  FF          MOV	A,R7
290E  FF          MOV	A,R7
290F  FF          MOV	A,R7
2910  FF          MOV	A,R7
2911  FF          MOV	A,R7
2912  FF          MOV	A,R7
2913  FF          MOV	A,R7
2914  FF          MOV	A,R7
2915  FF          MOV	A,R7
2916  FF          MOV	A,R7
2917  FF          MOV	A,R7
2918  FF          MOV	A,R7
2919  FF          MOV	A,R7
291A  FF          MOV	A,R7
291B  FF          MOV	A,R7
291C  FF          MOV	A,R7
291D  FF          MOV	A,R7
291E  FF          MOV	A,R7
291F  FF          MOV	A,R7
2920  FF          MOV	A,R7
2921  FF          MOV	A,R7
2922  FF          MOV	A,R7
2923  FF          MOV	A,R7
2924  FF          MOV	A,R7
2925  FF          MOV	A,R7
2926  FF          MOV	A,R7
2927  FF          MOV	A,R7
2928  FF          MOV	A,R7
2929  FF          MOV	A,R7
292A  FF          MOV	A,R7
292B  FF          MOV	A,R7
292C  FF          MOV	A,R7
292D  FF          MOV	A,R7
292E  FF          MOV	A,R7
292F  FF          MOV	A,R7
2930  FF          MOV	A,R7
2931  FF          MOV	A,R7
2932  FF          MOV	A,R7
2933  FF          MOV	A,R7
2934  FF          MOV	A,R7
2935  FF          MOV	A,R7
2936  FF          MOV	A,R7
2937  FF          MOV	A,R7
2938  FF          MOV	A,R7
2939  FF          MOV	A,R7
293A  FF          MOV	A,R7
293B  FF          MOV	A,R7
293C  FF          MOV	A,R7
293D  FF          MOV	A,R7
293E  FF          MOV	A,R7
293F  FF          MOV	A,R7
2940  FF          MOV	A,R7
2941  FF          MOV	A,R7
2942  FF          MOV	A,R7
2943  FF          MOV	A,R7
2944  FF          MOV	A,R7
2945  FF          MOV	A,R7
2946  FF          MOV	A,R7
2947  FF          MOV	A,R7
2948  FF          MOV	A,R7
2949  FF          MOV	A,R7
294A  FF          MOV	A,R7
294B  FF          MOV	A,R7
294C  FF          MOV	A,R7
294D  FF          MOV	A,R7
294E  FF          MOV	A,R7
294F  FF          MOV	A,R7
2950  FF          MOV	A,R7
2951  FF          MOV	A,R7
2952  FF          MOV	A,R7
2953  FF          MOV	A,R7
2954  FF          MOV	A,R7
2955  FF          MOV	A,R7
2956  FF          MOV	A,R7
2957  FF          MOV	A,R7
2958  FF          MOV	A,R7
2959  FF          MOV	A,R7
295A  FF          MOV	A,R7
295B  FF          MOV	A,R7
295C  FF          MOV	A,R7
295D  FF          MOV	A,R7
295E  FF          MOV	A,R7
295F  FF          MOV	A,R7
2960  FF          MOV	A,R7
2961  FF          MOV	A,R7
2962  FF          MOV	A,R7
2963  FF          MOV	A,R7
2964  FF          MOV	A,R7
2965  FF          MOV	A,R7
2966  FF          MOV	A,R7
2967  FF          MOV	A,R7
2968  FF          MOV	A,R7
2969  FF          MOV	A,R7
296A  FF          MOV	A,R7
296B  FF          MOV	A,R7
296C  FF          MOV	A,R7
296D  FF          MOV	A,R7
296E  FF          MOV	A,R7
296F  FF          MOV	A,R7
2970  FF          MOV	A,R7
2971  FF          MOV	A,R7
2972  FF          MOV	A,R7
2973  FF          MOV	A,R7
2974  FF          MOV	A,R7
2975  FF          MOV	A,R7
2976  FF          MOV	A,R7
2977  FF          MOV	A,R7
2978  FF          MOV	A,R7
2979  FF          MOV	A,R7
297A  FF          MOV	A,R7
297B  FF          MOV	A,R7
297C  FF          MOV	A,R7
297D  FF          MOV	A,R7
297E  FF          MOV	A,R7
297F  FF          MOV	A,R7
2980  FF          MOV	A,R7
2981  FF          MOV	A,R7
2982  FF          MOV	A,R7
2983  FF          MOV	A,R7
2984  FF          MOV	A,R7
2985  FF          MOV	A,R7
2986  FF          MOV	A,R7
2987  FF          MOV	A,R7
2988  FF          MOV	A,R7
2989  FF          MOV	A,R7
298A  FF          MOV	A,R7
298B  FF          MOV	A,R7
298C  FF          MOV	A,R7
298D  FF          MOV	A,R7
298E  FF          MOV	A,R7
298F  FF          MOV	A,R7
2990  FF          MOV	A,R7
2991  FF          MOV	A,R7
2992  FF          MOV	A,R7
2993  FF          MOV	A,R7
2994  FF          MOV	A,R7
2995  FF          MOV	A,R7
2996  FF          MOV	A,R7
2997  FF          MOV	A,R7
2998  FF          MOV	A,R7
2999  FF          MOV	A,R7
299A  FF          MOV	A,R7
299B  FF          MOV	A,R7
299C  FF          MOV	A,R7
299D  FF          MOV	A,R7
299E  FF          MOV	A,R7
299F  FF          MOV	A,R7
29A0  FF          MOV	A,R7
29A1  FF          MOV	A,R7
29A2  FF          MOV	A,R7
29A3  FF          MOV	A,R7
29A4  FF          MOV	A,R7
29A5  FF          MOV	A,R7
29A6  FF          MOV	A,R7
29A7  FF          MOV	A,R7
29A8  FF          MOV	A,R7
29A9  FF          MOV	A,R7
29AA  FF          MOV	A,R7
29AB  FF          MOV	A,R7
29AC  FF          MOV	A,R7
29AD  FF          MOV	A,R7
29AE  FF          MOV	A,R7
29AF  FF          MOV	A,R7
29B0  FF          MOV	A,R7
29B1  FF          MOV	A,R7
29B2  FF          MOV	A,R7
29B3  FF          MOV	A,R7
29B4  FF          MOV	A,R7
29B5  FF          MOV	A,R7
29B6  FF          MOV	A,R7
29B7  FF          MOV	A,R7
29B8  FF          MOV	A,R7
29B9  FF          MOV	A,R7
29BA  FF          MOV	A,R7
29BB  FF          MOV	A,R7
29BC  FF          MOV	A,R7
29BD  FF          MOV	A,R7
29BE  FF          MOV	A,R7
29BF  FF          MOV	A,R7
29C0  FF          MOV	A,R7
29C1  FF          MOV	A,R7
29C2  FF          MOV	A,R7
29C3  FF          MOV	A,R7
29C4  FF          MOV	A,R7
29C5  FF          MOV	A,R7
29C6  FF          MOV	A,R7
29C7  FF          MOV	A,R7
29C8  FF          MOV	A,R7
29C9  FF          MOV	A,R7
29CA  FF          MOV	A,R7
29CB  FF          MOV	A,R7
29CC  FF          MOV	A,R7
29CD  FF          MOV	A,R7
29CE  FF          MOV	A,R7
29CF  FF          MOV	A,R7
29D0  FF          MOV	A,R7
29D1  FF          MOV	A,R7
29D2  FF          MOV	A,R7
29D3  FF          MOV	A,R7
29D4  FF          MOV	A,R7
29D5  FF          MOV	A,R7
29D6  FF          MOV	A,R7
29D7  FF          MOV	A,R7
29D8  FF          MOV	A,R7
29D9  FF          MOV	A,R7
29DA  FF          MOV	A,R7
29DB  FF          MOV	A,R7
29DC  FF          MOV	A,R7
29DD  FF          MOV	A,R7
29DE  FF          MOV	A,R7
29DF  FF          MOV	A,R7
29E0  FF          MOV	A,R7
29E1  FF          MOV	A,R7
29E2  FF          MOV	A,R7
29E3  FF          MOV	A,R7
29E4  FF          MOV	A,R7
29E5  FF          MOV	A,R7
29E6  FF          MOV	A,R7
29E7  FF          MOV	A,R7
29E8  FF          MOV	A,R7
29E9  FF          MOV	A,R7
29EA  FF          MOV	A,R7
29EB  FF          MOV	A,R7
29EC  FF          MOV	A,R7
29ED  FF          MOV	A,R7
29EE  FF          MOV	A,R7
29EF  FF          MOV	A,R7
29F0  FF          MOV	A,R7
29F1  FF          MOV	A,R7
29F2  FF          MOV	A,R7
29F3  FF          MOV	A,R7
29F4  FF          MOV	A,R7
29F5  FF          MOV	A,R7
29F6  FF          MOV	A,R7
29F7  FF          MOV	A,R7
29F8  FF          MOV	A,R7
29F9  FF          MOV	A,R7
29FA  FF          MOV	A,R7
29FB  FF          MOV	A,R7
29FC  FF          MOV	A,R7
29FD  FF          MOV	A,R7
29FE  FF          MOV	A,R7
29FF  FF          MOV	A,R7
2A00  FF          MOV	A,R7
2A01  FF          MOV	A,R7
2A02  FF          MOV	A,R7
2A03  FF          MOV	A,R7
2A04  FF          MOV	A,R7
2A05  FF          MOV	A,R7
2A06  FF          MOV	A,R7
2A07  FF          MOV	A,R7
2A08  FF          MOV	A,R7
2A09  FF          MOV	A,R7
2A0A  FF          MOV	A,R7
2A0B  FF          MOV	A,R7
2A0C  FF          MOV	A,R7
2A0D  FF          MOV	A,R7
2A0E  FF          MOV	A,R7
2A0F  FF          MOV	A,R7
2A10  FF          MOV	A,R7
2A11  FF          MOV	A,R7
2A12  FF          MOV	A,R7
2A13  FF          MOV	A,R7
2A14  FF          MOV	A,R7
2A15  FF          MOV	A,R7
2A16  FF          MOV	A,R7
2A17  FF          MOV	A,R7
2A18  FF          MOV	A,R7
2A19  FF          MOV	A,R7
2A1A  FF          MOV	A,R7
2A1B  FF          MOV	A,R7
2A1C  FF          MOV	A,R7
2A1D  FF          MOV	A,R7
2A1E  FF          MOV	A,R7
2A1F  FF          MOV	A,R7
2A20  FF          MOV	A,R7
2A21  FF          MOV	A,R7
2A22  FF          MOV	A,R7
2A23  FF          MOV	A,R7
2A24  FF          MOV	A,R7
2A25  FF          MOV	A,R7
2A26  FF          MOV	A,R7
2A27  FF          MOV	A,R7
2A28  FF          MOV	A,R7
2A29  FF          MOV	A,R7
2A2A  FF          MOV	A,R7
2A2B  FF          MOV	A,R7
2A2C  FF          MOV	A,R7
2A2D  FF          MOV	A,R7
2A2E  FF          MOV	A,R7
2A2F  FF          MOV	A,R7
2A30  FF          MOV	A,R7
2A31  FF          MOV	A,R7
2A32  FF          MOV	A,R7
2A33  FF          MOV	A,R7
2A34  FF          MOV	A,R7
2A35  FF          MOV	A,R7
2A36  FF          MOV	A,R7
2A37  FF          MOV	A,R7
2A38  FF          MOV	A,R7
2A39  FF          MOV	A,R7
2A3A  FF          MOV	A,R7
2A3B  FF          MOV	A,R7
2A3C  FF          MOV	A,R7
2A3D  FF          MOV	A,R7
2A3E  FF          MOV	A,R7
2A3F  FF          MOV	A,R7
2A40  FF          MOV	A,R7
2A41  FF          MOV	A,R7
2A42  FF          MOV	A,R7
2A43  FF          MOV	A,R7
2A44  FF          MOV	A,R7
2A45  FF          MOV	A,R7
2A46  FF          MOV	A,R7
2A47  FF          MOV	A,R7
2A48  FF          MOV	A,R7
2A49  FF          MOV	A,R7
2A4A  FF          MOV	A,R7
2A4B  FF          MOV	A,R7
2A4C  FF          MOV	A,R7
2A4D  FF          MOV	A,R7
2A4E  FF          MOV	A,R7
2A4F  FF          MOV	A,R7
2A50  FF          MOV	A,R7
2A51  FF          MOV	A,R7
2A52  FF          MOV	A,R7
2A53  FF          MOV	A,R7
2A54  FF          MOV	A,R7
2A55  FF          MOV	A,R7
2A56  FF          MOV	A,R7
2A57  FF          MOV	A,R7
2A58  FF          MOV	A,R7
2A59  FF          MOV	A,R7
2A5A  FF          MOV	A,R7
2A5B  FF          MOV	A,R7
2A5C  FF          MOV	A,R7
2A5D  FF          MOV	A,R7
2A5E  FF          MOV	A,R7
2A5F  FF          MOV	A,R7
2A60  FF          MOV	A,R7
2A61  FF          MOV	A,R7
2A62  FF          MOV	A,R7
2A63  FF          MOV	A,R7
2A64  FF          MOV	A,R7
2A65  FF          MOV	A,R7
2A66  FF          MOV	A,R7
2A67  FF          MOV	A,R7
2A68  FF          MOV	A,R7
2A69  FF          MOV	A,R7
2A6A  FF          MOV	A,R7
2A6B  FF          MOV	A,R7
2A6C  FF          MOV	A,R7
2A6D  FF          MOV	A,R7
2A6E  FF          MOV	A,R7
2A6F  FF          MOV	A,R7
2A70  FF          MOV	A,R7
2A71  FF          MOV	A,R7
2A72  FF          MOV	A,R7
2A73  FF          MOV	A,R7
2A74  FF          MOV	A,R7
2A75  FF          MOV	A,R7
2A76  FF          MOV	A,R7
2A77  FF          MOV	A,R7
2A78  FF          MOV	A,R7
2A79  FF          MOV	A,R7
2A7A  FF          MOV	A,R7
2A7B  FF          MOV	A,R7
2A7C  FF          MOV	A,R7
2A7D  FF          MOV	A,R7
2A7E  FF          MOV	A,R7
2A7F  FF          MOV	A,R7
2A80  FF          MOV	A,R7
2A81  FF          MOV	A,R7
2A82  FF          MOV	A,R7
2A83  FF          MOV	A,R7
2A84  FF          MOV	A,R7
2A85  FF          MOV	A,R7
2A86  FF          MOV	A,R7
2A87  FF          MOV	A,R7
2A88  FF          MOV	A,R7
2A89  FF          MOV	A,R7
2A8A  FF          MOV	A,R7
2A8B  FF          MOV	A,R7
2A8C  FF          MOV	A,R7
2A8D  FF          MOV	A,R7
2A8E  FF          MOV	A,R7
2A8F  FF          MOV	A,R7
2A90  FF          MOV	A,R7
2A91  FF          MOV	A,R7
2A92  FF          MOV	A,R7
2A93  FF          MOV	A,R7
2A94  FF          MOV	A,R7
2A95  FF          MOV	A,R7
2A96  FF          MOV	A,R7
2A97  FF          MOV	A,R7
2A98  FF          MOV	A,R7
2A99  FF          MOV	A,R7
2A9A  FF          MOV	A,R7
2A9B  FF          MOV	A,R7
2A9C  FF          MOV	A,R7
2A9D  FF          MOV	A,R7
2A9E  FF          MOV	A,R7
2A9F  FF          MOV	A,R7
2AA0  FF          MOV	A,R7
2AA1  FF          MOV	A,R7
2AA2  FF          MOV	A,R7
2AA3  FF          MOV	A,R7
2AA4  FF          MOV	A,R7
2AA5  FF          MOV	A,R7
2AA6  FF          MOV	A,R7
2AA7  FF          MOV	A,R7
2AA8  FF          MOV	A,R7
2AA9  FF          MOV	A,R7
2AAA  FF          MOV	A,R7
2AAB  FF          MOV	A,R7
2AAC  FF          MOV	A,R7
2AAD  FF          MOV	A,R7
2AAE  FF          MOV	A,R7
2AAF  FF          MOV	A,R7
2AB0  FF          MOV	A,R7
2AB1  FF          MOV	A,R7
2AB2  FF          MOV	A,R7
2AB3  FF          MOV	A,R7
2AB4  FF          MOV	A,R7
2AB5  FF          MOV	A,R7
2AB6  FF          MOV	A,R7
2AB7  FF          MOV	A,R7
2AB8  FF          MOV	A,R7
2AB9  FF          MOV	A,R7
2ABA  FF          MOV	A,R7
2ABB  FF          MOV	A,R7
2ABC  FF          MOV	A,R7
2ABD  FF          MOV	A,R7
2ABE  FF          MOV	A,R7
2ABF  FF          MOV	A,R7
2AC0  FF          MOV	A,R7
2AC1  FF          MOV	A,R7
2AC2  FF          MOV	A,R7
2AC3  FF          MOV	A,R7
2AC4  FF          MOV	A,R7
2AC5  FF          MOV	A,R7
2AC6  FF          MOV	A,R7
2AC7  FF          MOV	A,R7
2AC8  FF          MOV	A,R7
2AC9  FF          MOV	A,R7
2ACA  FF          MOV	A,R7
2ACB  FF          MOV	A,R7
2ACC  FF          MOV	A,R7
2ACD  FF          MOV	A,R7
2ACE  FF          MOV	A,R7
2ACF  FF          MOV	A,R7
2AD0  FF          MOV	A,R7
2AD1  FF          MOV	A,R7
2AD2  FF          MOV	A,R7
2AD3  FF          MOV	A,R7
2AD4  FF          MOV	A,R7
2AD5  FF          MOV	A,R7
2AD6  FF          MOV	A,R7
2AD7  FF          MOV	A,R7
2AD8  FF          MOV	A,R7
2AD9  FF          MOV	A,R7
2ADA  FF          MOV	A,R7
2ADB  FF          MOV	A,R7
2ADC  FF          MOV	A,R7
2ADD  FF          MOV	A,R7
2ADE  FF          MOV	A,R7
2ADF  FF          MOV	A,R7
2AE0  FF          MOV	A,R7
2AE1  FF          MOV	A,R7
2AE2  FF          MOV	A,R7
2AE3  FF          MOV	A,R7
2AE4  FF          MOV	A,R7
2AE5  FF          MOV	A,R7
2AE6  FF          MOV	A,R7
2AE7  FF          MOV	A,R7
2AE8  FF          MOV	A,R7
2AE9  FF          MOV	A,R7
2AEA  FF          MOV	A,R7
2AEB  FF          MOV	A,R7
2AEC  FF          MOV	A,R7
2AED  FF          MOV	A,R7
2AEE  FF          MOV	A,R7
2AEF  FF          MOV	A,R7
2AF0  FF          MOV	A,R7
2AF1  FF          MOV	A,R7
2AF2  FF          MOV	A,R7
2AF3  FF          MOV	A,R7
2AF4  FF          MOV	A,R7
2AF5  FF          MOV	A,R7
2AF6  FF          MOV	A,R7
2AF7  FF          MOV	A,R7
2AF8  FF          MOV	A,R7
2AF9  FF          MOV	A,R7
2AFA  FF          MOV	A,R7
2AFB  FF          MOV	A,R7
2AFC  FF          MOV	A,R7
2AFD  FF          MOV	A,R7
2AFE  FF          MOV	A,R7
2AFF  FF          MOV	A,R7
2B00  FF          MOV	A,R7
2B01  FF          MOV	A,R7
2B02  FF          MOV	A,R7
2B03  FF          MOV	A,R7
2B04  FF          MOV	A,R7
2B05  FF          MOV	A,R7
2B06  FF          MOV	A,R7
2B07  FF          MOV	A,R7
2B08  FF          MOV	A,R7
2B09  FF          MOV	A,R7
2B0A  FF          MOV	A,R7
2B0B  FF          MOV	A,R7
2B0C  FF          MOV	A,R7
2B0D  FF          MOV	A,R7
2B0E  FF          MOV	A,R7
2B0F  FF          MOV	A,R7
2B10  FF          MOV	A,R7
2B11  FF          MOV	A,R7
2B12  FF          MOV	A,R7
2B13  FF          MOV	A,R7
2B14  FF          MOV	A,R7
2B15  FF          MOV	A,R7
2B16  FF          MOV	A,R7
2B17  FF          MOV	A,R7
2B18  FF          MOV	A,R7
2B19  FF          MOV	A,R7
2B1A  FF          MOV	A,R7
2B1B  FF          MOV	A,R7
2B1C  FF          MOV	A,R7
2B1D  FF          MOV	A,R7
2B1E  FF          MOV	A,R7
2B1F  FF          MOV	A,R7
2B20  FF          MOV	A,R7
2B21  FF          MOV	A,R7
2B22  FF          MOV	A,R7
2B23  FF          MOV	A,R7
2B24  FF          MOV	A,R7
2B25  FF          MOV	A,R7
2B26  FF          MOV	A,R7
2B27  FF          MOV	A,R7
2B28  FF          MOV	A,R7
2B29  FF          MOV	A,R7
2B2A  FF          MOV	A,R7
2B2B  FF          MOV	A,R7
2B2C  FF          MOV	A,R7
2B2D  FF          MOV	A,R7
2B2E  FF          MOV	A,R7
2B2F  FF          MOV	A,R7
2B30  FF          MOV	A,R7
2B31  FF          MOV	A,R7
2B32  FF          MOV	A,R7
2B33  FF          MOV	A,R7
2B34  FF          MOV	A,R7
2B35  FF          MOV	A,R7
2B36  FF          MOV	A,R7
2B37  FF          MOV	A,R7
2B38  FF          MOV	A,R7
2B39  FF          MOV	A,R7
2B3A  FF          MOV	A,R7
2B3B  FF          MOV	A,R7
2B3C  FF          MOV	A,R7
2B3D  FF          MOV	A,R7
2B3E  FF          MOV	A,R7
2B3F  FF          MOV	A,R7
2B40  FF          MOV	A,R7
2B41  FF          MOV	A,R7
2B42  FF          MOV	A,R7
2B43  FF          MOV	A,R7
2B44  FF          MOV	A,R7
2B45  FF          MOV	A,R7
2B46  FF          MOV	A,R7
2B47  FF          MOV	A,R7
2B48  FF          MOV	A,R7
2B49  FF          MOV	A,R7
2B4A  FF          MOV	A,R7
2B4B  FF          MOV	A,R7
2B4C  FF          MOV	A,R7
2B4D  FF          MOV	A,R7
2B4E  FF          MOV	A,R7
2B4F  FF          MOV	A,R7
2B50  FF          MOV	A,R7
2B51  FF          MOV	A,R7
2B52  FF          MOV	A,R7
2B53  FF          MOV	A,R7
2B54  FF          MOV	A,R7
2B55  FF          MOV	A,R7
2B56  FF          MOV	A,R7
2B57  FF          MOV	A,R7
2B58  FF          MOV	A,R7
2B59  FF          MOV	A,R7
2B5A  FF          MOV	A,R7
2B5B  FF          MOV	A,R7
2B5C  FF          MOV	A,R7
2B5D  FF          MOV	A,R7
2B5E  FF          MOV	A,R7
2B5F  FF          MOV	A,R7
2B60  FF          MOV	A,R7
2B61  FF          MOV	A,R7
2B62  FF          MOV	A,R7
2B63  FF          MOV	A,R7
2B64  FF          MOV	A,R7
2B65  FF          MOV	A,R7
2B66  FF          MOV	A,R7
2B67  FF          MOV	A,R7
2B68  FF          MOV	A,R7
2B69  FF          MOV	A,R7
2B6A  FF          MOV	A,R7
2B6B  FF          MOV	A,R7
2B6C  FF          MOV	A,R7
2B6D  FF          MOV	A,R7
2B6E  FF          MOV	A,R7
2B6F  FF          MOV	A,R7
2B70  FF          MOV	A,R7
2B71  FF          MOV	A,R7
2B72  FF          MOV	A,R7
2B73  FF          MOV	A,R7
2B74  FF          MOV	A,R7
2B75  FF          MOV	A,R7
2B76  FF          MOV	A,R7
2B77  FF          MOV	A,R7
2B78  FF          MOV	A,R7
2B79  FF          MOV	A,R7
2B7A  FF          MOV	A,R7
2B7B  FF          MOV	A,R7
2B7C  FF          MOV	A,R7
2B7D  FF          MOV	A,R7
2B7E  FF          MOV	A,R7
2B7F  FF          MOV	A,R7
2B80  FF          MOV	A,R7
2B81  FF          MOV	A,R7
2B82  FF          MOV	A,R7
2B83  FF          MOV	A,R7
2B84  FF          MOV	A,R7
2B85  FF          MOV	A,R7
2B86  FF          MOV	A,R7
2B87  FF          MOV	A,R7
2B88  FF          MOV	A,R7
2B89  FF          MOV	A,R7
2B8A  FF          MOV	A,R7
2B8B  FF          MOV	A,R7
2B8C  FF          MOV	A,R7
2B8D  FF          MOV	A,R7
2B8E  FF          MOV	A,R7
2B8F  FF          MOV	A,R7
2B90  FF          MOV	A,R7
2B91  FF          MOV	A,R7
2B92  FF          MOV	A,R7
2B93  FF          MOV	A,R7
2B94  FF          MOV	A,R7
2B95  FF          MOV	A,R7
2B96  FF          MOV	A,R7
2B97  FF          MOV	A,R7
2B98  FF          MOV	A,R7
2B99  FF          MOV	A,R7
2B9A  FF          MOV	A,R7
2B9B  FF          MOV	A,R7
2B9C  FF          MOV	A,R7
2B9D  FF          MOV	A,R7
2B9E  FF          MOV	A,R7
2B9F  FF          MOV	A,R7
2BA0  FF          MOV	A,R7
2BA1  FF          MOV	A,R7
2BA2  FF          MOV	A,R7
2BA3  FF          MOV	A,R7
2BA4  FF          MOV	A,R7
2BA5  FF          MOV	A,R7
2BA6  FF          MOV	A,R7
2BA7  FF          MOV	A,R7
2BA8  FF          MOV	A,R7
2BA9  FF          MOV	A,R7
2BAA  FF          MOV	A,R7
2BAB  FF          MOV	A,R7
2BAC  FF          MOV	A,R7
2BAD  FF          MOV	A,R7
2BAE  FF          MOV	A,R7
2BAF  FF          MOV	A,R7
2BB0  FF          MOV	A,R7
2BB1  FF          MOV	A,R7
2BB2  FF          MOV	A,R7
2BB3  FF          MOV	A,R7
2BB4  FF          MOV	A,R7
2BB5  FF          MOV	A,R7
2BB6  FF          MOV	A,R7
2BB7  FF          MOV	A,R7
2BB8  FF          MOV	A,R7
2BB9  FF          MOV	A,R7
2BBA  FF          MOV	A,R7
2BBB  FF          MOV	A,R7
2BBC  FF          MOV	A,R7
2BBD  FF          MOV	A,R7
2BBE  FF          MOV	A,R7
2BBF  FF          MOV	A,R7
2BC0  FF          MOV	A,R7
2BC1  FF          MOV	A,R7
2BC2  FF          MOV	A,R7
2BC3  FF          MOV	A,R7
2BC4  FF          MOV	A,R7
2BC5  FF          MOV	A,R7
2BC6  FF          MOV	A,R7
2BC7  FF          MOV	A,R7
2BC8  FF          MOV	A,R7
2BC9  FF          MOV	A,R7
2BCA  FF          MOV	A,R7
2BCB  FF          MOV	A,R7
2BCC  FF          MOV	A,R7
2BCD  FF          MOV	A,R7
2BCE  FF          MOV	A,R7
2BCF  FF          MOV	A,R7
2BD0  FF          MOV	A,R7
2BD1  FF          MOV	A,R7
2BD2  FF          MOV	A,R7
2BD3  FF          MOV	A,R7
2BD4  FF          MOV	A,R7
2BD5  FF          MOV	A,R7
2BD6  FF          MOV	A,R7
2BD7  FF          MOV	A,R7
2BD8  FF          MOV	A,R7
2BD9  FF          MOV	A,R7
2BDA  FF          MOV	A,R7
2BDB  FF          MOV	A,R7
2BDC  FF          MOV	A,R7
2BDD  FF          MOV	A,R7
2BDE  FF          MOV	A,R7
2BDF  FF          MOV	A,R7
2BE0  FF          MOV	A,R7
2BE1  FF          MOV	A,R7
2BE2  FF          MOV	A,R7
2BE3  FF          MOV	A,R7
2BE4  FF          MOV	A,R7
2BE5  FF          MOV	A,R7
2BE6  FF          MOV	A,R7
2BE7  FF          MOV	A,R7
2BE8  FF          MOV	A,R7
2BE9  FF          MOV	A,R7
2BEA  FF          MOV	A,R7
2BEB  FF          MOV	A,R7
2BEC  FF          MOV	A,R7
2BED  FF          MOV	A,R7
2BEE  FF          MOV	A,R7
2BEF  FF          MOV	A,R7
2BF0  FF          MOV	A,R7
2BF1  FF          MOV	A,R7
2BF2  FF          MOV	A,R7
2BF3  FF          MOV	A,R7
2BF4  FF          MOV	A,R7
2BF5  FF          MOV	A,R7
2BF6  FF          MOV	A,R7
2BF7  FF          MOV	A,R7
2BF8  FF          MOV	A,R7
2BF9  FF          MOV	A,R7
2BFA  FF          MOV	A,R7
2BFB  FF          MOV	A,R7
2BFC  FF          MOV	A,R7
2BFD  FF          MOV	A,R7
2BFE  FF          MOV	A,R7
2BFF  FF          MOV	A,R7
2C00  FF          MOV	A,R7
2C01  FF          MOV	A,R7
2C02  FF          MOV	A,R7
2C03  FF          MOV	A,R7
2C04  FF          MOV	A,R7
2C05  FF          MOV	A,R7
2C06  FF          MOV	A,R7
2C07  FF          MOV	A,R7
2C08  FF          MOV	A,R7
2C09  FF          MOV	A,R7
2C0A  FF          MOV	A,R7
2C0B  FF          MOV	A,R7
2C0C  FF          MOV	A,R7
2C0D  FF          MOV	A,R7
2C0E  FF          MOV	A,R7
2C0F  FF          MOV	A,R7
2C10  FF          MOV	A,R7
2C11  FF          MOV	A,R7
2C12  FF          MOV	A,R7
2C13  FF          MOV	A,R7
2C14  FF          MOV	A,R7
2C15  FF          MOV	A,R7
2C16  FF          MOV	A,R7
2C17  FF          MOV	A,R7
2C18  FF          MOV	A,R7
2C19  FF          MOV	A,R7
2C1A  FF          MOV	A,R7
2C1B  FF          MOV	A,R7
2C1C  FF          MOV	A,R7
2C1D  FF          MOV	A,R7
2C1E  FF          MOV	A,R7
2C1F  FF          MOV	A,R7
2C20  FF          MOV	A,R7
2C21  FF          MOV	A,R7
2C22  FF          MOV	A,R7
2C23  FF          MOV	A,R7
2C24  FF          MOV	A,R7
2C25  FF          MOV	A,R7
2C26  FF          MOV	A,R7
2C27  FF          MOV	A,R7
2C28  FF          MOV	A,R7
2C29  FF          MOV	A,R7
2C2A  FF          MOV	A,R7
2C2B  FF          MOV	A,R7
2C2C  FF          MOV	A,R7
2C2D  FF          MOV	A,R7
2C2E  FF          MOV	A,R7
2C2F  FF          MOV	A,R7
2C30  FF          MOV	A,R7
2C31  FF          MOV	A,R7
2C32  FF          MOV	A,R7
2C33  FF          MOV	A,R7
2C34  FF          MOV	A,R7
2C35  FF          MOV	A,R7
2C36  FF          MOV	A,R7
2C37  FF          MOV	A,R7
2C38  FF          MOV	A,R7
2C39  FF          MOV	A,R7
2C3A  FF          MOV	A,R7
2C3B  FF          MOV	A,R7
2C3C  FF          MOV	A,R7
2C3D  FF          MOV	A,R7
2C3E  FF          MOV	A,R7
2C3F  FF          MOV	A,R7
2C40  FF          MOV	A,R7
2C41  FF          MOV	A,R7
2C42  FF          MOV	A,R7
2C43  FF          MOV	A,R7
2C44  FF          MOV	A,R7
2C45  FF          MOV	A,R7
2C46  FF          MOV	A,R7
2C47  FF          MOV	A,R7
2C48  FF          MOV	A,R7
2C49  FF          MOV	A,R7
2C4A  FF          MOV	A,R7
2C4B  FF          MOV	A,R7
2C4C  FF          MOV	A,R7
2C4D  FF          MOV	A,R7
2C4E  FF          MOV	A,R7
2C4F  FF          MOV	A,R7
2C50  FF          MOV	A,R7
2C51  FF          MOV	A,R7
2C52  FF          MOV	A,R7
2C53  FF          MOV	A,R7
2C54  FF          MOV	A,R7
2C55  FF          MOV	A,R7
2C56  FF          MOV	A,R7
2C57  FF          MOV	A,R7
2C58  FF          MOV	A,R7
2C59  FF          MOV	A,R7
2C5A  FF          MOV	A,R7
2C5B  FF          MOV	A,R7
2C5C  FF          MOV	A,R7
2C5D  FF          MOV	A,R7
2C5E  FF          MOV	A,R7
2C5F  FF          MOV	A,R7
2C60  FF          MOV	A,R7
2C61  FF          MOV	A,R7
2C62  FF          MOV	A,R7
2C63  FF          MOV	A,R7
2C64  FF          MOV	A,R7
2C65  FF          MOV	A,R7
2C66  FF          MOV	A,R7
2C67  FF          MOV	A,R7
2C68  FF          MOV	A,R7
2C69  FF          MOV	A,R7
2C6A  FF          MOV	A,R7
2C6B  FF          MOV	A,R7
2C6C  FF          MOV	A,R7
2C6D  FF          MOV	A,R7
2C6E  FF          MOV	A,R7
2C6F  FF          MOV	A,R7
2C70  FF          MOV	A,R7
2C71  FF          MOV	A,R7
2C72  FF          MOV	A,R7
2C73  FF          MOV	A,R7
2C74  FF          MOV	A,R7
2C75  FF          MOV	A,R7
2C76  FF          MOV	A,R7
2C77  FF          MOV	A,R7
2C78  FF          MOV	A,R7
2C79  FF          MOV	A,R7
2C7A  FF          MOV	A,R7
2C7B  FF          MOV	A,R7
2C7C  FF          MOV	A,R7
2C7D  FF          MOV	A,R7
2C7E  FF          MOV	A,R7
2C7F  FF          MOV	A,R7
2C80  FF          MOV	A,R7
2C81  FF          MOV	A,R7
2C82  FF          MOV	A,R7
2C83  FF          MOV	A,R7
2C84  FF          MOV	A,R7
2C85  FF          MOV	A,R7
2C86  FF          MOV	A,R7
2C87  FF          MOV	A,R7
2C88  FF          MOV	A,R7
2C89  FF          MOV	A,R7
2C8A  FF          MOV	A,R7
2C8B  FF          MOV	A,R7
2C8C  FF          MOV	A,R7
2C8D  FF          MOV	A,R7
2C8E  FF          MOV	A,R7
2C8F  FF          MOV	A,R7
2C90  FF          MOV	A,R7
2C91  FF          MOV	A,R7
2C92  FF          MOV	A,R7
2C93  FF          MOV	A,R7
2C94  FF          MOV	A,R7
2C95  FF          MOV	A,R7
2C96  FF          MOV	A,R7
2C97  FF          MOV	A,R7
2C98  FF          MOV	A,R7
2C99  FF          MOV	A,R7
2C9A  FF          MOV	A,R7
2C9B  FF          MOV	A,R7
2C9C  FF          MOV	A,R7
2C9D  FF          MOV	A,R7
2C9E  FF          MOV	A,R7
2C9F  FF          MOV	A,R7
2CA0  FF          MOV	A,R7
2CA1  FF          MOV	A,R7
2CA2  FF          MOV	A,R7
2CA3  FF          MOV	A,R7
2CA4  FF          MOV	A,R7
2CA5  FF          MOV	A,R7
2CA6  FF          MOV	A,R7
2CA7  FF          MOV	A,R7
2CA8  FF          MOV	A,R7
2CA9  FF          MOV	A,R7
2CAA  FF          MOV	A,R7
2CAB  FF          MOV	A,R7
2CAC  FF          MOV	A,R7
2CAD  FF          MOV	A,R7
2CAE  FF          MOV	A,R7
2CAF  FF          MOV	A,R7
2CB0  FF          MOV	A,R7
2CB1  FF          MOV	A,R7
2CB2  FF          MOV	A,R7
2CB3  FF          MOV	A,R7
2CB4  FF          MOV	A,R7
2CB5  FF          MOV	A,R7
2CB6  FF          MOV	A,R7
2CB7  FF          MOV	A,R7
2CB8  FF          MOV	A,R7
2CB9  FF          MOV	A,R7
2CBA  FF          MOV	A,R7
2CBB  FF          MOV	A,R7
2CBC  FF          MOV	A,R7
2CBD  FF          MOV	A,R7
2CBE  FF          MOV	A,R7
2CBF  FF          MOV	A,R7
2CC0  FF          MOV	A,R7
2CC1  FF          MOV	A,R7
2CC2  FF          MOV	A,R7
2CC3  FF          MOV	A,R7
2CC4  FF          MOV	A,R7
2CC5  FF          MOV	A,R7
2CC6  FF          MOV	A,R7
2CC7  FF          MOV	A,R7
2CC8  FF          MOV	A,R7
2CC9  FF          MOV	A,R7
2CCA  FF          MOV	A,R7
2CCB  FF          MOV	A,R7
2CCC  FF          MOV	A,R7
2CCD  FF          MOV	A,R7
2CCE  FF          MOV	A,R7
2CCF  FF          MOV	A,R7
2CD0  FF          MOV	A,R7
2CD1  FF          MOV	A,R7
2CD2  FF          MOV	A,R7
2CD3  FF          MOV	A,R7
2CD4  FF          MOV	A,R7
2CD5  FF          MOV	A,R7
2CD6  FF          MOV	A,R7
2CD7  FF          MOV	A,R7
2CD8  FF          MOV	A,R7
2CD9  FF          MOV	A,R7
2CDA  FF          MOV	A,R7
2CDB  FF          MOV	A,R7
2CDC  FF          MOV	A,R7
2CDD  FF          MOV	A,R7
2CDE  FF          MOV	A,R7
2CDF  FF          MOV	A,R7
2CE0  FF          MOV	A,R7
2CE1  FF          MOV	A,R7
2CE2  FF          MOV	A,R7
2CE3  FF          MOV	A,R7
2CE4  FF          MOV	A,R7
2CE5  FF          MOV	A,R7
2CE6  FF          MOV	A,R7
2CE7  FF          MOV	A,R7
2CE8  FF          MOV	A,R7
2CE9  FF          MOV	A,R7
2CEA  FF          MOV	A,R7
2CEB  FF          MOV	A,R7
2CEC  FF          MOV	A,R7
2CED  FF          MOV	A,R7
2CEE  FF          MOV	A,R7
2CEF  FF          MOV	A,R7
2CF0  FF          MOV	A,R7
2CF1  FF          MOV	A,R7
2CF2  FF          MOV	A,R7
2CF3  FF          MOV	A,R7
2CF4  FF          MOV	A,R7
2CF5  FF          MOV	A,R7
2CF6  FF          MOV	A,R7
2CF7  FF          MOV	A,R7
2CF8  FF          MOV	A,R7
2CF9  FF          MOV	A,R7
2CFA  FF          MOV	A,R7
2CFB  FF          MOV	A,R7
2CFC  FF          MOV	A,R7
2CFD  FF          MOV	A,R7
2CFE  FF          MOV	A,R7
2CFF  FF          MOV	A,R7
2D00  FF          MOV	A,R7
2D01  FF          MOV	A,R7
2D02  FF          MOV	A,R7
2D03  FF          MOV	A,R7
2D04  FF          MOV	A,R7
2D05  FF          MOV	A,R7
2D06  FF          MOV	A,R7
2D07  FF          MOV	A,R7
2D08  FF          MOV	A,R7
2D09  FF          MOV	A,R7
2D0A  FF          MOV	A,R7
2D0B  FF          MOV	A,R7
2D0C  FF          MOV	A,R7
2D0D  FF          MOV	A,R7
2D0E  FF          MOV	A,R7
2D0F  FF          MOV	A,R7
2D10  FF          MOV	A,R7
2D11  FF          MOV	A,R7
2D12  FF          MOV	A,R7
2D13  FF          MOV	A,R7
2D14  FF          MOV	A,R7
2D15  FF          MOV	A,R7
2D16  FF          MOV	A,R7
2D17  FF          MOV	A,R7
2D18  FF          MOV	A,R7
2D19  FF          MOV	A,R7
2D1A  FF          MOV	A,R7
2D1B  FF          MOV	A,R7
2D1C  FF          MOV	A,R7
2D1D  FF          MOV	A,R7
2D1E  FF          MOV	A,R7
2D1F  FF          MOV	A,R7
2D20  FF          MOV	A,R7
2D21  FF          MOV	A,R7
2D22  FF          MOV	A,R7
2D23  FF          MOV	A,R7
2D24  FF          MOV	A,R7
2D25  FF          MOV	A,R7
2D26  FF          MOV	A,R7
2D27  FF          MOV	A,R7
2D28  FF          MOV	A,R7
2D29  FF          MOV	A,R7
2D2A  FF          MOV	A,R7
2D2B  FF          MOV	A,R7
2D2C  FF          MOV	A,R7
2D2D  FF          MOV	A,R7
2D2E  FF          MOV	A,R7
2D2F  FF          MOV	A,R7
2D30  FF          MOV	A,R7
2D31  FF          MOV	A,R7
2D32  FF          MOV	A,R7
2D33  FF          MOV	A,R7
2D34  FF          MOV	A,R7
2D35  FF          MOV	A,R7
2D36  FF          MOV	A,R7
2D37  FF          MOV	A,R7
2D38  FF          MOV	A,R7
2D39  FF          MOV	A,R7
2D3A  FF          MOV	A,R7
2D3B  FF          MOV	A,R7
2D3C  FF          MOV	A,R7
2D3D  FF          MOV	A,R7
2D3E  FF          MOV	A,R7
2D3F  FF          MOV	A,R7
2D40  FF          MOV	A,R7
2D41  FF          MOV	A,R7
2D42  FF          MOV	A,R7
2D43  FF          MOV	A,R7
2D44  FF          MOV	A,R7
2D45  FF          MOV	A,R7
2D46  FF          MOV	A,R7
2D47  FF          MOV	A,R7
2D48  FF          MOV	A,R7
2D49  FF          MOV	A,R7
2D4A  FF          MOV	A,R7
2D4B  FF          MOV	A,R7
2D4C  FF          MOV	A,R7
2D4D  FF          MOV	A,R7
2D4E  FF          MOV	A,R7
2D4F  FF          MOV	A,R7
2D50  FF          MOV	A,R7
2D51  FF          MOV	A,R7
2D52  FF          MOV	A,R7
2D53  FF          MOV	A,R7
2D54  FF          MOV	A,R7
2D55  FF          MOV	A,R7
2D56  FF          MOV	A,R7
2D57  FF          MOV	A,R7
2D58  FF          MOV	A,R7
2D59  FF          MOV	A,R7
2D5A  FF          MOV	A,R7
2D5B  FF          MOV	A,R7
2D5C  FF          MOV	A,R7
2D5D  FF          MOV	A,R7
2D5E  FF          MOV	A,R7
2D5F  FF          MOV	A,R7
2D60  FF          MOV	A,R7
2D61  FF          MOV	A,R7
2D62  FF          MOV	A,R7
2D63  FF          MOV	A,R7
2D64  FF          MOV	A,R7
2D65  FF          MOV	A,R7
2D66  FF          MOV	A,R7
2D67  FF          MOV	A,R7
2D68  FF          MOV	A,R7
2D69  FF          MOV	A,R7
2D6A  FF          MOV	A,R7
2D6B  FF          MOV	A,R7
2D6C  FF          MOV	A,R7
2D6D  FF          MOV	A,R7
2D6E  FF          MOV	A,R7
2D6F  FF          MOV	A,R7
2D70  FF          MOV	A,R7
2D71  FF          MOV	A,R7
2D72  FF          MOV	A,R7
2D73  FF          MOV	A,R7
2D74  FF          MOV	A,R7
2D75  FF          MOV	A,R7
2D76  FF          MOV	A,R7
2D77  FF          MOV	A,R7
2D78  FF          MOV	A,R7
2D79  FF          MOV	A,R7
2D7A  FF          MOV	A,R7
2D7B  FF          MOV	A,R7
2D7C  FF          MOV	A,R7
2D7D  FF          MOV	A,R7
2D7E  FF          MOV	A,R7
2D7F  FF          MOV	A,R7
2D80  FF          MOV	A,R7
2D81  FF          MOV	A,R7
2D82  FF          MOV	A,R7
2D83  FF          MOV	A,R7
2D84  FF          MOV	A,R7
2D85  FF          MOV	A,R7
2D86  FF          MOV	A,R7
2D87  FF          MOV	A,R7
2D88  FF          MOV	A,R7
2D89  FF          MOV	A,R7
2D8A  FF          MOV	A,R7
2D8B  FF          MOV	A,R7
2D8C  FF          MOV	A,R7
2D8D  FF          MOV	A,R7
2D8E  FF          MOV	A,R7
2D8F  FF          MOV	A,R7
2D90  FF          MOV	A,R7
2D91  FF          MOV	A,R7
2D92  FF          MOV	A,R7
2D93  FF          MOV	A,R7
2D94  FF          MOV	A,R7
2D95  FF          MOV	A,R7
2D96  FF          MOV	A,R7
2D97  FF          MOV	A,R7
2D98  FF          MOV	A,R7
2D99  FF          MOV	A,R7
2D9A  FF          MOV	A,R7
2D9B  FF          MOV	A,R7
2D9C  FF          MOV	A,R7
2D9D  FF          MOV	A,R7
2D9E  FF          MOV	A,R7
2D9F  FF          MOV	A,R7
2DA0  FF          MOV	A,R7
2DA1  FF          MOV	A,R7
2DA2  FF          MOV	A,R7
2DA3  FF          MOV	A,R7
2DA4  FF          MOV	A,R7
2DA5  FF          MOV	A,R7
2DA6  FF          MOV	A,R7
2DA7  FF          MOV	A,R7
2DA8  FF          MOV	A,R7
2DA9  FF          MOV	A,R7
2DAA  FF          MOV	A,R7
2DAB  FF          MOV	A,R7
2DAC  FF          MOV	A,R7
2DAD  FF          MOV	A,R7
2DAE  FF          MOV	A,R7
2DAF  FF          MOV	A,R7
2DB0  FF          MOV	A,R7
2DB1  FF          MOV	A,R7
2DB2  FF          MOV	A,R7
2DB3  FF          MOV	A,R7
2DB4  FF          MOV	A,R7
2DB5  FF          MOV	A,R7
2DB6  FF          MOV	A,R7
2DB7  FF          MOV	A,R7
2DB8  FF          MOV	A,R7
2DB9  FF          MOV	A,R7
2DBA  FF          MOV	A,R7
2DBB  FF          MOV	A,R7
2DBC  FF          MOV	A,R7
2DBD  FF          MOV	A,R7
2DBE  FF          MOV	A,R7
2DBF  FF          MOV	A,R7
2DC0  FF          MOV	A,R7
2DC1  FF          MOV	A,R7
2DC2  FF          MOV	A,R7
2DC3  FF          MOV	A,R7
2DC4  FF          MOV	A,R7
2DC5  FF          MOV	A,R7
2DC6  FF          MOV	A,R7
2DC7  FF          MOV	A,R7
2DC8  FF          MOV	A,R7
2DC9  FF          MOV	A,R7
2DCA  FF          MOV	A,R7
2DCB  FF          MOV	A,R7
2DCC  FF          MOV	A,R7
2DCD  FF          MOV	A,R7
2DCE  FF          MOV	A,R7
2DCF  FF          MOV	A,R7
2DD0  FF          MOV	A,R7
2DD1  FF          MOV	A,R7
2DD2  FF          MOV	A,R7
2DD3  FF          MOV	A,R7
2DD4  FF          MOV	A,R7
2DD5  FF          MOV	A,R7
2DD6  FF          MOV	A,R7
2DD7  FF          MOV	A,R7
2DD8  FF          MOV	A,R7
2DD9  FF          MOV	A,R7
2DDA  FF          MOV	A,R7
2DDB  FF          MOV	A,R7
2DDC  FF          MOV	A,R7
2DDD  FF          MOV	A,R7
2DDE  FF          MOV	A,R7
2DDF  FF          MOV	A,R7
2DE0  FF          MOV	A,R7
2DE1  FF          MOV	A,R7
2DE2  FF          MOV	A,R7
2DE3  FF          MOV	A,R7
2DE4  FF          MOV	A,R7
2DE5  FF          MOV	A,R7
2DE6  FF          MOV	A,R7
2DE7  FF          MOV	A,R7
2DE8  FF          MOV	A,R7
2DE9  FF          MOV	A,R7
2DEA  FF          MOV	A,R7
2DEB  FF          MOV	A,R7
2DEC  FF          MOV	A,R7
2DED  FF          MOV	A,R7
2DEE  FF          MOV	A,R7
2DEF  FF          MOV	A,R7
2DF0  FF          MOV	A,R7
2DF1  FF          MOV	A,R7
2DF2  FF          MOV	A,R7
2DF3  FF          MOV	A,R7
2DF4  FF          MOV	A,R7
2DF5  FF          MOV	A,R7
2DF6  FF          MOV	A,R7
2DF7  FF          MOV	A,R7
2DF8  FF          MOV	A,R7
2DF9  FF          MOV	A,R7
2DFA  FF          MOV	A,R7
2DFB  FF          MOV	A,R7
2DFC  FF          MOV	A,R7
2DFD  FF          MOV	A,R7
2DFE  FF          MOV	A,R7
2DFF  FF          MOV	A,R7
2E00  FF          MOV	A,R7
2E01  FF          MOV	A,R7
2E02  FF          MOV	A,R7
2E03  FF          MOV	A,R7
2E04  FF          MOV	A,R7
2E05  FF          MOV	A,R7
2E06  FF          MOV	A,R7
2E07  FF          MOV	A,R7
2E08  FF          MOV	A,R7
2E09  FF          MOV	A,R7
2E0A  FF          MOV	A,R7
2E0B  FF          MOV	A,R7
2E0C  FF          MOV	A,R7
2E0D  FF          MOV	A,R7
2E0E  FF          MOV	A,R7
2E0F  FF          MOV	A,R7
2E10  FF          MOV	A,R7
2E11  FF          MOV	A,R7
2E12  FF          MOV	A,R7
2E13  FF          MOV	A,R7
2E14  FF          MOV	A,R7
2E15  FF          MOV	A,R7
2E16  FF          MOV	A,R7
2E17  FF          MOV	A,R7
2E18  FF          MOV	A,R7
2E19  FF          MOV	A,R7
2E1A  FF          MOV	A,R7
2E1B  FF          MOV	A,R7
2E1C  FF          MOV	A,R7
2E1D  FF          MOV	A,R7
2E1E  FF          MOV	A,R7
2E1F  FF          MOV	A,R7
2E20  FF          MOV	A,R7
2E21  FF          MOV	A,R7
2E22  FF          MOV	A,R7
2E23  FF          MOV	A,R7
2E24  FF          MOV	A,R7
2E25  FF          MOV	A,R7
2E26  FF          MOV	A,R7
2E27  FF          MOV	A,R7
2E28  FF          MOV	A,R7
2E29  FF          MOV	A,R7
2E2A  FF          MOV	A,R7
2E2B  FF          MOV	A,R7
2E2C  FF          MOV	A,R7
2E2D  FF          MOV	A,R7
2E2E  FF          MOV	A,R7
2E2F  FF          MOV	A,R7
2E30  FF          MOV	A,R7
2E31  FF          MOV	A,R7
2E32  FF          MOV	A,R7
2E33  FF          MOV	A,R7
2E34  FF          MOV	A,R7
2E35  FF          MOV	A,R7
2E36  FF          MOV	A,R7
2E37  FF          MOV	A,R7
2E38  FF          MOV	A,R7
2E39  FF          MOV	A,R7
2E3A  FF          MOV	A,R7
2E3B  FF          MOV	A,R7
2E3C  FF          MOV	A,R7
2E3D  FF          MOV	A,R7
2E3E  FF          MOV	A,R7
2E3F  FF          MOV	A,R7
2E40  FF          MOV	A,R7
2E41  FF          MOV	A,R7
2E42  FF          MOV	A,R7
2E43  FF          MOV	A,R7
2E44  FF          MOV	A,R7
2E45  FF          MOV	A,R7
2E46  FF          MOV	A,R7
2E47  FF          MOV	A,R7
2E48  FF          MOV	A,R7
2E49  FF          MOV	A,R7
2E4A  FF          MOV	A,R7
2E4B  FF          MOV	A,R7
2E4C  FF          MOV	A,R7
2E4D  FF          MOV	A,R7
2E4E  FF          MOV	A,R7
2E4F  FF          MOV	A,R7
2E50  FF          MOV	A,R7
2E51  FF          MOV	A,R7
2E52  FF          MOV	A,R7
2E53  FF          MOV	A,R7
2E54  FF          MOV	A,R7
2E55  FF          MOV	A,R7
2E56  FF          MOV	A,R7
2E57  FF          MOV	A,R7
2E58  FF          MOV	A,R7
2E59  FF          MOV	A,R7
2E5A  FF          MOV	A,R7
2E5B  FF          MOV	A,R7
2E5C  FF          MOV	A,R7
2E5D  FF          MOV	A,R7
2E5E  FF          MOV	A,R7
2E5F  FF          MOV	A,R7
2E60  FF          MOV	A,R7
2E61  FF          MOV	A,R7
2E62  FF          MOV	A,R7
2E63  FF          MOV	A,R7
2E64  FF          MOV	A,R7
2E65  FF          MOV	A,R7
2E66  FF          MOV	A,R7
2E67  FF          MOV	A,R7
2E68  FF          MOV	A,R7
2E69  FF          MOV	A,R7
2E6A  FF          MOV	A,R7
2E6B  FF          MOV	A,R7
2E6C  FF          MOV	A,R7
2E6D  FF          MOV	A,R7
2E6E  FF          MOV	A,R7
2E6F  FF          MOV	A,R7
2E70  FF          MOV	A,R7
2E71  FF          MOV	A,R7
2E72  FF          MOV	A,R7
2E73  FF          MOV	A,R7
2E74  FF          MOV	A,R7
2E75  FF          MOV	A,R7
2E76  FF          MOV	A,R7
2E77  FF          MOV	A,R7
2E78  FF          MOV	A,R7
2E79  FF          MOV	A,R7
2E7A  FF          MOV	A,R7
2E7B  FF          MOV	A,R7
2E7C  FF          MOV	A,R7
2E7D  FF          MOV	A,R7
2E7E  FF          MOV	A,R7
2E7F  FF          MOV	A,R7
2E80  FF          MOV	A,R7
2E81  FF          MOV	A,R7
2E82  FF          MOV	A,R7
2E83  FF          MOV	A,R7
2E84  FF          MOV	A,R7
2E85  FF          MOV	A,R7
2E86  FF          MOV	A,R7
2E87  FF          MOV	A,R7
2E88  FF          MOV	A,R7
2E89  FF          MOV	A,R7
2E8A  FF          MOV	A,R7
2E8B  FF          MOV	A,R7
2E8C  FF          MOV	A,R7
2E8D  FF          MOV	A,R7
2E8E  FF          MOV	A,R7
2E8F  FF          MOV	A,R7
2E90  FF          MOV	A,R7
2E91  FF          MOV	A,R7
2E92  FF          MOV	A,R7
2E93  FF          MOV	A,R7
2E94  FF          MOV	A,R7
2E95  FF          MOV	A,R7
2E96  FF          MOV	A,R7
2E97  FF          MOV	A,R7
2E98  FF          MOV	A,R7
2E99  FF          MOV	A,R7
2E9A  FF          MOV	A,R7
2E9B  FF          MOV	A,R7
2E9C  FF          MOV	A,R7
2E9D  FF          MOV	A,R7
2E9E  FF          MOV	A,R7
2E9F  FF          MOV	A,R7
2EA0  FF          MOV	A,R7
2EA1  FF          MOV	A,R7
2EA2  FF          MOV	A,R7
2EA3  FF          MOV	A,R7
2EA4  FF          MOV	A,R7
2EA5  FF          MOV	A,R7
2EA6  FF          MOV	A,R7
2EA7  FF          MOV	A,R7
2EA8  FF          MOV	A,R7
2EA9  FF          MOV	A,R7
2EAA  FF          MOV	A,R7
2EAB  FF          MOV	A,R7
2EAC  FF          MOV	A,R7
2EAD  FF          MOV	A,R7
2EAE  FF          MOV	A,R7
2EAF  FF          MOV	A,R7
2EB0  FF          MOV	A,R7
2EB1  FF          MOV	A,R7
2EB2  FF          MOV	A,R7
2EB3  FF          MOV	A,R7
2EB4  FF          MOV	A,R7
2EB5  FF          MOV	A,R7
2EB6  FF          MOV	A,R7
2EB7  FF          MOV	A,R7
2EB8  FF          MOV	A,R7
2EB9  FF          MOV	A,R7
2EBA  FF          MOV	A,R7
2EBB  FF          MOV	A,R7
2EBC  FF          MOV	A,R7
2EBD  FF          MOV	A,R7
2EBE  FF          MOV	A,R7
2EBF  FF          MOV	A,R7
2EC0  FF          MOV	A,R7
2EC1  FF          MOV	A,R7
2EC2  FF          MOV	A,R7
2EC3  FF          MOV	A,R7
2EC4  FF          MOV	A,R7
2EC5  FF          MOV	A,R7
2EC6  FF          MOV	A,R7
2EC7  FF          MOV	A,R7
2EC8  FF          MOV	A,R7
2EC9  FF          MOV	A,R7
2ECA  FF          MOV	A,R7
2ECB  FF          MOV	A,R7
2ECC  FF          MOV	A,R7
2ECD  FF          MOV	A,R7
2ECE  FF          MOV	A,R7
2ECF  FF          MOV	A,R7
2ED0  FF          MOV	A,R7
2ED1  FF          MOV	A,R7
2ED2  FF          MOV	A,R7
2ED3  FF          MOV	A,R7
2ED4  FF          MOV	A,R7
2ED5  FF          MOV	A,R7
2ED6  FF          MOV	A,R7
2ED7  FF          MOV	A,R7
2ED8  FF          MOV	A,R7
2ED9  FF          MOV	A,R7
2EDA  FF          MOV	A,R7
2EDB  FF          MOV	A,R7
2EDC  FF          MOV	A,R7
2EDD  FF          MOV	A,R7
2EDE  FF          MOV	A,R7
2EDF  FF          MOV	A,R7
2EE0  FF          MOV	A,R7
2EE1  FF          MOV	A,R7
2EE2  FF          MOV	A,R7
2EE3  FF          MOV	A,R7
2EE4  FF          MOV	A,R7
2EE5  FF          MOV	A,R7
2EE6  FF          MOV	A,R7
2EE7  FF          MOV	A,R7
2EE8  FF          MOV	A,R7
2EE9  FF          MOV	A,R7
2EEA  FF          MOV	A,R7
2EEB  FF          MOV	A,R7
2EEC  FF          MOV	A,R7
2EED  FF          MOV	A,R7
2EEE  FF          MOV	A,R7
2EEF  FF          MOV	A,R7
2EF0  FF          MOV	A,R7
2EF1  FF          MOV	A,R7
2EF2  FF          MOV	A,R7
2EF3  FF          MOV	A,R7
2EF4  FF          MOV	A,R7
2EF5  FF          MOV	A,R7
2EF6  FF          MOV	A,R7
2EF7  FF          MOV	A,R7
2EF8  FF          MOV	A,R7
2EF9  FF          MOV	A,R7
2EFA  FF          MOV	A,R7
2EFB  FF          MOV	A,R7
2EFC  FF          MOV	A,R7
2EFD  FF          MOV	A,R7
2EFE  FF          MOV	A,R7
2EFF  FF          MOV	A,R7
2F00  FF          MOV	A,R7
2F01  FF          MOV	A,R7
2F02  FF          MOV	A,R7
2F03  FF          MOV	A,R7
2F04  FF          MOV	A,R7
2F05  FF          MOV	A,R7
2F06  FF          MOV	A,R7
2F07  FF          MOV	A,R7
2F08  FF          MOV	A,R7
2F09  FF          MOV	A,R7
2F0A  FF          MOV	A,R7
2F0B  FF          MOV	A,R7
2F0C  FF          MOV	A,R7
2F0D  FF          MOV	A,R7
2F0E  FF          MOV	A,R7
2F0F  FF          MOV	A,R7
2F10  FF          MOV	A,R7
2F11  FF          MOV	A,R7
2F12  FF          MOV	A,R7
2F13  FF          MOV	A,R7
2F14  FF          MOV	A,R7
2F15  FF          MOV	A,R7
2F16  FF          MOV	A,R7
2F17  FF          MOV	A,R7
2F18  FF          MOV	A,R7
2F19  FF          MOV	A,R7
2F1A  FF          MOV	A,R7
2F1B  FF          MOV	A,R7
2F1C  FF          MOV	A,R7
2F1D  FF          MOV	A,R7
2F1E  FF          MOV	A,R7
2F1F  FF          MOV	A,R7
2F20  FF          MOV	A,R7
2F21  FF          MOV	A,R7
2F22  FF          MOV	A,R7
2F23  FF          MOV	A,R7
2F24  FF          MOV	A,R7
2F25  FF          MOV	A,R7
2F26  FF          MOV	A,R7
2F27  FF          MOV	A,R7
2F28  FF          MOV	A,R7
2F29  FF          MOV	A,R7
2F2A  FF          MOV	A,R7
2F2B  FF          MOV	A,R7
2F2C  FF          MOV	A,R7
2F2D  FF          MOV	A,R7
2F2E  FF          MOV	A,R7
2F2F  FF          MOV	A,R7
2F30  FF          MOV	A,R7
2F31  FF          MOV	A,R7
2F32  FF          MOV	A,R7
2F33  FF          MOV	A,R7
2F34  FF          MOV	A,R7
2F35  FF          MOV	A,R7
2F36  FF          MOV	A,R7
2F37  FF          MOV	A,R7
2F38  FF          MOV	A,R7
2F39  FF          MOV	A,R7
2F3A  FF          MOV	A,R7
2F3B  FF          MOV	A,R7
2F3C  FF          MOV	A,R7
2F3D  FF          MOV	A,R7
2F3E  FF          MOV	A,R7
2F3F  FF          MOV	A,R7
2F40  FF          MOV	A,R7
2F41  FF          MOV	A,R7
2F42  FF          MOV	A,R7
2F43  FF          MOV	A,R7
2F44  FF          MOV	A,R7
2F45  FF          MOV	A,R7
2F46  FF          MOV	A,R7
2F47  FF          MOV	A,R7
2F48  FF          MOV	A,R7
2F49  FF          MOV	A,R7
2F4A  FF          MOV	A,R7
2F4B  FF          MOV	A,R7
2F4C  FF          MOV	A,R7
2F4D  FF          MOV	A,R7
2F4E  FF          MOV	A,R7
2F4F  FF          MOV	A,R7
2F50  FF          MOV	A,R7
2F51  FF          MOV	A,R7
2F52  FF          MOV	A,R7
2F53  FF          MOV	A,R7
2F54  FF          MOV	A,R7
2F55  FF          MOV	A,R7
2F56  FF          MOV	A,R7
2F57  FF          MOV	A,R7
2F58  FF          MOV	A,R7
2F59  FF          MOV	A,R7
2F5A  FF          MOV	A,R7
2F5B  FF          MOV	A,R7
2F5C  FF          MOV	A,R7
2F5D  FF          MOV	A,R7
2F5E  FF          MOV	A,R7
2F5F  FF          MOV	A,R7
2F60  FF          MOV	A,R7
2F61  FF          MOV	A,R7
2F62  FF          MOV	A,R7
2F63  FF          MOV	A,R7
2F64  FF          MOV	A,R7
2F65  FF          MOV	A,R7
2F66  FF          MOV	A,R7
2F67  FF          MOV	A,R7
2F68  FF          MOV	A,R7
2F69  FF          MOV	A,R7
2F6A  FF          MOV	A,R7
2F6B  FF          MOV	A,R7
2F6C  FF          MOV	A,R7
2F6D  FF          MOV	A,R7
2F6E  FF          MOV	A,R7
2F6F  FF          MOV	A,R7
2F70  FF          MOV	A,R7
2F71  FF          MOV	A,R7
2F72  FF          MOV	A,R7
2F73  FF          MOV	A,R7
2F74  FF          MOV	A,R7
2F75  FF          MOV	A,R7
2F76  FF          MOV	A,R7
2F77  FF          MOV	A,R7
2F78  FF          MOV	A,R7
2F79  FF          MOV	A,R7
2F7A  FF          MOV	A,R7
2F7B  FF          MOV	A,R7
2F7C  FF          MOV	A,R7
2F7D  FF          MOV	A,R7
2F7E  FF          MOV	A,R7
2F7F  FF          MOV	A,R7
2F80  FF          MOV	A,R7
2F81  FF          MOV	A,R7
2F82  FF          MOV	A,R7
2F83  FF          MOV	A,R7
2F84  FF          MOV	A,R7
2F85  FF          MOV	A,R7
2F86  FF          MOV	A,R7
2F87  FF          MOV	A,R7
2F88  FF          MOV	A,R7
2F89  FF          MOV	A,R7
2F8A  FF          MOV	A,R7
2F8B  FF          MOV	A,R7
2F8C  FF          MOV	A,R7
2F8D  FF          MOV	A,R7
2F8E  FF          MOV	A,R7
2F8F  FF          MOV	A,R7
2F90  FF          MOV	A,R7
2F91  FF          MOV	A,R7
2F92  FF          MOV	A,R7
2F93  FF          MOV	A,R7
2F94  FF          MOV	A,R7
2F95  FF          MOV	A,R7
2F96  FF          MOV	A,R7
2F97  FF          MOV	A,R7
2F98  FF          MOV	A,R7
2F99  FF          MOV	A,R7
2F9A  FF          MOV	A,R7
2F9B  FF          MOV	A,R7
2F9C  FF          MOV	A,R7
2F9D  FF          MOV	A,R7
2F9E  FF          MOV	A,R7
2F9F  FF          MOV	A,R7
2FA0  FF          MOV	A,R7
2FA1  FF          MOV	A,R7
2FA2  FF          MOV	A,R7
2FA3  FF          MOV	A,R7
2FA4  FF          MOV	A,R7
2FA5  FF          MOV	A,R7
2FA6  FF          MOV	A,R7
2FA7  FF          MOV	A,R7
2FA8  FF          MOV	A,R7
2FA9  FF          MOV	A,R7
2FAA  FF          MOV	A,R7
2FAB  FF          MOV	A,R7
2FAC  FF          MOV	A,R7
2FAD  FF          MOV	A,R7
2FAE  FF          MOV	A,R7
2FAF  FF          MOV	A,R7
2FB0  FF          MOV	A,R7
2FB1  FF          MOV	A,R7
2FB2  FF          MOV	A,R7
2FB3  FF          MOV	A,R7
2FB4  FF          MOV	A,R7
2FB5  FF          MOV	A,R7
2FB6  FF          MOV	A,R7
2FB7  FF          MOV	A,R7
2FB8  FF          MOV	A,R7
2FB9  FF          MOV	A,R7
2FBA  FF          MOV	A,R7
2FBB  FF          MOV	A,R7
2FBC  FF          MOV	A,R7
2FBD  FF          MOV	A,R7
2FBE  FF          MOV	A,R7
2FBF  FF          MOV	A,R7
2FC0  FF          MOV	A,R7
2FC1  FF          MOV	A,R7
2FC2  FF          MOV	A,R7
2FC3  FF          MOV	A,R7
2FC4  FF          MOV	A,R7
2FC5  FF          MOV	A,R7
2FC6  FF          MOV	A,R7
2FC7  FF          MOV	A,R7
2FC8  FF          MOV	A,R7
2FC9  FF          MOV	A,R7
2FCA  FF          MOV	A,R7
2FCB  FF          MOV	A,R7
2FCC  FF          MOV	A,R7
2FCD  FF          MOV	A,R7
2FCE  FF          MOV	A,R7
2FCF  FF          MOV	A,R7
2FD0  FF          MOV	A,R7
2FD1  FF          MOV	A,R7
2FD2  FF          MOV	A,R7
2FD3  FF          MOV	A,R7
2FD4  FF          MOV	A,R7
2FD5  FF          MOV	A,R7
2FD6  FF          MOV	A,R7
2FD7  FF          MOV	A,R7
2FD8  FF          MOV	A,R7
2FD9  FF          MOV	A,R7
2FDA  FF          MOV	A,R7
2FDB  FF          MOV	A,R7
2FDC  FF          MOV	A,R7
2FDD  FF          MOV	A,R7
2FDE  FF          MOV	A,R7
2FDF  FF          MOV	A,R7
2FE0  FF          MOV	A,R7
2FE1  FF          MOV	A,R7
2FE2  FF          MOV	A,R7
2FE3  FF          MOV	A,R7
2FE4  FF          MOV	A,R7
2FE5  FF          MOV	A,R7
2FE6  FF          MOV	A,R7
2FE7  FF          MOV	A,R7
2FE8  FF          MOV	A,R7
2FE9  FF          MOV	A,R7
2FEA  FF          MOV	A,R7
2FEB  FF          MOV	A,R7
2FEC  FF          MOV	A,R7
2FED  FF          MOV	A,R7
2FEE  FF          MOV	A,R7
2FEF  FF          MOV	A,R7
2FF0  FF          MOV	A,R7
2FF1  FF          MOV	A,R7
2FF2  FF          MOV	A,R7
2FF3  FF          MOV	A,R7
2FF4  FF          MOV	A,R7
2FF5  FF          MOV	A,R7
2FF6  FF          MOV	A,R7
2FF7  FF          MOV	A,R7
2FF8  FF          MOV	A,R7
2FF9  FF          MOV	A,R7
2FFA  FF          MOV	A,R7
2FFB  FF          MOV	A,R7
2FFC  FF          MOV	A,R7
2FFD  FF          MOV	A,R7
2FFE  FF          MOV	A,R7
2FFF  FF          MOV	A,R7
3000  FF          MOV	A,R7
3001  FF          MOV	A,R7
3002  FF          MOV	A,R7
3003  FF          MOV	A,R7
3004  FF          MOV	A,R7
3005  FF          MOV	A,R7
3006  FF          MOV	A,R7
3007  FF          MOV	A,R7
3008  FF          MOV	A,R7
3009  FF          MOV	A,R7
300A  FF          MOV	A,R7
300B  FF          MOV	A,R7
300C  FF          MOV	A,R7
300D  FF          MOV	A,R7
300E  FF          MOV	A,R7
300F  FF          MOV	A,R7
3010  FF          MOV	A,R7
3011  FF          MOV	A,R7
3012  FF          MOV	A,R7
3013  FF          MOV	A,R7
3014  FF          MOV	A,R7
3015  FF          MOV	A,R7
3016  FF          MOV	A,R7
3017  FF          MOV	A,R7
3018  FF          MOV	A,R7
3019  FF          MOV	A,R7
301A  FF          MOV	A,R7
301B  FF          MOV	A,R7
301C  FF          MOV	A,R7
301D  FF          MOV	A,R7
301E  FF          MOV	A,R7
301F  FF          MOV	A,R7
3020  FF          MOV	A,R7
3021  FF          MOV	A,R7
3022  FF          MOV	A,R7
3023  FF          MOV	A,R7
3024  FF          MOV	A,R7
3025  FF          MOV	A,R7
3026  FF          MOV	A,R7
3027  FF          MOV	A,R7
3028  FF          MOV	A,R7
3029  FF          MOV	A,R7
302A  FF          MOV	A,R7
302B  FF          MOV	A,R7
302C  FF          MOV	A,R7
302D  FF          MOV	A,R7
302E  FF          MOV	A,R7
302F  FF          MOV	A,R7
3030  FF          MOV	A,R7
3031  FF          MOV	A,R7
3032  FF          MOV	A,R7
3033  FF          MOV	A,R7
3034  FF          MOV	A,R7
3035  FF          MOV	A,R7
3036  FF          MOV	A,R7
3037  FF          MOV	A,R7
3038  FF          MOV	A,R7
3039  FF          MOV	A,R7
303A  FF          MOV	A,R7
303B  FF          MOV	A,R7
303C  FF          MOV	A,R7
303D  FF          MOV	A,R7
303E  FF          MOV	A,R7
303F  FF          MOV	A,R7
3040  FF          MOV	A,R7
3041  FF          MOV	A,R7
3042  FF          MOV	A,R7
3043  FF          MOV	A,R7
3044  FF          MOV	A,R7
3045  FF          MOV	A,R7
3046  FF          MOV	A,R7
3047  FF          MOV	A,R7
3048  FF          MOV	A,R7
3049  FF          MOV	A,R7
304A  FF          MOV	A,R7
304B  FF          MOV	A,R7
304C  FF          MOV	A,R7
304D  FF          MOV	A,R7
304E  FF          MOV	A,R7
304F  FF          MOV	A,R7
3050  FF          MOV	A,R7
3051  FF          MOV	A,R7
3052  FF          MOV	A,R7
3053  FF          MOV	A,R7
3054  FF          MOV	A,R7
3055  FF          MOV	A,R7
3056  FF          MOV	A,R7
3057  FF          MOV	A,R7
3058  FF          MOV	A,R7
3059  FF          MOV	A,R7
305A  FF          MOV	A,R7
305B  FF          MOV	A,R7
305C  FF          MOV	A,R7
305D  FF          MOV	A,R7
305E  FF          MOV	A,R7
305F  FF          MOV	A,R7
3060  FF          MOV	A,R7
3061  FF          MOV	A,R7
3062  FF          MOV	A,R7
3063  FF          MOV	A,R7
3064  FF          MOV	A,R7
3065  FF          MOV	A,R7
3066  FF          MOV	A,R7
3067  FF          MOV	A,R7
3068  FF          MOV	A,R7
3069  FF          MOV	A,R7
306A  FF          MOV	A,R7
306B  FF          MOV	A,R7
306C  FF          MOV	A,R7
306D  FF          MOV	A,R7
306E  FF          MOV	A,R7
306F  FF          MOV	A,R7
3070  FF          MOV	A,R7
3071  FF          MOV	A,R7
3072  FF          MOV	A,R7
3073  FF          MOV	A,R7
3074  FF          MOV	A,R7
3075  FF          MOV	A,R7
3076  FF          MOV	A,R7
3077  FF          MOV	A,R7
3078  FF          MOV	A,R7
3079  FF          MOV	A,R7
307A  FF          MOV	A,R7
307B  FF          MOV	A,R7
307C  FF          MOV	A,R7
307D  FF          MOV	A,R7
307E  FF          MOV	A,R7
307F  FF          MOV	A,R7
3080  FF          MOV	A,R7
3081  FF          MOV	A,R7
3082  FF          MOV	A,R7
3083  FF          MOV	A,R7
3084  FF          MOV	A,R7
3085  FF          MOV	A,R7
3086  FF          MOV	A,R7
3087  FF          MOV	A,R7
3088  FF          MOV	A,R7
3089  FF          MOV	A,R7
308A  FF          MOV	A,R7
308B  FF          MOV	A,R7
308C  FF          MOV	A,R7
308D  FF          MOV	A,R7
308E  FF          MOV	A,R7
308F  FF          MOV	A,R7
3090  FF          MOV	A,R7
3091  FF          MOV	A,R7
3092  FF          MOV	A,R7
3093  FF          MOV	A,R7
3094  FF          MOV	A,R7
3095  FF          MOV	A,R7
3096  FF          MOV	A,R7
3097  FF          MOV	A,R7
3098  FF          MOV	A,R7
3099  FF          MOV	A,R7
309A  FF          MOV	A,R7
309B  FF          MOV	A,R7
309C  FF          MOV	A,R7
309D  FF          MOV	A,R7
309E  FF          MOV	A,R7
309F  FF          MOV	A,R7
30A0  FF          MOV	A,R7
30A1  FF          MOV	A,R7
30A2  FF          MOV	A,R7
30A3  FF          MOV	A,R7
30A4  FF          MOV	A,R7
30A5  FF          MOV	A,R7
30A6  FF          MOV	A,R7
30A7  FF          MOV	A,R7
30A8  FF          MOV	A,R7
30A9  FF          MOV	A,R7
30AA  FF          MOV	A,R7
30AB  FF          MOV	A,R7
30AC  FF          MOV	A,R7
30AD  FF          MOV	A,R7
30AE  FF          MOV	A,R7
30AF  FF          MOV	A,R7
30B0  FF          MOV	A,R7
30B1  FF          MOV	A,R7
30B2  FF          MOV	A,R7
30B3  FF          MOV	A,R7
30B4  FF          MOV	A,R7
30B5  FF          MOV	A,R7
30B6  FF          MOV	A,R7
30B7  FF          MOV	A,R7
30B8  FF          MOV	A,R7
30B9  FF          MOV	A,R7
30BA  FF          MOV	A,R7
30BB  FF          MOV	A,R7
30BC  FF          MOV	A,R7
30BD  FF          MOV	A,R7
30BE  FF          MOV	A,R7
30BF  FF          MOV	A,R7
30C0  FF          MOV	A,R7
30C1  FF          MOV	A,R7
30C2  FF          MOV	A,R7
30C3  FF          MOV	A,R7
30C4  FF          MOV	A,R7
30C5  FF          MOV	A,R7
30C6  FF          MOV	A,R7
30C7  FF          MOV	A,R7
30C8  FF          MOV	A,R7
30C9  FF          MOV	A,R7
30CA  FF          MOV	A,R7
30CB  FF          MOV	A,R7
30CC  FF          MOV	A,R7
30CD  FF          MOV	A,R7
30CE  FF          MOV	A,R7
30CF  FF          MOV	A,R7
30D0  FF          MOV	A,R7
30D1  FF          MOV	A,R7
30D2  FF          MOV	A,R7
30D3  FF          MOV	A,R7
30D4  FF          MOV	A,R7
30D5  FF          MOV	A,R7
30D6  FF          MOV	A,R7
30D7  FF          MOV	A,R7
30D8  FF          MOV	A,R7
30D9  FF          MOV	A,R7
30DA  FF          MOV	A,R7
30DB  FF          MOV	A,R7
30DC  FF          MOV	A,R7
30DD  FF          MOV	A,R7
30DE  FF          MOV	A,R7
30DF  FF          MOV	A,R7
30E0  FF          MOV	A,R7
30E1  FF          MOV	A,R7
30E2  FF          MOV	A,R7
30E3  FF          MOV	A,R7
30E4  FF          MOV	A,R7
30E5  FF          MOV	A,R7
30E6  FF          MOV	A,R7
30E7  FF          MOV	A,R7
30E8  FF          MOV	A,R7
30E9  FF          MOV	A,R7
30EA  FF          MOV	A,R7
30EB  FF          MOV	A,R7
30EC  FF          MOV	A,R7
30ED  FF          MOV	A,R7
30EE  FF          MOV	A,R7
30EF  FF          MOV	A,R7
30F0  FF          MOV	A,R7
30F1  FF          MOV	A,R7
30F2  FF          MOV	A,R7
30F3  FF          MOV	A,R7
30F4  FF          MOV	A,R7
30F5  FF          MOV	A,R7
30F6  FF          MOV	A,R7
30F7  FF          MOV	A,R7
30F8  FF          MOV	A,R7
30F9  FF          MOV	A,R7
30FA  FF          MOV	A,R7
30FB  FF          MOV	A,R7
30FC  FF          MOV	A,R7
30FD  FF          MOV	A,R7
30FE  FF          MOV	A,R7
30FF  FF          MOV	A,R7
3100  FF          MOV	A,R7
3101  FF          MOV	A,R7
3102  FF          MOV	A,R7
3103  FF          MOV	A,R7
3104  FF          MOV	A,R7
3105  FF          MOV	A,R7
3106  FF          MOV	A,R7
3107  FF          MOV	A,R7
3108  FF          MOV	A,R7
3109  FF          MOV	A,R7
310A  FF          MOV	A,R7
310B  FF          MOV	A,R7
310C  FF          MOV	A,R7
310D  FF          MOV	A,R7
310E  FF          MOV	A,R7
310F  FF          MOV	A,R7
3110  FF          MOV	A,R7
3111  FF          MOV	A,R7
3112  FF          MOV	A,R7
3113  FF          MOV	A,R7
3114  FF          MOV	A,R7
3115  FF          MOV	A,R7
3116  FF          MOV	A,R7
3117  FF          MOV	A,R7
3118  FF          MOV	A,R7
3119  FF          MOV	A,R7
311A  FF          MOV	A,R7
311B  FF          MOV	A,R7
311C  FF          MOV	A,R7
311D  FF          MOV	A,R7
311E  FF          MOV	A,R7
311F  FF          MOV	A,R7
3120  FF          MOV	A,R7
3121  FF          MOV	A,R7
3122  FF          MOV	A,R7
3123  FF          MOV	A,R7
3124  FF          MOV	A,R7
3125  FF          MOV	A,R7
3126  FF          MOV	A,R7
3127  FF          MOV	A,R7
3128  FF          MOV	A,R7
3129  FF          MOV	A,R7
312A  FF          MOV	A,R7
312B  FF          MOV	A,R7
312C  FF          MOV	A,R7
312D  FF          MOV	A,R7
312E  FF          MOV	A,R7
312F  FF          MOV	A,R7
3130  FF          MOV	A,R7
3131  FF          MOV	A,R7
3132  FF          MOV	A,R7
3133  FF          MOV	A,R7
3134  FF          MOV	A,R7
3135  FF          MOV	A,R7
3136  FF          MOV	A,R7
3137  FF          MOV	A,R7
3138  FF          MOV	A,R7
3139  FF          MOV	A,R7
313A  FF          MOV	A,R7
313B  FF          MOV	A,R7
313C  FF          MOV	A,R7
313D  FF          MOV	A,R7
313E  FF          MOV	A,R7
313F  FF          MOV	A,R7
3140  FF          MOV	A,R7
3141  FF          MOV	A,R7
3142  FF          MOV	A,R7
3143  FF          MOV	A,R7
3144  FF          MOV	A,R7
3145  FF          MOV	A,R7
3146  FF          MOV	A,R7
3147  FF          MOV	A,R7
3148  FF          MOV	A,R7
3149  FF          MOV	A,R7
314A  FF          MOV	A,R7
314B  FF          MOV	A,R7
314C  FF          MOV	A,R7
314D  FF          MOV	A,R7
314E  FF          MOV	A,R7
314F  FF          MOV	A,R7
3150  FF          MOV	A,R7
3151  FF          MOV	A,R7
3152  FF          MOV	A,R7
3153  FF          MOV	A,R7
3154  FF          MOV	A,R7
3155  FF          MOV	A,R7
3156  FF          MOV	A,R7
3157  FF          MOV	A,R7
3158  FF          MOV	A,R7
3159  FF          MOV	A,R7
315A  FF          MOV	A,R7
315B  FF          MOV	A,R7
315C  FF          MOV	A,R7
315D  FF          MOV	A,R7
315E  FF          MOV	A,R7
315F  FF          MOV	A,R7
3160  FF          MOV	A,R7
3161  FF          MOV	A,R7
3162  FF          MOV	A,R7
3163  FF          MOV	A,R7
3164  FF          MOV	A,R7
3165  FF          MOV	A,R7
3166  FF          MOV	A,R7
3167  FF          MOV	A,R7
3168  FF          MOV	A,R7
3169  FF          MOV	A,R7
316A  FF          MOV	A,R7
316B  FF          MOV	A,R7
316C  FF          MOV	A,R7
316D  FF          MOV	A,R7
316E  FF          MOV	A,R7
316F  FF          MOV	A,R7
3170  FF          MOV	A,R7
3171  FF          MOV	A,R7
3172  FF          MOV	A,R7
3173  FF          MOV	A,R7
3174  FF          MOV	A,R7
3175  FF          MOV	A,R7
3176  FF          MOV	A,R7
3177  FF          MOV	A,R7
3178  FF          MOV	A,R7
3179  FF          MOV	A,R7
317A  FF          MOV	A,R7
317B  FF          MOV	A,R7
317C  FF          MOV	A,R7
317D  FF          MOV	A,R7
317E  FF          MOV	A,R7
317F  FF          MOV	A,R7
3180  FF          MOV	A,R7
3181  FF          MOV	A,R7
3182  FF          MOV	A,R7
3183  FF          MOV	A,R7
3184  FF          MOV	A,R7
3185  FF          MOV	A,R7
3186  FF          MOV	A,R7
3187  FF          MOV	A,R7
3188  FF          MOV	A,R7
3189  FF          MOV	A,R7
318A  FF          MOV	A,R7
318B  FF          MOV	A,R7
318C  FF          MOV	A,R7
318D  FF          MOV	A,R7
318E  FF          MOV	A,R7
318F  FF          MOV	A,R7
3190  FF          MOV	A,R7
3191  FF          MOV	A,R7
3192  FF          MOV	A,R7
3193  FF          MOV	A,R7
3194  FF          MOV	A,R7
3195  FF          MOV	A,R7
3196  FF          MOV	A,R7
3197  FF          MOV	A,R7
3198  FF          MOV	A,R7
3199  FF          MOV	A,R7
319A  FF          MOV	A,R7
319B  FF          MOV	A,R7
319C  FF          MOV	A,R7
319D  FF          MOV	A,R7
319E  FF          MOV	A,R7
319F  FF          MOV	A,R7
31A0  FF          MOV	A,R7
31A1  FF          MOV	A,R7
31A2  FF          MOV	A,R7
31A3  FF          MOV	A,R7
31A4  FF          MOV	A,R7
31A5  FF          MOV	A,R7
31A6  FF          MOV	A,R7
31A7  FF          MOV	A,R7
31A8  FF          MOV	A,R7
31A9  FF          MOV	A,R7
31AA  FF          MOV	A,R7
31AB  FF          MOV	A,R7
31AC  FF          MOV	A,R7
31AD  FF          MOV	A,R7
31AE  FF          MOV	A,R7
31AF  FF          MOV	A,R7
31B0  FF          MOV	A,R7
31B1  FF          MOV	A,R7
31B2  FF          MOV	A,R7
31B3  FF          MOV	A,R7
31B4  FF          MOV	A,R7
31B5  FF          MOV	A,R7
31B6  FF          MOV	A,R7
31B7  FF          MOV	A,R7
31B8  FF          MOV	A,R7
31B9  FF          MOV	A,R7
31BA  FF          MOV	A,R7
31BB  FF          MOV	A,R7
31BC  FF          MOV	A,R7
31BD  FF          MOV	A,R7
31BE  FF          MOV	A,R7
31BF  FF          MOV	A,R7
31C0  FF          MOV	A,R7
31C1  FF          MOV	A,R7
31C2  FF          MOV	A,R7
31C3  FF          MOV	A,R7
31C4  FF          MOV	A,R7
31C5  FF          MOV	A,R7
31C6  FF          MOV	A,R7
31C7  FF          MOV	A,R7
31C8  FF          MOV	A,R7
31C9  FF          MOV	A,R7
31CA  FF          MOV	A,R7
31CB  FF          MOV	A,R7
31CC  FF          MOV	A,R7
31CD  FF          MOV	A,R7
31CE  FF          MOV	A,R7
31CF  FF          MOV	A,R7
31D0  FF          MOV	A,R7
31D1  FF          MOV	A,R7
31D2  FF          MOV	A,R7
31D3  FF          MOV	A,R7
31D4  FF          MOV	A,R7
31D5  FF          MOV	A,R7
31D6  FF          MOV	A,R7
31D7  FF          MOV	A,R7
31D8  FF          MOV	A,R7
31D9  FF          MOV	A,R7
31DA  FF          MOV	A,R7
31DB  FF          MOV	A,R7
31DC  FF          MOV	A,R7
31DD  FF          MOV	A,R7
31DE  FF          MOV	A,R7
31DF  FF          MOV	A,R7
31E0  FF          MOV	A,R7
31E1  FF          MOV	A,R7
31E2  FF          MOV	A,R7
31E3  FF          MOV	A,R7
31E4  FF          MOV	A,R7
31E5  FF          MOV	A,R7
31E6  FF          MOV	A,R7
31E7  FF          MOV	A,R7
31E8  FF          MOV	A,R7
31E9  FF          MOV	A,R7
31EA  FF          MOV	A,R7
31EB  FF          MOV	A,R7
31EC  FF          MOV	A,R7
31ED  FF          MOV	A,R7
31EE  FF          MOV	A,R7
31EF  FF          MOV	A,R7
31F0  FF          MOV	A,R7
31F1  FF          MOV	A,R7
31F2  FF          MOV	A,R7
31F3  FF          MOV	A,R7
31F4  FF          MOV	A,R7
31F5  FF          MOV	A,R7
31F6  FF          MOV	A,R7
31F7  FF          MOV	A,R7
31F8  FF          MOV	A,R7
31F9  FF          MOV	A,R7
31FA  FF          MOV	A,R7
31FB  FF          MOV	A,R7
31FC  FF          MOV	A,R7
31FD  FF          MOV	A,R7
31FE  FF          MOV	A,R7
31FF  FF          MOV	A,R7
3200  FF          MOV	A,R7
3201  FF          MOV	A,R7
3202  FF          MOV	A,R7
3203  FF          MOV	A,R7
3204  FF          MOV	A,R7
3205  FF          MOV	A,R7
3206  FF          MOV	A,R7
3207  FF          MOV	A,R7
3208  FF          MOV	A,R7
3209  FF          MOV	A,R7
320A  FF          MOV	A,R7
320B  FF          MOV	A,R7
320C  FF          MOV	A,R7
320D  FF          MOV	A,R7
320E  FF          MOV	A,R7
320F  FF          MOV	A,R7
3210  FF          MOV	A,R7
3211  FF          MOV	A,R7
3212  FF          MOV	A,R7
3213  FF          MOV	A,R7
3214  FF          MOV	A,R7
3215  FF          MOV	A,R7
3216  FF          MOV	A,R7
3217  FF          MOV	A,R7
3218  FF          MOV	A,R7
3219  FF          MOV	A,R7
321A  FF          MOV	A,R7
321B  FF          MOV	A,R7
321C  FF          MOV	A,R7
321D  FF          MOV	A,R7
321E  FF          MOV	A,R7
321F  FF          MOV	A,R7
3220  FF          MOV	A,R7
3221  FF          MOV	A,R7
3222  FF          MOV	A,R7
3223  FF          MOV	A,R7
3224  FF          MOV	A,R7
3225  FF          MOV	A,R7
3226  FF          MOV	A,R7
3227  FF          MOV	A,R7
3228  FF          MOV	A,R7
3229  FF          MOV	A,R7
322A  FF          MOV	A,R7
322B  FF          MOV	A,R7
322C  FF          MOV	A,R7
322D  FF          MOV	A,R7
322E  FF          MOV	A,R7
322F  FF          MOV	A,R7
3230  FF          MOV	A,R7
3231  FF          MOV	A,R7
3232  FF          MOV	A,R7
3233  FF          MOV	A,R7
3234  FF          MOV	A,R7
3235  FF          MOV	A,R7
3236  FF          MOV	A,R7
3237  FF          MOV	A,R7
3238  FF          MOV	A,R7
3239  FF          MOV	A,R7
323A  FF          MOV	A,R7
323B  FF          MOV	A,R7
323C  FF          MOV	A,R7
323D  FF          MOV	A,R7
323E  FF          MOV	A,R7
323F  FF          MOV	A,R7
3240  FF          MOV	A,R7
3241  FF          MOV	A,R7
3242  FF          MOV	A,R7
3243  FF          MOV	A,R7
3244  FF          MOV	A,R7
3245  FF          MOV	A,R7
3246  FF          MOV	A,R7
3247  FF          MOV	A,R7
3248  FF          MOV	A,R7
3249  FF          MOV	A,R7
324A  FF          MOV	A,R7
324B  FF          MOV	A,R7
324C  FF          MOV	A,R7
324D  FF          MOV	A,R7
324E  FF          MOV	A,R7
324F  FF          MOV	A,R7
3250  FF          MOV	A,R7
3251  FF          MOV	A,R7
3252  FF          MOV	A,R7
3253  FF          MOV	A,R7
3254  FF          MOV	A,R7
3255  FF          MOV	A,R7
3256  FF          MOV	A,R7
3257  FF          MOV	A,R7
3258  FF          MOV	A,R7
3259  FF          MOV	A,R7
325A  FF          MOV	A,R7
325B  FF          MOV	A,R7
325C  FF          MOV	A,R7
325D  FF          MOV	A,R7
325E  FF          MOV	A,R7
325F  FF          MOV	A,R7
3260  FF          MOV	A,R7
3261  FF          MOV	A,R7
3262  FF          MOV	A,R7
3263  FF          MOV	A,R7
3264  FF          MOV	A,R7
3265  FF          MOV	A,R7
3266  FF          MOV	A,R7
3267  FF          MOV	A,R7
3268  FF          MOV	A,R7
3269  FF          MOV	A,R7
326A  FF          MOV	A,R7
326B  FF          MOV	A,R7
326C  FF          MOV	A,R7
326D  FF          MOV	A,R7
326E  FF          MOV	A,R7
326F  FF          MOV	A,R7
3270  FF          MOV	A,R7
3271  FF          MOV	A,R7
3272  FF          MOV	A,R7
3273  FF          MOV	A,R7
3274  FF          MOV	A,R7
3275  FF          MOV	A,R7
3276  FF          MOV	A,R7
3277  FF          MOV	A,R7
3278  FF          MOV	A,R7
3279  FF          MOV	A,R7
327A  FF          MOV	A,R7
327B  FF          MOV	A,R7
327C  FF          MOV	A,R7
327D  FF          MOV	A,R7
327E  FF          MOV	A,R7
327F  FF          MOV	A,R7
3280  FF          MOV	A,R7
3281  FF          MOV	A,R7
3282  FF          MOV	A,R7
3283  FF          MOV	A,R7
3284  FF          MOV	A,R7
3285  FF          MOV	A,R7
3286  FF          MOV	A,R7
3287  FF          MOV	A,R7
3288  FF          MOV	A,R7
3289  FF          MOV	A,R7
328A  FF          MOV	A,R7
328B  FF          MOV	A,R7
328C  FF          MOV	A,R7
328D  FF          MOV	A,R7
328E  FF          MOV	A,R7
328F  FF          MOV	A,R7
3290  FF          MOV	A,R7
3291  FF          MOV	A,R7
3292  FF          MOV	A,R7
3293  FF          MOV	A,R7
3294  FF          MOV	A,R7
3295  FF          MOV	A,R7
3296  FF          MOV	A,R7
3297  FF          MOV	A,R7
3298  FF          MOV	A,R7
3299  FF          MOV	A,R7
329A  FF          MOV	A,R7
329B  FF          MOV	A,R7
329C  FF          MOV	A,R7
329D  FF          MOV	A,R7
329E  FF          MOV	A,R7
329F  FF          MOV	A,R7
32A0  FF          MOV	A,R7
32A1  FF          MOV	A,R7
32A2  FF          MOV	A,R7
32A3  FF          MOV	A,R7
32A4  FF          MOV	A,R7
32A5  FF          MOV	A,R7
32A6  FF          MOV	A,R7
32A7  FF          MOV	A,R7
32A8  FF          MOV	A,R7
32A9  FF          MOV	A,R7
32AA  FF          MOV	A,R7
32AB  FF          MOV	A,R7
32AC  FF          MOV	A,R7
32AD  FF          MOV	A,R7
32AE  FF          MOV	A,R7
32AF  FF          MOV	A,R7
32B0  FF          MOV	A,R7
32B1  FF          MOV	A,R7
32B2  FF          MOV	A,R7
32B3  FF          MOV	A,R7
32B4  FF          MOV	A,R7
32B5  FF          MOV	A,R7
32B6  FF          MOV	A,R7
32B7  FF          MOV	A,R7
32B8  FF          MOV	A,R7
32B9  FF          MOV	A,R7
32BA  FF          MOV	A,R7
32BB  FF          MOV	A,R7
32BC  FF          MOV	A,R7
32BD  FF          MOV	A,R7
32BE  FF          MOV	A,R7
32BF  FF          MOV	A,R7
32C0  FF          MOV	A,R7
32C1  FF          MOV	A,R7
32C2  FF          MOV	A,R7
32C3  FF          MOV	A,R7
32C4  FF          MOV	A,R7
32C5  FF          MOV	A,R7
32C6  FF          MOV	A,R7
32C7  FF          MOV	A,R7
32C8  FF          MOV	A,R7
32C9  FF          MOV	A,R7
32CA  FF          MOV	A,R7
32CB  FF          MOV	A,R7
32CC  FF          MOV	A,R7
32CD  FF          MOV	A,R7
32CE  FF          MOV	A,R7
32CF  FF          MOV	A,R7
32D0  FF          MOV	A,R7
32D1  FF          MOV	A,R7
32D2  FF          MOV	A,R7
32D3  FF          MOV	A,R7
32D4  FF          MOV	A,R7
32D5  FF          MOV	A,R7
32D6  FF          MOV	A,R7
32D7  FF          MOV	A,R7
32D8  FF          MOV	A,R7
32D9  FF          MOV	A,R7
32DA  FF          MOV	A,R7
32DB  FF          MOV	A,R7
32DC  FF          MOV	A,R7
32DD  FF          MOV	A,R7
32DE  FF          MOV	A,R7
32DF  FF          MOV	A,R7
32E0  FF          MOV	A,R7
32E1  FF          MOV	A,R7
32E2  FF          MOV	A,R7
32E3  FF          MOV	A,R7
32E4  FF          MOV	A,R7
32E5  FF          MOV	A,R7
32E6  FF          MOV	A,R7
32E7  FF          MOV	A,R7
32E8  FF          MOV	A,R7
32E9  FF          MOV	A,R7
32EA  FF          MOV	A,R7
32EB  FF          MOV	A,R7
32EC  FF          MOV	A,R7
32ED  FF          MOV	A,R7
32EE  FF          MOV	A,R7
32EF  FF          MOV	A,R7
32F0  FF          MOV	A,R7
32F1  FF          MOV	A,R7
32F2  FF          MOV	A,R7
32F3  FF          MOV	A,R7
32F4  FF          MOV	A,R7
32F5  FF          MOV	A,R7
32F6  FF          MOV	A,R7
32F7  FF          MOV	A,R7
32F8  FF          MOV	A,R7
32F9  FF          MOV	A,R7
32FA  FF          MOV	A,R7
32FB  FF          MOV	A,R7
32FC  FF          MOV	A,R7
32FD  FF          MOV	A,R7
32FE  FF          MOV	A,R7
32FF  FF          MOV	A,R7
3300  FF          MOV	A,R7
3301  FF          MOV	A,R7
3302  FF          MOV	A,R7
3303  FF          MOV	A,R7
3304  FF          MOV	A,R7
3305  FF          MOV	A,R7
3306  FF          MOV	A,R7
3307  FF          MOV	A,R7
3308  FF          MOV	A,R7
3309  FF          MOV	A,R7
330A  FF          MOV	A,R7
330B  FF          MOV	A,R7
330C  FF          MOV	A,R7
330D  FF          MOV	A,R7
330E  FF          MOV	A,R7
330F  FF          MOV	A,R7
3310  FF          MOV	A,R7
3311  FF          MOV	A,R7
3312  FF          MOV	A,R7
3313  FF          MOV	A,R7
3314  FF          MOV	A,R7
3315  FF          MOV	A,R7
3316  FF          MOV	A,R7
3317  FF          MOV	A,R7
3318  FF          MOV	A,R7
3319  FF          MOV	A,R7
331A  FF          MOV	A,R7
331B  FF          MOV	A,R7
331C  FF          MOV	A,R7
331D  FF          MOV	A,R7
331E  FF          MOV	A,R7
331F  FF          MOV	A,R7
3320  FF          MOV	A,R7
3321  FF          MOV	A,R7
3322  FF          MOV	A,R7
3323  FF          MOV	A,R7
3324  FF          MOV	A,R7
3325  FF          MOV	A,R7
3326  FF          MOV	A,R7
3327  FF          MOV	A,R7
3328  FF          MOV	A,R7
3329  FF          MOV	A,R7
332A  FF          MOV	A,R7
332B  FF          MOV	A,R7
332C  FF          MOV	A,R7
332D  FF          MOV	A,R7
332E  FF          MOV	A,R7
332F  FF          MOV	A,R7
3330  FF          MOV	A,R7
3331  FF          MOV	A,R7
3332  FF          MOV	A,R7
3333  FF          MOV	A,R7
3334  FF          MOV	A,R7
3335  FF          MOV	A,R7
3336  FF          MOV	A,R7
3337  FF          MOV	A,R7
3338  FF          MOV	A,R7
3339  FF          MOV	A,R7
333A  FF          MOV	A,R7
333B  FF          MOV	A,R7
333C  FF          MOV	A,R7
333D  FF          MOV	A,R7
333E  FF          MOV	A,R7
333F  FF          MOV	A,R7
3340  FF          MOV	A,R7
3341  FF          MOV	A,R7
3342  FF          MOV	A,R7
3343  FF          MOV	A,R7
3344  FF          MOV	A,R7
3345  FF          MOV	A,R7
3346  FF          MOV	A,R7
3347  FF          MOV	A,R7
3348  FF          MOV	A,R7
3349  FF          MOV	A,R7
334A  FF          MOV	A,R7
334B  FF          MOV	A,R7
334C  FF          MOV	A,R7
334D  FF          MOV	A,R7
334E  FF          MOV	A,R7
334F  FF          MOV	A,R7
3350  FF          MOV	A,R7
3351  FF          MOV	A,R7
3352  FF          MOV	A,R7
3353  FF          MOV	A,R7
3354  FF          MOV	A,R7
3355  FF          MOV	A,R7
3356  FF          MOV	A,R7
3357  FF          MOV	A,R7
3358  FF          MOV	A,R7
3359  FF          MOV	A,R7
335A  FF          MOV	A,R7
335B  FF          MOV	A,R7
335C  FF          MOV	A,R7
335D  FF          MOV	A,R7
335E  FF          MOV	A,R7
335F  FF          MOV	A,R7
3360  FF          MOV	A,R7
3361  FF          MOV	A,R7
3362  FF          MOV	A,R7
3363  FF          MOV	A,R7
3364  FF          MOV	A,R7
3365  FF          MOV	A,R7
3366  FF          MOV	A,R7
3367  FF          MOV	A,R7
3368  FF          MOV	A,R7
3369  FF          MOV	A,R7
336A  FF          MOV	A,R7
336B  FF          MOV	A,R7
336C  FF          MOV	A,R7
336D  FF          MOV	A,R7
336E  FF          MOV	A,R7
336F  FF          MOV	A,R7
3370  FF          MOV	A,R7
3371  FF          MOV	A,R7
3372  FF          MOV	A,R7
3373  FF          MOV	A,R7
3374  FF          MOV	A,R7
3375  FF          MOV	A,R7
3376  FF          MOV	A,R7
3377  FF          MOV	A,R7
3378  FF          MOV	A,R7
3379  FF          MOV	A,R7
337A  FF          MOV	A,R7
337B  FF          MOV	A,R7
337C  FF          MOV	A,R7
337D  FF          MOV	A,R7
337E  FF          MOV	A,R7
337F  FF          MOV	A,R7
3380  FF          MOV	A,R7
3381  FF          MOV	A,R7
3382  FF          MOV	A,R7
3383  FF          MOV	A,R7
3384  FF          MOV	A,R7
3385  FF          MOV	A,R7
3386  FF          MOV	A,R7
3387  FF          MOV	A,R7
3388  FF          MOV	A,R7
3389  FF          MOV	A,R7
338A  FF          MOV	A,R7
338B  FF          MOV	A,R7
338C  FF          MOV	A,R7
338D  FF          MOV	A,R7
338E  FF          MOV	A,R7
338F  FF          MOV	A,R7
3390  FF          MOV	A,R7
3391  FF          MOV	A,R7
3392  FF          MOV	A,R7
3393  FF          MOV	A,R7
3394  FF          MOV	A,R7
3395  FF          MOV	A,R7
3396  FF          MOV	A,R7
3397  FF          MOV	A,R7
3398  FF          MOV	A,R7
3399  FF          MOV	A,R7
339A  FF          MOV	A,R7
339B  FF          MOV	A,R7
339C  FF          MOV	A,R7
339D  FF          MOV	A,R7
339E  FF          MOV	A,R7
339F  FF          MOV	A,R7
33A0  FF          MOV	A,R7
33A1  FF          MOV	A,R7
33A2  FF          MOV	A,R7
33A3  FF          MOV	A,R7
33A4  FF          MOV	A,R7
33A5  FF          MOV	A,R7
33A6  FF          MOV	A,R7
33A7  FF          MOV	A,R7
33A8  FF          MOV	A,R7
33A9  FF          MOV	A,R7
33AA  FF          MOV	A,R7
33AB  FF          MOV	A,R7
33AC  FF          MOV	A,R7
33AD  FF          MOV	A,R7
33AE  FF          MOV	A,R7
33AF  FF          MOV	A,R7
33B0  FF          MOV	A,R7
33B1  FF          MOV	A,R7
33B2  FF          MOV	A,R7
33B3  FF          MOV	A,R7
33B4  FF          MOV	A,R7
33B5  FF          MOV	A,R7
33B6  FF          MOV	A,R7
33B7  FF          MOV	A,R7
33B8  FF          MOV	A,R7
33B9  FF          MOV	A,R7
33BA  FF          MOV	A,R7
33BB  FF          MOV	A,R7
33BC  FF          MOV	A,R7
33BD  FF          MOV	A,R7
33BE  FF          MOV	A,R7
33BF  FF          MOV	A,R7
33C0  FF          MOV	A,R7
33C1  FF          MOV	A,R7
33C2  FF          MOV	A,R7
33C3  FF          MOV	A,R7
33C4  FF          MOV	A,R7
33C5  FF          MOV	A,R7
33C6  FF          MOV	A,R7
33C7  FF          MOV	A,R7
33C8  FF          MOV	A,R7
33C9  FF          MOV	A,R7
33CA  FF          MOV	A,R7
33CB  FF          MOV	A,R7
33CC  FF          MOV	A,R7
33CD  FF          MOV	A,R7
33CE  FF          MOV	A,R7
33CF  FF          MOV	A,R7
33D0  FF          MOV	A,R7
33D1  FF          MOV	A,R7
33D2  FF          MOV	A,R7
33D3  FF          MOV	A,R7
33D4  FF          MOV	A,R7
33D5  FF          MOV	A,R7
33D6  FF          MOV	A,R7
33D7  FF          MOV	A,R7
33D8  FF          MOV	A,R7
33D9  FF          MOV	A,R7
33DA  FF          MOV	A,R7
33DB  FF          MOV	A,R7
33DC  FF          MOV	A,R7
33DD  FF          MOV	A,R7
33DE  FF          MOV	A,R7
33DF  FF          MOV	A,R7
33E0  FF          MOV	A,R7
33E1  FF          MOV	A,R7
33E2  FF          MOV	A,R7
33E3  FF          MOV	A,R7
33E4  FF          MOV	A,R7
33E5  FF          MOV	A,R7
33E6  FF          MOV	A,R7
33E7  FF          MOV	A,R7
33E8  FF          MOV	A,R7
33E9  FF          MOV	A,R7
33EA  FF          MOV	A,R7
33EB  FF          MOV	A,R7
33EC  FF          MOV	A,R7
33ED  FF          MOV	A,R7
33EE  FF          MOV	A,R7
33EF  FF          MOV	A,R7
33F0  FF          MOV	A,R7
33F1  FF          MOV	A,R7
33F2  FF          MOV	A,R7
33F3  FF          MOV	A,R7
33F4  FF          MOV	A,R7
33F5  FF          MOV	A,R7
33F6  FF          MOV	A,R7
33F7  FF          MOV	A,R7
33F8  FF          MOV	A,R7
33F9  FF          MOV	A,R7
33FA  FF          MOV	A,R7
33FB  FF          MOV	A,R7
33FC  FF          MOV	A,R7
33FD  FF          MOV	A,R7
33FE  FF          MOV	A,R7
33FF  FF          MOV	A,R7
3400  FF          MOV	A,R7
3401  FF          MOV	A,R7
3402  FF          MOV	A,R7
3403  FF          MOV	A,R7
3404  FF          MOV	A,R7
3405  FF          MOV	A,R7
3406  FF          MOV	A,R7
3407  FF          MOV	A,R7
3408  FF          MOV	A,R7
3409  FF          MOV	A,R7
340A  FF          MOV	A,R7
340B  FF          MOV	A,R7
340C  FF          MOV	A,R7
340D  FF          MOV	A,R7
340E  FF          MOV	A,R7
340F  FF          MOV	A,R7
3410  FF          MOV	A,R7
3411  FF          MOV	A,R7
3412  FF          MOV	A,R7
3413  FF          MOV	A,R7
3414  FF          MOV	A,R7
3415  FF          MOV	A,R7
3416  FF          MOV	A,R7
3417  FF          MOV	A,R7
3418  FF          MOV	A,R7
3419  FF          MOV	A,R7
341A  FF          MOV	A,R7
341B  FF          MOV	A,R7
341C  FF          MOV	A,R7
341D  FF          MOV	A,R7
341E  FF          MOV	A,R7
341F  FF          MOV	A,R7
3420  FF          MOV	A,R7
3421  FF          MOV	A,R7
3422  FF          MOV	A,R7
3423  FF          MOV	A,R7
3424  FF          MOV	A,R7
3425  FF          MOV	A,R7
3426  FF          MOV	A,R7
3427  FF          MOV	A,R7
3428  FF          MOV	A,R7
3429  FF          MOV	A,R7
342A  FF          MOV	A,R7
342B  FF          MOV	A,R7
342C  FF          MOV	A,R7
342D  FF          MOV	A,R7
342E  FF          MOV	A,R7
342F  FF          MOV	A,R7
3430  FF          MOV	A,R7
3431  FF          MOV	A,R7
3432  FF          MOV	A,R7
3433  FF          MOV	A,R7
3434  FF          MOV	A,R7
3435  FF          MOV	A,R7
3436  FF          MOV	A,R7
3437  FF          MOV	A,R7
3438  FF          MOV	A,R7
3439  FF          MOV	A,R7
343A  FF          MOV	A,R7
343B  FF          MOV	A,R7
343C  FF          MOV	A,R7
343D  FF          MOV	A,R7
343E  FF          MOV	A,R7
343F  FF          MOV	A,R7
3440  FF          MOV	A,R7
3441  FF          MOV	A,R7
3442  FF          MOV	A,R7
3443  FF          MOV	A,R7
3444  FF          MOV	A,R7
3445  FF          MOV	A,R7
3446  FF          MOV	A,R7
3447  FF          MOV	A,R7
3448  FF          MOV	A,R7
3449  FF          MOV	A,R7
344A  FF          MOV	A,R7
344B  FF          MOV	A,R7
344C  FF          MOV	A,R7
344D  FF          MOV	A,R7
344E  FF          MOV	A,R7
344F  FF          MOV	A,R7
3450  FF          MOV	A,R7
3451  FF          MOV	A,R7
3452  FF          MOV	A,R7
3453  FF          MOV	A,R7
3454  FF          MOV	A,R7
3455  FF          MOV	A,R7
3456  FF          MOV	A,R7
3457  FF          MOV	A,R7
3458  FF          MOV	A,R7
3459  FF          MOV	A,R7
345A  FF          MOV	A,R7
345B  FF          MOV	A,R7
345C  FF          MOV	A,R7
345D  FF          MOV	A,R7
345E  FF          MOV	A,R7
345F  FF          MOV	A,R7
3460  FF          MOV	A,R7
3461  FF          MOV	A,R7
3462  FF          MOV	A,R7
3463  FF          MOV	A,R7
3464  FF          MOV	A,R7
3465  FF          MOV	A,R7
3466  FF          MOV	A,R7
3467  FF          MOV	A,R7
3468  FF          MOV	A,R7
3469  FF          MOV	A,R7
346A  FF          MOV	A,R7
346B  FF          MOV	A,R7
346C  FF          MOV	A,R7
346D  FF          MOV	A,R7
346E  FF          MOV	A,R7
346F  FF          MOV	A,R7
3470  FF          MOV	A,R7
3471  FF          MOV	A,R7
3472  FF          MOV	A,R7
3473  FF          MOV	A,R7
3474  FF          MOV	A,R7
3475  FF          MOV	A,R7
3476  FF          MOV	A,R7
3477  FF          MOV	A,R7
3478  FF          MOV	A,R7
3479  FF          MOV	A,R7
347A  FF          MOV	A,R7
347B  FF          MOV	A,R7
347C  FF          MOV	A,R7
347D  FF          MOV	A,R7
347E  FF          MOV	A,R7
347F  FF          MOV	A,R7
3480  FF          MOV	A,R7
3481  FF          MOV	A,R7
3482  FF          MOV	A,R7
3483  FF          MOV	A,R7
3484  FF          MOV	A,R7
3485  FF          MOV	A,R7
3486  FF          MOV	A,R7
3487  FF          MOV	A,R7
3488  FF          MOV	A,R7
3489  FF          MOV	A,R7
348A  FF          MOV	A,R7
348B  FF          MOV	A,R7
348C  FF          MOV	A,R7
348D  FF          MOV	A,R7
348E  FF          MOV	A,R7
348F  FF          MOV	A,R7
3490  FF          MOV	A,R7
3491  FF          MOV	A,R7
3492  FF          MOV	A,R7
3493  FF          MOV	A,R7
3494  FF          MOV	A,R7
3495  FF          MOV	A,R7
3496  FF          MOV	A,R7
3497  FF          MOV	A,R7
3498  FF          MOV	A,R7
3499  FF          MOV	A,R7
349A  FF          MOV	A,R7
349B  FF          MOV	A,R7
349C  FF          MOV	A,R7
349D  FF          MOV	A,R7
349E  FF          MOV	A,R7
349F  FF          MOV	A,R7
34A0  FF          MOV	A,R7
34A1  FF          MOV	A,R7
34A2  FF          MOV	A,R7
34A3  FF          MOV	A,R7
34A4  FF          MOV	A,R7
34A5  FF          MOV	A,R7
34A6  FF          MOV	A,R7
34A7  FF          MOV	A,R7
34A8  FF          MOV	A,R7
34A9  FF          MOV	A,R7
34AA  FF          MOV	A,R7
34AB  FF          MOV	A,R7
34AC  FF          MOV	A,R7
34AD  FF          MOV	A,R7
34AE  FF          MOV	A,R7
34AF  FF          MOV	A,R7
34B0  FF          MOV	A,R7
34B1  FF          MOV	A,R7
34B2  FF          MOV	A,R7
34B3  FF          MOV	A,R7
34B4  FF          MOV	A,R7
34B5  FF          MOV	A,R7
34B6  FF          MOV	A,R7
34B7  FF          MOV	A,R7
34B8  FF          MOV	A,R7
34B9  FF          MOV	A,R7
34BA  FF          MOV	A,R7
34BB  FF          MOV	A,R7
34BC  FF          MOV	A,R7
34BD  FF          MOV	A,R7
34BE  FF          MOV	A,R7
34BF  FF          MOV	A,R7
34C0  FF          MOV	A,R7
34C1  FF          MOV	A,R7
34C2  FF          MOV	A,R7
34C3  FF          MOV	A,R7
34C4  FF          MOV	A,R7
34C5  FF          MOV	A,R7
34C6  FF          MOV	A,R7
34C7  FF          MOV	A,R7
34C8  FF          MOV	A,R7
34C9  FF          MOV	A,R7
34CA  FF          MOV	A,R7
34CB  FF          MOV	A,R7
34CC  FF          MOV	A,R7
34CD  FF          MOV	A,R7
34CE  FF          MOV	A,R7
34CF  FF          MOV	A,R7
34D0  FF          MOV	A,R7
34D1  FF          MOV	A,R7
34D2  FF          MOV	A,R7
34D3  FF          MOV	A,R7
34D4  FF          MOV	A,R7
34D5  FF          MOV	A,R7
34D6  FF          MOV	A,R7
34D7  FF          MOV	A,R7
34D8  FF          MOV	A,R7
34D9  FF          MOV	A,R7
34DA  FF          MOV	A,R7
34DB  FF          MOV	A,R7
34DC  FF          MOV	A,R7
34DD  FF          MOV	A,R7
34DE  FF          MOV	A,R7
34DF  FF          MOV	A,R7
34E0  FF          MOV	A,R7
34E1  FF          MOV	A,R7
34E2  FF          MOV	A,R7
34E3  FF          MOV	A,R7
34E4  FF          MOV	A,R7
34E5  FF          MOV	A,R7
34E6  FF          MOV	A,R7
34E7  FF          MOV	A,R7
34E8  FF          MOV	A,R7
34E9  FF          MOV	A,R7
34EA  FF          MOV	A,R7
34EB  FF          MOV	A,R7
34EC  FF          MOV	A,R7
34ED  FF          MOV	A,R7
34EE  FF          MOV	A,R7
34EF  FF          MOV	A,R7
34F0  FF          MOV	A,R7
34F1  FF          MOV	A,R7
34F2  FF          MOV	A,R7
34F3  FF          MOV	A,R7
34F4  FF          MOV	A,R7
34F5  FF          MOV	A,R7
34F6  FF          MOV	A,R7
34F7  FF          MOV	A,R7
34F8  FF          MOV	A,R7
34F9  FF          MOV	A,R7
34FA  FF          MOV	A,R7
34FB  FF          MOV	A,R7
34FC  FF          MOV	A,R7
34FD  FF          MOV	A,R7
34FE  FF          MOV	A,R7
34FF  FF          MOV	A,R7
3500  FF          MOV	A,R7
3501  FF          MOV	A,R7
3502  FF          MOV	A,R7
3503  FF          MOV	A,R7
3504  FF          MOV	A,R7
3505  FF          MOV	A,R7
3506  FF          MOV	A,R7
3507  FF          MOV	A,R7
3508  FF          MOV	A,R7
3509  FF          MOV	A,R7
350A  FF          MOV	A,R7
350B  FF          MOV	A,R7
350C  FF          MOV	A,R7
350D  FF          MOV	A,R7
350E  FF          MOV	A,R7
350F  FF          MOV	A,R7
3510  FF          MOV	A,R7
3511  FF          MOV	A,R7
3512  FF          MOV	A,R7
3513  FF          MOV	A,R7
3514  FF          MOV	A,R7
3515  FF          MOV	A,R7
3516  FF          MOV	A,R7
3517  FF          MOV	A,R7
3518  FF          MOV	A,R7
3519  FF          MOV	A,R7
351A  FF          MOV	A,R7
351B  FF          MOV	A,R7
351C  FF          MOV	A,R7
351D  FF          MOV	A,R7
351E  FF          MOV	A,R7
351F  FF          MOV	A,R7
3520  FF          MOV	A,R7
3521  FF          MOV	A,R7
3522  FF          MOV	A,R7
3523  FF          MOV	A,R7
3524  FF          MOV	A,R7
3525  FF          MOV	A,R7
3526  FF          MOV	A,R7
3527  FF          MOV	A,R7
3528  FF          MOV	A,R7
3529  FF          MOV	A,R7
352A  FF          MOV	A,R7
352B  FF          MOV	A,R7
352C  FF          MOV	A,R7
352D  FF          MOV	A,R7
352E  FF          MOV	A,R7
352F  FF          MOV	A,R7
3530  FF          MOV	A,R7
3531  FF          MOV	A,R7
3532  FF          MOV	A,R7
3533  FF          MOV	A,R7
3534  FF          MOV	A,R7
3535  FF          MOV	A,R7
3536  FF          MOV	A,R7
3537  FF          MOV	A,R7
3538  FF          MOV	A,R7
3539  FF          MOV	A,R7
353A  FF          MOV	A,R7
353B  FF          MOV	A,R7
353C  FF          MOV	A,R7
353D  FF          MOV	A,R7
353E  FF          MOV	A,R7
353F  FF          MOV	A,R7
3540  FF          MOV	A,R7
3541  FF          MOV	A,R7
3542  FF          MOV	A,R7
3543  FF          MOV	A,R7
3544  FF          MOV	A,R7
3545  FF          MOV	A,R7
3546  FF          MOV	A,R7
3547  FF          MOV	A,R7
3548  FF          MOV	A,R7
3549  FF          MOV	A,R7
354A  FF          MOV	A,R7
354B  FF          MOV	A,R7
354C  FF          MOV	A,R7
354D  FF          MOV	A,R7
354E  FF          MOV	A,R7
354F  FF          MOV	A,R7
3550  FF          MOV	A,R7
3551  FF          MOV	A,R7
3552  FF          MOV	A,R7
3553  FF          MOV	A,R7
3554  FF          MOV	A,R7
3555  FF          MOV	A,R7
3556  FF          MOV	A,R7
3557  FF          MOV	A,R7
3558  FF          MOV	A,R7
3559  FF          MOV	A,R7
355A  FF          MOV	A,R7
355B  FF          MOV	A,R7
355C  FF          MOV	A,R7
355D  FF          MOV	A,R7
355E  FF          MOV	A,R7
355F  FF          MOV	A,R7
3560  FF          MOV	A,R7
3561  FF          MOV	A,R7
3562  FF          MOV	A,R7
3563  FF          MOV	A,R7
3564  FF          MOV	A,R7
3565  FF          MOV	A,R7
3566  FF          MOV	A,R7
3567  FF          MOV	A,R7
3568  FF          MOV	A,R7
3569  FF          MOV	A,R7
356A  FF          MOV	A,R7
356B  FF          MOV	A,R7
356C  FF          MOV	A,R7
356D  FF          MOV	A,R7
356E  FF          MOV	A,R7
356F  FF          MOV	A,R7
3570  FF          MOV	A,R7
3571  FF          MOV	A,R7
3572  FF          MOV	A,R7
3573  FF          MOV	A,R7
3574  FF          MOV	A,R7
3575  FF          MOV	A,R7
3576  FF          MOV	A,R7
3577  FF          MOV	A,R7
3578  FF          MOV	A,R7
3579  FF          MOV	A,R7
357A  FF          MOV	A,R7
357B  FF          MOV	A,R7
357C  FF          MOV	A,R7
357D  FF          MOV	A,R7
357E  FF          MOV	A,R7
357F  FF          MOV	A,R7
3580  FF          MOV	A,R7
3581  FF          MOV	A,R7
3582  FF          MOV	A,R7
3583  FF          MOV	A,R7
3584  FF          MOV	A,R7
3585  FF          MOV	A,R7
3586  FF          MOV	A,R7
3587  FF          MOV	A,R7
3588  FF          MOV	A,R7
3589  FF          MOV	A,R7
358A  FF          MOV	A,R7
358B  FF          MOV	A,R7
358C  FF          MOV	A,R7
358D  FF          MOV	A,R7
358E  FF          MOV	A,R7
358F  FF          MOV	A,R7
3590  FF          MOV	A,R7
3591  FF          MOV	A,R7
3592  FF          MOV	A,R7
3593  FF          MOV	A,R7
3594  FF          MOV	A,R7
3595  FF          MOV	A,R7
3596  FF          MOV	A,R7
3597  FF          MOV	A,R7
3598  FF          MOV	A,R7
3599  FF          MOV	A,R7
359A  FF          MOV	A,R7
359B  FF          MOV	A,R7
359C  FF          MOV	A,R7
359D  FF          MOV	A,R7
359E  FF          MOV	A,R7
359F  FF          MOV	A,R7
35A0  FF          MOV	A,R7
35A1  FF          MOV	A,R7
35A2  FF          MOV	A,R7
35A3  FF          MOV	A,R7
35A4  FF          MOV	A,R7
35A5  FF          MOV	A,R7
35A6  FF          MOV	A,R7
35A7  FF          MOV	A,R7
35A8  FF          MOV	A,R7
35A9  FF          MOV	A,R7
35AA  FF          MOV	A,R7
35AB  FF          MOV	A,R7
35AC  FF          MOV	A,R7
35AD  FF          MOV	A,R7
35AE  FF          MOV	A,R7
35AF  FF          MOV	A,R7
35B0  FF          MOV	A,R7
35B1  FF          MOV	A,R7
35B2  FF          MOV	A,R7
35B3  FF          MOV	A,R7
35B4  FF          MOV	A,R7
35B5  FF          MOV	A,R7
35B6  FF          MOV	A,R7
35B7  FF          MOV	A,R7
35B8  FF          MOV	A,R7
35B9  FF          MOV	A,R7
35BA  FF          MOV	A,R7
35BB  FF          MOV	A,R7
35BC  FF          MOV	A,R7
35BD  FF          MOV	A,R7
35BE  FF          MOV	A,R7
35BF  FF          MOV	A,R7
35C0  FF          MOV	A,R7
35C1  FF          MOV	A,R7
35C2  FF          MOV	A,R7
35C3  FF          MOV	A,R7
35C4  FF          MOV	A,R7
35C5  FF          MOV	A,R7
35C6  FF          MOV	A,R7
35C7  FF          MOV	A,R7
35C8  FF          MOV	A,R7
35C9  FF          MOV	A,R7
35CA  FF          MOV	A,R7
35CB  FF          MOV	A,R7
35CC  FF          MOV	A,R7
35CD  FF          MOV	A,R7
35CE  FF          MOV	A,R7
35CF  FF          MOV	A,R7
35D0  FF          MOV	A,R7
35D1  FF          MOV	A,R7
35D2  FF          MOV	A,R7
35D3  FF          MOV	A,R7
35D4  FF          MOV	A,R7
35D5  FF          MOV	A,R7
35D6  FF          MOV	A,R7
35D7  FF          MOV	A,R7
35D8  FF          MOV	A,R7
35D9  FF          MOV	A,R7
35DA  FF          MOV	A,R7
35DB  FF          MOV	A,R7
35DC  FF          MOV	A,R7
35DD  FF          MOV	A,R7
35DE  FF          MOV	A,R7
35DF  FF          MOV	A,R7
35E0  FF          MOV	A,R7
35E1  FF          MOV	A,R7
35E2  FF          MOV	A,R7
35E3  FF          MOV	A,R7
35E4  FF          MOV	A,R7
35E5  FF          MOV	A,R7
35E6  FF          MOV	A,R7
35E7  FF          MOV	A,R7
35E8  FF          MOV	A,R7
35E9  FF          MOV	A,R7
35EA  FF          MOV	A,R7
35EB  FF          MOV	A,R7
35EC  FF          MOV	A,R7
35ED  FF          MOV	A,R7
35EE  FF          MOV	A,R7
35EF  FF          MOV	A,R7
35F0  FF          MOV	A,R7
35F1  FF          MOV	A,R7
35F2  FF          MOV	A,R7
35F3  FF          MOV	A,R7
35F4  FF          MOV	A,R7
35F5  FF          MOV	A,R7
35F6  FF          MOV	A,R7
35F7  FF          MOV	A,R7
35F8  FF          MOV	A,R7
35F9  FF          MOV	A,R7
35FA  FF          MOV	A,R7
35FB  FF          MOV	A,R7
35FC  FF          MOV	A,R7
35FD  FF          MOV	A,R7
35FE  FF          MOV	A,R7
35FF  FF          MOV	A,R7
3600  FF          MOV	A,R7
3601  FF          MOV	A,R7
3602  FF          MOV	A,R7
3603  FF          MOV	A,R7
3604  FF          MOV	A,R7
3605  FF          MOV	A,R7
3606  FF          MOV	A,R7
3607  FF          MOV	A,R7
3608  FF          MOV	A,R7
3609  FF          MOV	A,R7
360A  FF          MOV	A,R7
360B  FF          MOV	A,R7
360C  FF          MOV	A,R7
360D  FF          MOV	A,R7
360E  FF          MOV	A,R7
360F  FF          MOV	A,R7
3610  FF          MOV	A,R7
3611  FF          MOV	A,R7
3612  FF          MOV	A,R7
3613  FF          MOV	A,R7
3614  FF          MOV	A,R7
3615  FF          MOV	A,R7
3616  FF          MOV	A,R7
3617  FF          MOV	A,R7
3618  FF          MOV	A,R7
3619  FF          MOV	A,R7
361A  FF          MOV	A,R7
361B  FF          MOV	A,R7
361C  FF          MOV	A,R7
361D  FF          MOV	A,R7
361E  FF          MOV	A,R7
361F  FF          MOV	A,R7
3620  FF          MOV	A,R7
3621  FF          MOV	A,R7
3622  FF          MOV	A,R7
3623  FF          MOV	A,R7
3624  FF          MOV	A,R7
3625  FF          MOV	A,R7
3626  FF          MOV	A,R7
3627  FF          MOV	A,R7
3628  FF          MOV	A,R7
3629  FF          MOV	A,R7
362A  FF          MOV	A,R7
362B  FF          MOV	A,R7
362C  FF          MOV	A,R7
362D  FF          MOV	A,R7
362E  FF          MOV	A,R7
362F  FF          MOV	A,R7
3630  FF          MOV	A,R7
3631  FF          MOV	A,R7
3632  FF          MOV	A,R7
3633  FF          MOV	A,R7
3634  FF          MOV	A,R7
3635  FF          MOV	A,R7
3636  FF          MOV	A,R7
3637  FF          MOV	A,R7
3638  FF          MOV	A,R7
3639  FF          MOV	A,R7
363A  FF          MOV	A,R7
363B  FF          MOV	A,R7
363C  FF          MOV	A,R7
363D  FF          MOV	A,R7
363E  FF          MOV	A,R7
363F  FF          MOV	A,R7
3640  FF          MOV	A,R7
3641  FF          MOV	A,R7
3642  FF          MOV	A,R7
3643  FF          MOV	A,R7
3644  FF          MOV	A,R7
3645  FF          MOV	A,R7
3646  FF          MOV	A,R7
3647  FF          MOV	A,R7
3648  FF          MOV	A,R7
3649  FF          MOV	A,R7
364A  FF          MOV	A,R7
364B  FF          MOV	A,R7
364C  FF          MOV	A,R7
364D  FF          MOV	A,R7
364E  FF          MOV	A,R7
364F  FF          MOV	A,R7
3650  FF          MOV	A,R7
3651  FF          MOV	A,R7
3652  FF          MOV	A,R7
3653  FF          MOV	A,R7
3654  FF          MOV	A,R7
3655  FF          MOV	A,R7
3656  FF          MOV	A,R7
3657  FF          MOV	A,R7
3658  FF          MOV	A,R7
3659  FF          MOV	A,R7
365A  FF          MOV	A,R7
365B  FF          MOV	A,R7
365C  FF          MOV	A,R7
365D  FF          MOV	A,R7
365E  FF          MOV	A,R7
365F  FF          MOV	A,R7
3660  FF          MOV	A,R7
3661  FF          MOV	A,R7
3662  FF          MOV	A,R7
3663  FF          MOV	A,R7
3664  FF          MOV	A,R7
3665  FF          MOV	A,R7
3666  FF          MOV	A,R7
3667  FF          MOV	A,R7
3668  FF          MOV	A,R7
3669  FF          MOV	A,R7
366A  FF          MOV	A,R7
366B  FF          MOV	A,R7
366C  FF          MOV	A,R7
366D  FF          MOV	A,R7
366E  FF          MOV	A,R7
366F  FF          MOV	A,R7
3670  FF          MOV	A,R7
3671  FF          MOV	A,R7
3672  FF          MOV	A,R7
3673  FF          MOV	A,R7
3674  FF          MOV	A,R7
3675  FF          MOV	A,R7
3676  FF          MOV	A,R7
3677  FF          MOV	A,R7
3678  FF          MOV	A,R7
3679  FF          MOV	A,R7
367A  FF          MOV	A,R7
367B  FF          MOV	A,R7
367C  FF          MOV	A,R7
367D  FF          MOV	A,R7
367E  FF          MOV	A,R7
367F  FF          MOV	A,R7
3680  FF          MOV	A,R7
3681  FF          MOV	A,R7
3682  FF          MOV	A,R7
3683  FF          MOV	A,R7
3684  FF          MOV	A,R7
3685  FF          MOV	A,R7
3686  FF          MOV	A,R7
3687  FF          MOV	A,R7
3688  FF          MOV	A,R7
3689  FF          MOV	A,R7
368A  FF          MOV	A,R7
368B  FF          MOV	A,R7
368C  FF          MOV	A,R7
368D  FF          MOV	A,R7
368E  FF          MOV	A,R7
368F  FF          MOV	A,R7
3690  FF          MOV	A,R7
3691  FF          MOV	A,R7
3692  FF          MOV	A,R7
3693  FF          MOV	A,R7
3694  FF          MOV	A,R7
3695  FF          MOV	A,R7
3696  FF          MOV	A,R7
3697  FF          MOV	A,R7
3698  FF          MOV	A,R7
3699  FF          MOV	A,R7
369A  FF          MOV	A,R7
369B  FF          MOV	A,R7
369C  FF          MOV	A,R7
369D  FF          MOV	A,R7
369E  FF          MOV	A,R7
369F  FF          MOV	A,R7
36A0  FF          MOV	A,R7
36A1  FF          MOV	A,R7
36A2  FF          MOV	A,R7
36A3  FF          MOV	A,R7
36A4  FF          MOV	A,R7
36A5  FF          MOV	A,R7
36A6  FF          MOV	A,R7
36A7  FF          MOV	A,R7
36A8  FF          MOV	A,R7
36A9  FF          MOV	A,R7
36AA  FF          MOV	A,R7
36AB  FF          MOV	A,R7
36AC  FF          MOV	A,R7
36AD  FF          MOV	A,R7
36AE  FF          MOV	A,R7
36AF  FF          MOV	A,R7
36B0  FF          MOV	A,R7
36B1  FF          MOV	A,R7
36B2  FF          MOV	A,R7
36B3  FF          MOV	A,R7
36B4  FF          MOV	A,R7
36B5  FF          MOV	A,R7
36B6  FF          MOV	A,R7
36B7  FF          MOV	A,R7
36B8  FF          MOV	A,R7
36B9  FF          MOV	A,R7
36BA  FF          MOV	A,R7
36BB  FF          MOV	A,R7
36BC  FF          MOV	A,R7
36BD  FF          MOV	A,R7
36BE  FF          MOV	A,R7
36BF  FF          MOV	A,R7
36C0  FF          MOV	A,R7
36C1  FF          MOV	A,R7
36C2  FF          MOV	A,R7
36C3  FF          MOV	A,R7
36C4  FF          MOV	A,R7
36C5  FF          MOV	A,R7
36C6  FF          MOV	A,R7
36C7  FF          MOV	A,R7
36C8  FF          MOV	A,R7
36C9  FF          MOV	A,R7
36CA  FF          MOV	A,R7
36CB  FF          MOV	A,R7
36CC  FF          MOV	A,R7
36CD  FF          MOV	A,R7
36CE  FF          MOV	A,R7
36CF  FF          MOV	A,R7
36D0  FF          MOV	A,R7
36D1  FF          MOV	A,R7
36D2  FF          MOV	A,R7
36D3  FF          MOV	A,R7
36D4  FF          MOV	A,R7
36D5  FF          MOV	A,R7
36D6  FF          MOV	A,R7
36D7  FF          MOV	A,R7
36D8  FF          MOV	A,R7
36D9  FF          MOV	A,R7
36DA  FF          MOV	A,R7
36DB  FF          MOV	A,R7
36DC  FF          MOV	A,R7
36DD  FF          MOV	A,R7
36DE  FF          MOV	A,R7
36DF  FF          MOV	A,R7
36E0  FF          MOV	A,R7
36E1  FF          MOV	A,R7
36E2  FF          MOV	A,R7
36E3  FF          MOV	A,R7
36E4  FF          MOV	A,R7
36E5  FF          MOV	A,R7
36E6  FF          MOV	A,R7
36E7  FF          MOV	A,R7
36E8  FF          MOV	A,R7
36E9  FF          MOV	A,R7
36EA  FF          MOV	A,R7
36EB  FF          MOV	A,R7
36EC  FF          MOV	A,R7
36ED  FF          MOV	A,R7
36EE  FF          MOV	A,R7
36EF  FF          MOV	A,R7
36F0  FF          MOV	A,R7
36F1  FF          MOV	A,R7
36F2  FF          MOV	A,R7
36F3  FF          MOV	A,R7
36F4  FF          MOV	A,R7
36F5  FF          MOV	A,R7
36F6  FF          MOV	A,R7
36F7  FF          MOV	A,R7
36F8  FF          MOV	A,R7
36F9  FF          MOV	A,R7
36FA  FF          MOV	A,R7
36FB  FF          MOV	A,R7
36FC  FF          MOV	A,R7
36FD  FF          MOV	A,R7
36FE  FF          MOV	A,R7
36FF  FF          MOV	A,R7
3700  FF          MOV	A,R7
3701  FF          MOV	A,R7
3702  FF          MOV	A,R7
3703  FF          MOV	A,R7
3704  FF          MOV	A,R7
3705  FF          MOV	A,R7
3706  FF          MOV	A,R7
3707  FF          MOV	A,R7
3708  FF          MOV	A,R7
3709  FF          MOV	A,R7
370A  FF          MOV	A,R7
370B  FF          MOV	A,R7
370C  FF          MOV	A,R7
370D  FF          MOV	A,R7
370E  FF          MOV	A,R7
370F  FF          MOV	A,R7
3710  FF          MOV	A,R7
3711  FF          MOV	A,R7
3712  FF          MOV	A,R7
3713  FF          MOV	A,R7
3714  FF          MOV	A,R7
3715  FF          MOV	A,R7
3716  FF          MOV	A,R7
3717  FF          MOV	A,R7
3718  FF          MOV	A,R7
3719  FF          MOV	A,R7
371A  FF          MOV	A,R7
371B  FF          MOV	A,R7
371C  FF          MOV	A,R7
371D  FF          MOV	A,R7
371E  FF          MOV	A,R7
371F  FF          MOV	A,R7
3720  FF          MOV	A,R7
3721  FF          MOV	A,R7
3722  FF          MOV	A,R7
3723  FF          MOV	A,R7
3724  FF          MOV	A,R7
3725  FF          MOV	A,R7
3726  FF          MOV	A,R7
3727  FF          MOV	A,R7
3728  FF          MOV	A,R7
3729  FF          MOV	A,R7
372A  FF          MOV	A,R7
372B  FF          MOV	A,R7
372C  FF          MOV	A,R7
372D  FF          MOV	A,R7
372E  FF          MOV	A,R7
372F  FF          MOV	A,R7
3730  FF          MOV	A,R7
3731  FF          MOV	A,R7
3732  FF          MOV	A,R7
3733  FF          MOV	A,R7
3734  FF          MOV	A,R7
3735  FF          MOV	A,R7
3736  FF          MOV	A,R7
3737  FF          MOV	A,R7
3738  FF          MOV	A,R7
3739  FF          MOV	A,R7
373A  FF          MOV	A,R7
373B  FF          MOV	A,R7
373C  FF          MOV	A,R7
373D  FF          MOV	A,R7
373E  FF          MOV	A,R7
373F  FF          MOV	A,R7
3740  FF          MOV	A,R7
3741  FF          MOV	A,R7
3742  FF          MOV	A,R7
3743  FF          MOV	A,R7
3744  FF          MOV	A,R7
3745  FF          MOV	A,R7
3746  FF          MOV	A,R7
3747  FF          MOV	A,R7
3748  FF          MOV	A,R7
3749  FF          MOV	A,R7
374A  FF          MOV	A,R7
374B  FF          MOV	A,R7
374C  FF          MOV	A,R7
374D  FF          MOV	A,R7
374E  FF          MOV	A,R7
374F  FF          MOV	A,R7
3750  FF          MOV	A,R7
3751  FF          MOV	A,R7
3752  FF          MOV	A,R7
3753  FF          MOV	A,R7
3754  FF          MOV	A,R7
3755  FF          MOV	A,R7
3756  FF          MOV	A,R7
3757  FF          MOV	A,R7
3758  FF          MOV	A,R7
3759  FF          MOV	A,R7
375A  FF          MOV	A,R7
375B  FF          MOV	A,R7
375C  FF          MOV	A,R7
375D  FF          MOV	A,R7
375E  FF          MOV	A,R7
375F  FF          MOV	A,R7
3760  FF          MOV	A,R7
3761  FF          MOV	A,R7
3762  FF          MOV	A,R7
3763  FF          MOV	A,R7
3764  FF          MOV	A,R7
3765  FF          MOV	A,R7
3766  FF          MOV	A,R7
3767  FF          MOV	A,R7
3768  FF          MOV	A,R7
3769  FF          MOV	A,R7
376A  FF          MOV	A,R7
376B  FF          MOV	A,R7
376C  FF          MOV	A,R7
376D  FF          MOV	A,R7
376E  FF          MOV	A,R7
376F  FF          MOV	A,R7
3770  FF          MOV	A,R7
3771  FF          MOV	A,R7
3772  FF          MOV	A,R7
3773  FF          MOV	A,R7
3774  FF          MOV	A,R7
3775  FF          MOV	A,R7
3776  FF          MOV	A,R7
3777  FF          MOV	A,R7
3778  FF          MOV	A,R7
3779  FF          MOV	A,R7
377A  FF          MOV	A,R7
377B  FF          MOV	A,R7
377C  FF          MOV	A,R7
377D  FF          MOV	A,R7
377E  FF          MOV	A,R7
377F  FF          MOV	A,R7
3780  FF          MOV	A,R7
3781  FF          MOV	A,R7
3782  FF          MOV	A,R7
3783  FF          MOV	A,R7
3784  FF          MOV	A,R7
3785  FF          MOV	A,R7
3786  FF          MOV	A,R7
3787  FF          MOV	A,R7
3788  FF          MOV	A,R7
3789  FF          MOV	A,R7
378A  FF          MOV	A,R7
378B  FF          MOV	A,R7
378C  FF          MOV	A,R7
378D  FF          MOV	A,R7
378E  FF          MOV	A,R7
378F  FF          MOV	A,R7
3790  FF          MOV	A,R7
3791  FF          MOV	A,R7
3792  FF          MOV	A,R7
3793  FF          MOV	A,R7
3794  FF          MOV	A,R7
3795  FF          MOV	A,R7
3796  FF          MOV	A,R7
3797  FF          MOV	A,R7
3798  FF          MOV	A,R7
3799  FF          MOV	A,R7
379A  FF          MOV	A,R7
379B  FF          MOV	A,R7
379C  FF          MOV	A,R7
379D  FF          MOV	A,R7
379E  FF          MOV	A,R7
379F  FF          MOV	A,R7
37A0  FF          MOV	A,R7
37A1  FF          MOV	A,R7
37A2  FF          MOV	A,R7
37A3  FF          MOV	A,R7
37A4  FF          MOV	A,R7
37A5  FF          MOV	A,R7
37A6  FF          MOV	A,R7
37A7  FF          MOV	A,R7
37A8  FF          MOV	A,R7
37A9  FF          MOV	A,R7
37AA  FF          MOV	A,R7
37AB  FF          MOV	A,R7
37AC  FF          MOV	A,R7
37AD  FF          MOV	A,R7
37AE  FF          MOV	A,R7
37AF  FF          MOV	A,R7
37B0  FF          MOV	A,R7
37B1  FF          MOV	A,R7
37B2  FF          MOV	A,R7
37B3  FF          MOV	A,R7
37B4  FF          MOV	A,R7
37B5  FF          MOV	A,R7
37B6  FF          MOV	A,R7
37B7  FF          MOV	A,R7
37B8  FF          MOV	A,R7
37B9  FF          MOV	A,R7
37BA  FF          MOV	A,R7
37BB  FF          MOV	A,R7
37BC  FF          MOV	A,R7
37BD  FF          MOV	A,R7
37BE  FF          MOV	A,R7
37BF  FF          MOV	A,R7
37C0  FF          MOV	A,R7
37C1  FF          MOV	A,R7
37C2  FF          MOV	A,R7
37C3  FF          MOV	A,R7
37C4  FF          MOV	A,R7
37C5  FF          MOV	A,R7
37C6  FF          MOV	A,R7
37C7  FF          MOV	A,R7
37C8  FF          MOV	A,R7
37C9  FF          MOV	A,R7
37CA  FF          MOV	A,R7
37CB  FF          MOV	A,R7
37CC  FF          MOV	A,R7
37CD  FF          MOV	A,R7
37CE  FF          MOV	A,R7
37CF  FF          MOV	A,R7
37D0  FF          MOV	A,R7
37D1  FF          MOV	A,R7
37D2  FF          MOV	A,R7
37D3  FF          MOV	A,R7
37D4  FF          MOV	A,R7
37D5  FF          MOV	A,R7
37D6  FF          MOV	A,R7
37D7  FF          MOV	A,R7
37D8  FF          MOV	A,R7
37D9  FF          MOV	A,R7
37DA  FF          MOV	A,R7
37DB  FF          MOV	A,R7
37DC  FF          MOV	A,R7
37DD  FF          MOV	A,R7
37DE  FF          MOV	A,R7
37DF  FF          MOV	A,R7
37E0  FF          MOV	A,R7
37E1  FF          MOV	A,R7
37E2  FF          MOV	A,R7
37E3  FF          MOV	A,R7
37E4  FF          MOV	A,R7
37E5  FF          MOV	A,R7
37E6  FF          MOV	A,R7
37E7  FF          MOV	A,R7
37E8  FF          MOV	A,R7
37E9  FF          MOV	A,R7
37EA  FF          MOV	A,R7
37EB  FF          MOV	A,R7
37EC  FF          MOV	A,R7
37ED  FF          MOV	A,R7
37EE  FF          MOV	A,R7
37EF  FF          MOV	A,R7
37F0  FF          MOV	A,R7
37F1  FF          MOV	A,R7
37F2  FF          MOV	A,R7
37F3  FF          MOV	A,R7
37F4  FF          MOV	A,R7
37F5  FF          MOV	A,R7
37F6  FF          MOV	A,R7
37F7  FF          MOV	A,R7
37F8  FF          MOV	A,R7
37F9  FF          MOV	A,R7
37FA  FF          MOV	A,R7
37FB  FF          MOV	A,R7
37FC  FF          MOV	A,R7
37FD  FF          MOV	A,R7
37FE  FF          MOV	A,R7
37FF  FF          MOV	A,R7
3800  FF          MOV	A,R7
3801  FF          MOV	A,R7
3802  FF          MOV	A,R7
3803  FF          MOV	A,R7
3804  FF          MOV	A,R7
3805  FF          MOV	A,R7
3806  FF          MOV	A,R7
3807  FF          MOV	A,R7
3808  FF          MOV	A,R7
3809  FF          MOV	A,R7
380A  FF          MOV	A,R7
380B  FF          MOV	A,R7
380C  FF          MOV	A,R7
380D  FF          MOV	A,R7
380E  FF          MOV	A,R7
380F  FF          MOV	A,R7
3810  FF          MOV	A,R7
3811  FF          MOV	A,R7
3812  FF          MOV	A,R7
3813  FF          MOV	A,R7
3814  FF          MOV	A,R7
3815  FF          MOV	A,R7
3816  FF          MOV	A,R7
3817  FF          MOV	A,R7
3818  FF          MOV	A,R7
3819  FF          MOV	A,R7
381A  FF          MOV	A,R7
381B  FF          MOV	A,R7
381C  FF          MOV	A,R7
381D  FF          MOV	A,R7
381E  FF          MOV	A,R7
381F  FF          MOV	A,R7
3820  FF          MOV	A,R7
3821  FF          MOV	A,R7
3822  FF          MOV	A,R7
3823  FF          MOV	A,R7
3824  FF          MOV	A,R7
3825  FF          MOV	A,R7
3826  FF          MOV	A,R7
3827  FF          MOV	A,R7
3828  FF          MOV	A,R7
3829  FF          MOV	A,R7
382A  FF          MOV	A,R7
382B  FF          MOV	A,R7
382C  FF          MOV	A,R7
382D  FF          MOV	A,R7
382E  FF          MOV	A,R7
382F  FF          MOV	A,R7
3830  FF          MOV	A,R7
3831  FF          MOV	A,R7
3832  FF          MOV	A,R7
3833  FF          MOV	A,R7
3834  FF          MOV	A,R7
3835  FF          MOV	A,R7
3836  FF          MOV	A,R7
3837  FF          MOV	A,R7
3838  FF          MOV	A,R7
3839  FF          MOV	A,R7
383A  FF          MOV	A,R7
383B  FF          MOV	A,R7
383C  FF          MOV	A,R7
383D  FF          MOV	A,R7
383E  FF          MOV	A,R7
383F  FF          MOV	A,R7
3840  FF          MOV	A,R7
3841  FF          MOV	A,R7
3842  FF          MOV	A,R7
3843  FF          MOV	A,R7
3844  FF          MOV	A,R7
3845  FF          MOV	A,R7
3846  FF          MOV	A,R7
3847  FF          MOV	A,R7
3848  FF          MOV	A,R7
3849  FF          MOV	A,R7
384A  FF          MOV	A,R7
384B  FF          MOV	A,R7
384C  FF          MOV	A,R7
384D  FF          MOV	A,R7
384E  FF          MOV	A,R7
384F  FF          MOV	A,R7
3850  FF          MOV	A,R7
3851  FF          MOV	A,R7
3852  FF          MOV	A,R7
3853  FF          MOV	A,R7
3854  FF          MOV	A,R7
3855  FF          MOV	A,R7
3856  FF          MOV	A,R7
3857  FF          MOV	A,R7
3858  FF          MOV	A,R7
3859  FF          MOV	A,R7
385A  FF          MOV	A,R7
385B  FF          MOV	A,R7
385C  FF          MOV	A,R7
385D  FF          MOV	A,R7
385E  FF          MOV	A,R7
385F  FF          MOV	A,R7
3860  FF          MOV	A,R7
3861  FF          MOV	A,R7
3862  FF          MOV	A,R7
3863  FF          MOV	A,R7
3864  FF          MOV	A,R7
3865  FF          MOV	A,R7
3866  FF          MOV	A,R7
3867  FF          MOV	A,R7
3868  FF          MOV	A,R7
3869  FF          MOV	A,R7
386A  FF          MOV	A,R7
386B  FF          MOV	A,R7
386C  FF          MOV	A,R7
386D  FF          MOV	A,R7
386E  FF          MOV	A,R7
386F  FF          MOV	A,R7
3870  FF          MOV	A,R7
3871  FF          MOV	A,R7
3872  FF          MOV	A,R7
3873  FF          MOV	A,R7
3874  FF          MOV	A,R7
3875  FF          MOV	A,R7
3876  FF          MOV	A,R7
3877  FF          MOV	A,R7
3878  FF          MOV	A,R7
3879  FF          MOV	A,R7
387A  FF          MOV	A,R7
387B  FF          MOV	A,R7
387C  FF          MOV	A,R7
387D  FF          MOV	A,R7
387E  FF          MOV	A,R7
387F  FF          MOV	A,R7
3880  FF          MOV	A,R7
3881  FF          MOV	A,R7
3882  FF          MOV	A,R7
3883  FF          MOV	A,R7
3884  FF          MOV	A,R7
3885  FF          MOV	A,R7
3886  FF          MOV	A,R7
3887  FF          MOV	A,R7
3888  FF          MOV	A,R7
3889  FF          MOV	A,R7
388A  FF          MOV	A,R7
388B  FF          MOV	A,R7
388C  FF          MOV	A,R7
388D  FF          MOV	A,R7
388E  FF          MOV	A,R7
388F  FF          MOV	A,R7
3890  FF          MOV	A,R7
3891  FF          MOV	A,R7
3892  FF          MOV	A,R7
3893  FF          MOV	A,R7
3894  FF          MOV	A,R7
3895  FF          MOV	A,R7
3896  FF          MOV	A,R7
3897  FF          MOV	A,R7
3898  FF          MOV	A,R7
3899  FF          MOV	A,R7
389A  FF          MOV	A,R7
389B  FF          MOV	A,R7
389C  FF          MOV	A,R7
389D  FF          MOV	A,R7
389E  FF          MOV	A,R7
389F  FF          MOV	A,R7
38A0  FF          MOV	A,R7
38A1  FF          MOV	A,R7
38A2  FF          MOV	A,R7
38A3  FF          MOV	A,R7
38A4  FF          MOV	A,R7
38A5  FF          MOV	A,R7
38A6  FF          MOV	A,R7
38A7  FF          MOV	A,R7
38A8  FF          MOV	A,R7
38A9  FF          MOV	A,R7
38AA  FF          MOV	A,R7
38AB  FF          MOV	A,R7
38AC  FF          MOV	A,R7
38AD  FF          MOV	A,R7
38AE  FF          MOV	A,R7
38AF  FF          MOV	A,R7
38B0  FF          MOV	A,R7
38B1  FF          MOV	A,R7
38B2  FF          MOV	A,R7
38B3  FF          MOV	A,R7
38B4  FF          MOV	A,R7
38B5  FF          MOV	A,R7
38B6  FF          MOV	A,R7
38B7  FF          MOV	A,R7
38B8  FF          MOV	A,R7
38B9  FF          MOV	A,R7
38BA  FF          MOV	A,R7
38BB  FF          MOV	A,R7
38BC  FF          MOV	A,R7
38BD  FF          MOV	A,R7
38BE  FF          MOV	A,R7
38BF  FF          MOV	A,R7
38C0  FF          MOV	A,R7
38C1  FF          MOV	A,R7
38C2  FF          MOV	A,R7
38C3  FF          MOV	A,R7
38C4  FF          MOV	A,R7
38C5  FF          MOV	A,R7
38C6  FF          MOV	A,R7
38C7  FF          MOV	A,R7
38C8  FF          MOV	A,R7
38C9  FF          MOV	A,R7
38CA  FF          MOV	A,R7
38CB  FF          MOV	A,R7
38CC  FF          MOV	A,R7
38CD  FF          MOV	A,R7
38CE  FF          MOV	A,R7
38CF  FF          MOV	A,R7
38D0  FF          MOV	A,R7
38D1  FF          MOV	A,R7
38D2  FF          MOV	A,R7
38D3  FF          MOV	A,R7
38D4  FF          MOV	A,R7
38D5  FF          MOV	A,R7
38D6  FF          MOV	A,R7
38D7  FF          MOV	A,R7
38D8  FF          MOV	A,R7
38D9  FF          MOV	A,R7
38DA  FF          MOV	A,R7
38DB  FF          MOV	A,R7
38DC  FF          MOV	A,R7
38DD  FF          MOV	A,R7
38DE  FF          MOV	A,R7
38DF  FF          MOV	A,R7
38E0  FF          MOV	A,R7
38E1  FF          MOV	A,R7
38E2  FF          MOV	A,R7
38E3  FF          MOV	A,R7
38E4  FF          MOV	A,R7
38E5  FF          MOV	A,R7
38E6  FF          MOV	A,R7
38E7  FF          MOV	A,R7
38E8  FF          MOV	A,R7
38E9  FF          MOV	A,R7
38EA  FF          MOV	A,R7
38EB  FF          MOV	A,R7
38EC  FF          MOV	A,R7
38ED  FF          MOV	A,R7
38EE  FF          MOV	A,R7
38EF  FF          MOV	A,R7
38F0  FF          MOV	A,R7
38F1  FF          MOV	A,R7
38F2  FF          MOV	A,R7
38F3  FF          MOV	A,R7
38F4  FF          MOV	A,R7
38F5  FF          MOV	A,R7
38F6  FF          MOV	A,R7
38F7  FF          MOV	A,R7
38F8  FF          MOV	A,R7
38F9  FF          MOV	A,R7
38FA  FF          MOV	A,R7
38FB  FF          MOV	A,R7
38FC  FF          MOV	A,R7
38FD  FF          MOV	A,R7
38FE  FF          MOV	A,R7
38FF  FF          MOV	A,R7
3900  FF          MOV	A,R7
3901  FF          MOV	A,R7
3902  FF          MOV	A,R7
3903  FF          MOV	A,R7
3904  FF          MOV	A,R7
3905  FF          MOV	A,R7
3906  FF          MOV	A,R7
3907  FF          MOV	A,R7
3908  FF          MOV	A,R7
3909  FF          MOV	A,R7
390A  FF          MOV	A,R7
390B  FF          MOV	A,R7
390C  FF          MOV	A,R7
390D  FF          MOV	A,R7
390E  FF          MOV	A,R7
390F  FF          MOV	A,R7
3910  FF          MOV	A,R7
3911  FF          MOV	A,R7
3912  FF          MOV	A,R7
3913  FF          MOV	A,R7
3914  FF          MOV	A,R7
3915  FF          MOV	A,R7
3916  FF          MOV	A,R7
3917  FF          MOV	A,R7
3918  FF          MOV	A,R7
3919  FF          MOV	A,R7
391A  FF          MOV	A,R7
391B  FF          MOV	A,R7
391C  FF          MOV	A,R7
391D  FF          MOV	A,R7
391E  FF          MOV	A,R7
391F  FF          MOV	A,R7
3920  FF          MOV	A,R7
3921  FF          MOV	A,R7
3922  FF          MOV	A,R7
3923  FF          MOV	A,R7
3924  FF          MOV	A,R7
3925  FF          MOV	A,R7
3926  FF          MOV	A,R7
3927  FF          MOV	A,R7
3928  FF          MOV	A,R7
3929  FF          MOV	A,R7
392A  FF          MOV	A,R7
392B  FF          MOV	A,R7
392C  FF          MOV	A,R7
392D  FF          MOV	A,R7
392E  FF          MOV	A,R7
392F  FF          MOV	A,R7
3930  FF          MOV	A,R7
3931  FF          MOV	A,R7
3932  FF          MOV	A,R7
3933  FF          MOV	A,R7
3934  FF          MOV	A,R7
3935  FF          MOV	A,R7
3936  FF          MOV	A,R7
3937  FF          MOV	A,R7
3938  FF          MOV	A,R7
3939  FF          MOV	A,R7
393A  FF          MOV	A,R7
393B  FF          MOV	A,R7
393C  FF          MOV	A,R7
393D  FF          MOV	A,R7
393E  FF          MOV	A,R7
393F  FF          MOV	A,R7
3940  FF          MOV	A,R7
3941  FF          MOV	A,R7
3942  FF          MOV	A,R7
3943  FF          MOV	A,R7
3944  FF          MOV	A,R7
3945  FF          MOV	A,R7
3946  FF          MOV	A,R7
3947  FF          MOV	A,R7
3948  FF          MOV	A,R7
3949  FF          MOV	A,R7
394A  FF          MOV	A,R7
394B  FF          MOV	A,R7
394C  FF          MOV	A,R7
394D  FF          MOV	A,R7
394E  FF          MOV	A,R7
394F  FF          MOV	A,R7
3950  FF          MOV	A,R7
3951  FF          MOV	A,R7
3952  FF          MOV	A,R7
3953  FF          MOV	A,R7
3954  FF          MOV	A,R7
3955  FF          MOV	A,R7
3956  FF          MOV	A,R7
3957  FF          MOV	A,R7
3958  FF          MOV	A,R7
3959  FF          MOV	A,R7
395A  FF          MOV	A,R7
395B  FF          MOV	A,R7
395C  FF          MOV	A,R7
395D  FF          MOV	A,R7
395E  FF          MOV	A,R7
395F  FF          MOV	A,R7
3960  FF          MOV	A,R7
3961  FF          MOV	A,R7
3962  FF          MOV	A,R7
3963  FF          MOV	A,R7
3964  FF          MOV	A,R7
3965  FF          MOV	A,R7
3966  FF          MOV	A,R7
3967  FF          MOV	A,R7
3968  FF          MOV	A,R7
3969  FF          MOV	A,R7
396A  FF          MOV	A,R7
396B  FF          MOV	A,R7
396C  FF          MOV	A,R7
396D  FF          MOV	A,R7
396E  FF          MOV	A,R7
396F  FF          MOV	A,R7
3970  FF          MOV	A,R7
3971  FF          MOV	A,R7
3972  FF          MOV	A,R7
3973  FF          MOV	A,R7
3974  FF          MOV	A,R7
3975  FF          MOV	A,R7
3976  FF          MOV	A,R7
3977  FF          MOV	A,R7
3978  FF          MOV	A,R7
3979  FF          MOV	A,R7
397A  FF          MOV	A,R7
397B  FF          MOV	A,R7
397C  FF          MOV	A,R7
397D  FF          MOV	A,R7
397E  FF          MOV	A,R7
397F  FF          MOV	A,R7
3980  FF          MOV	A,R7
3981  FF          MOV	A,R7
3982  FF          MOV	A,R7
3983  FF          MOV	A,R7
3984  FF          MOV	A,R7
3985  FF          MOV	A,R7
3986  FF          MOV	A,R7
3987  FF          MOV	A,R7
3988  FF          MOV	A,R7
3989  FF          MOV	A,R7
398A  FF          MOV	A,R7
398B  FF          MOV	A,R7
398C  FF          MOV	A,R7
398D  FF          MOV	A,R7
398E  FF          MOV	A,R7
398F  FF          MOV	A,R7
3990  FF          MOV	A,R7
3991  FF          MOV	A,R7
3992  FF          MOV	A,R7
3993  FF          MOV	A,R7
3994  FF          MOV	A,R7
3995  FF          MOV	A,R7
3996  FF          MOV	A,R7
3997  FF          MOV	A,R7
3998  FF          MOV	A,R7
3999  FF          MOV	A,R7
399A  FF          MOV	A,R7
399B  FF          MOV	A,R7
399C  FF          MOV	A,R7
399D  FF          MOV	A,R7
399E  FF          MOV	A,R7
399F  FF          MOV	A,R7
39A0  FF          MOV	A,R7
39A1  FF          MOV	A,R7
39A2  FF          MOV	A,R7
39A3  FF          MOV	A,R7
39A4  FF          MOV	A,R7
39A5  FF          MOV	A,R7
39A6  FF          MOV	A,R7
39A7  FF          MOV	A,R7
39A8  FF          MOV	A,R7
39A9  FF          MOV	A,R7
39AA  FF          MOV	A,R7
39AB  FF          MOV	A,R7
39AC  FF          MOV	A,R7
39AD  FF          MOV	A,R7
39AE  FF          MOV	A,R7
39AF  FF          MOV	A,R7
39B0  FF          MOV	A,R7
39B1  FF          MOV	A,R7
39B2  FF          MOV	A,R7
39B3  FF          MOV	A,R7
39B4  FF          MOV	A,R7
39B5  FF          MOV	A,R7
39B6  FF          MOV	A,R7
39B7  FF          MOV	A,R7
39B8  FF          MOV	A,R7
39B9  FF          MOV	A,R7
39BA  FF          MOV	A,R7
39BB  FF          MOV	A,R7
39BC  FF          MOV	A,R7
39BD  FF          MOV	A,R7
39BE  FF          MOV	A,R7
39BF  FF          MOV	A,R7
39C0  FF          MOV	A,R7
39C1  FF          MOV	A,R7
39C2  FF          MOV	A,R7
39C3  FF          MOV	A,R7
39C4  FF          MOV	A,R7
39C5  FF          MOV	A,R7
39C6  FF          MOV	A,R7
39C7  FF          MOV	A,R7
39C8  FF          MOV	A,R7
39C9  FF          MOV	A,R7
39CA  FF          MOV	A,R7
39CB  FF          MOV	A,R7
39CC  FF          MOV	A,R7
39CD  FF          MOV	A,R7
39CE  FF          MOV	A,R7
39CF  FF          MOV	A,R7
39D0  FF          MOV	A,R7
39D1  FF          MOV	A,R7
39D2  FF          MOV	A,R7
39D3  FF          MOV	A,R7
39D4  FF          MOV	A,R7
39D5  FF          MOV	A,R7
39D6  FF          MOV	A,R7
39D7  FF          MOV	A,R7
39D8  FF          MOV	A,R7
39D9  FF          MOV	A,R7
39DA  FF          MOV	A,R7
39DB  FF          MOV	A,R7
39DC  FF          MOV	A,R7
39DD  FF          MOV	A,R7
39DE  FF          MOV	A,R7
39DF  FF          MOV	A,R7
39E0  FF          MOV	A,R7
39E1  FF          MOV	A,R7
39E2  FF          MOV	A,R7
39E3  FF          MOV	A,R7
39E4  FF          MOV	A,R7
39E5  FF          MOV	A,R7
39E6  FF          MOV	A,R7
39E7  FF          MOV	A,R7
39E8  FF          MOV	A,R7
39E9  FF          MOV	A,R7
39EA  FF          MOV	A,R7
39EB  FF          MOV	A,R7
39EC  FF          MOV	A,R7
39ED  FF          MOV	A,R7
39EE  FF          MOV	A,R7
39EF  FF          MOV	A,R7
39F0  FF          MOV	A,R7
39F1  FF          MOV	A,R7
39F2  FF          MOV	A,R7
39F3  FF          MOV	A,R7
39F4  FF          MOV	A,R7
39F5  FF          MOV	A,R7
39F6  FF          MOV	A,R7
39F7  FF          MOV	A,R7
39F8  FF          MOV	A,R7
39F9  FF          MOV	A,R7
39FA  FF          MOV	A,R7
39FB  FF          MOV	A,R7
39FC  FF          MOV	A,R7
39FD  FF          MOV	A,R7
39FE  FF          MOV	A,R7
39FF  FF          MOV	A,R7
3A00  FF          MOV	A,R7
3A01  FF          MOV	A,R7
3A02  FF          MOV	A,R7
3A03  FF          MOV	A,R7
3A04  FF          MOV	A,R7
3A05  FF          MOV	A,R7
3A06  FF          MOV	A,R7
3A07  FF          MOV	A,R7
3A08  FF          MOV	A,R7
3A09  FF          MOV	A,R7
3A0A  FF          MOV	A,R7
3A0B  FF          MOV	A,R7
3A0C  FF          MOV	A,R7
3A0D  FF          MOV	A,R7
3A0E  FF          MOV	A,R7
3A0F  FF          MOV	A,R7
3A10  FF          MOV	A,R7
3A11  FF          MOV	A,R7
3A12  FF          MOV	A,R7
3A13  FF          MOV	A,R7
3A14  FF          MOV	A,R7
3A15  FF          MOV	A,R7
3A16  FF          MOV	A,R7
3A17  FF          MOV	A,R7
3A18  FF          MOV	A,R7
3A19  FF          MOV	A,R7
3A1A  FF          MOV	A,R7
3A1B  FF          MOV	A,R7
3A1C  FF          MOV	A,R7
3A1D  FF          MOV	A,R7
3A1E  FF          MOV	A,R7
3A1F  FF          MOV	A,R7
3A20  FF          MOV	A,R7
3A21  FF          MOV	A,R7
3A22  FF          MOV	A,R7
3A23  FF          MOV	A,R7
3A24  FF          MOV	A,R7
3A25  FF          MOV	A,R7
3A26  FF          MOV	A,R7
3A27  FF          MOV	A,R7
3A28  FF          MOV	A,R7
3A29  FF          MOV	A,R7
3A2A  FF          MOV	A,R7
3A2B  FF          MOV	A,R7
3A2C  FF          MOV	A,R7
3A2D  FF          MOV	A,R7
3A2E  FF          MOV	A,R7
3A2F  FF          MOV	A,R7
3A30  FF          MOV	A,R7
3A31  FF          MOV	A,R7
3A32  FF          MOV	A,R7
3A33  FF          MOV	A,R7
3A34  FF          MOV	A,R7
3A35  FF          MOV	A,R7
3A36  FF          MOV	A,R7
3A37  FF          MOV	A,R7
3A38  FF          MOV	A,R7
3A39  FF          MOV	A,R7
3A3A  FF          MOV	A,R7
3A3B  FF          MOV	A,R7
3A3C  FF          MOV	A,R7
3A3D  FF          MOV	A,R7
3A3E  FF          MOV	A,R7
3A3F  FF          MOV	A,R7
3A40  FF          MOV	A,R7
3A41  FF          MOV	A,R7
3A42  FF          MOV	A,R7
3A43  FF          MOV	A,R7
3A44  FF          MOV	A,R7
3A45  FF          MOV	A,R7
3A46  FF          MOV	A,R7
3A47  FF          MOV	A,R7
3A48  FF          MOV	A,R7
3A49  FF          MOV	A,R7
3A4A  FF          MOV	A,R7
3A4B  FF          MOV	A,R7
3A4C  FF          MOV	A,R7
3A4D  FF          MOV	A,R7
3A4E  FF          MOV	A,R7
3A4F  FF          MOV	A,R7
3A50  FF          MOV	A,R7
3A51  FF          MOV	A,R7
3A52  FF          MOV	A,R7
3A53  FF          MOV	A,R7
3A54  FF          MOV	A,R7
3A55  FF          MOV	A,R7
3A56  FF          MOV	A,R7
3A57  FF          MOV	A,R7
3A58  FF          MOV	A,R7
3A59  FF          MOV	A,R7
3A5A  FF          MOV	A,R7
3A5B  FF          MOV	A,R7
3A5C  FF          MOV	A,R7
3A5D  FF          MOV	A,R7
3A5E  FF          MOV	A,R7
3A5F  FF          MOV	A,R7
3A60  FF          MOV	A,R7
3A61  FF          MOV	A,R7
3A62  FF          MOV	A,R7
3A63  FF          MOV	A,R7
3A64  FF          MOV	A,R7
3A65  FF          MOV	A,R7
3A66  FF          MOV	A,R7
3A67  FF          MOV	A,R7
3A68  FF          MOV	A,R7
3A69  FF          MOV	A,R7
3A6A  FF          MOV	A,R7
3A6B  FF          MOV	A,R7
3A6C  FF          MOV	A,R7
3A6D  FF          MOV	A,R7
3A6E  FF          MOV	A,R7
3A6F  FF          MOV	A,R7
3A70  FF          MOV	A,R7
3A71  FF          MOV	A,R7
3A72  FF          MOV	A,R7
3A73  FF          MOV	A,R7
3A74  FF          MOV	A,R7
3A75  FF          MOV	A,R7
3A76  FF          MOV	A,R7
3A77  FF          MOV	A,R7
3A78  FF          MOV	A,R7
3A79  FF          MOV	A,R7
3A7A  FF          MOV	A,R7
3A7B  FF          MOV	A,R7
3A7C  FF          MOV	A,R7
3A7D  FF          MOV	A,R7
3A7E  FF          MOV	A,R7
3A7F  FF          MOV	A,R7
3A80  FF          MOV	A,R7
3A81  FF          MOV	A,R7
3A82  FF          MOV	A,R7
3A83  FF          MOV	A,R7
3A84  FF          MOV	A,R7
3A85  FF          MOV	A,R7
3A86  FF          MOV	A,R7
3A87  FF          MOV	A,R7
3A88  FF          MOV	A,R7
3A89  FF          MOV	A,R7
3A8A  FF          MOV	A,R7
3A8B  FF          MOV	A,R7
3A8C  FF          MOV	A,R7
3A8D  FF          MOV	A,R7
3A8E  FF          MOV	A,R7
3A8F  FF          MOV	A,R7
3A90  FF          MOV	A,R7
3A91  FF          MOV	A,R7
3A92  FF          MOV	A,R7
3A93  FF          MOV	A,R7
3A94  FF          MOV	A,R7
3A95  FF          MOV	A,R7
3A96  FF          MOV	A,R7
3A97  FF          MOV	A,R7
3A98  FF          MOV	A,R7
3A99  FF          MOV	A,R7
3A9A  FF          MOV	A,R7
3A9B  FF          MOV	A,R7
3A9C  FF          MOV	A,R7
3A9D  FF          MOV	A,R7
3A9E  FF          MOV	A,R7
3A9F  FF          MOV	A,R7
3AA0  FF          MOV	A,R7
3AA1  FF          MOV	A,R7
3AA2  FF          MOV	A,R7
3AA3  FF          MOV	A,R7
3AA4  FF          MOV	A,R7
3AA5  FF          MOV	A,R7
3AA6  FF          MOV	A,R7
3AA7  FF          MOV	A,R7
3AA8  FF          MOV	A,R7
3AA9  FF          MOV	A,R7
3AAA  FF          MOV	A,R7
3AAB  FF          MOV	A,R7
3AAC  FF          MOV	A,R7
3AAD  FF          MOV	A,R7
3AAE  FF          MOV	A,R7
3AAF  FF          MOV	A,R7
3AB0  FF          MOV	A,R7
3AB1  FF          MOV	A,R7
3AB2  FF          MOV	A,R7
3AB3  FF          MOV	A,R7
3AB4  FF          MOV	A,R7
3AB5  FF          MOV	A,R7
3AB6  FF          MOV	A,R7
3AB7  FF          MOV	A,R7
3AB8  FF          MOV	A,R7
3AB9  FF          MOV	A,R7
3ABA  FF          MOV	A,R7
3ABB  FF          MOV	A,R7
3ABC  FF          MOV	A,R7
3ABD  FF          MOV	A,R7
3ABE  FF          MOV	A,R7
3ABF  FF          MOV	A,R7
3AC0  FF          MOV	A,R7
3AC1  FF          MOV	A,R7
3AC2  FF          MOV	A,R7
3AC3  FF          MOV	A,R7
3AC4  FF          MOV	A,R7
3AC5  FF          MOV	A,R7
3AC6  FF          MOV	A,R7
3AC7  FF          MOV	A,R7
3AC8  FF          MOV	A,R7
3AC9  FF          MOV	A,R7
3ACA  FF          MOV	A,R7
3ACB  FF          MOV	A,R7
3ACC  FF          MOV	A,R7
3ACD  FF          MOV	A,R7
3ACE  FF          MOV	A,R7
3ACF  FF          MOV	A,R7
3AD0  FF          MOV	A,R7
3AD1  FF          MOV	A,R7
3AD2  FF          MOV	A,R7
3AD3  FF          MOV	A,R7
3AD4  FF          MOV	A,R7
3AD5  FF          MOV	A,R7
3AD6  FF          MOV	A,R7
3AD7  FF          MOV	A,R7
3AD8  FF          MOV	A,R7
3AD9  FF          MOV	A,R7
3ADA  FF          MOV	A,R7
3ADB  FF          MOV	A,R7
3ADC  FF          MOV	A,R7
3ADD  FF          MOV	A,R7
3ADE  FF          MOV	A,R7
3ADF  FF          MOV	A,R7
3AE0  FF          MOV	A,R7
3AE1  FF          MOV	A,R7
3AE2  FF          MOV	A,R7
3AE3  FF          MOV	A,R7
3AE4  FF          MOV	A,R7
3AE5  FF          MOV	A,R7
3AE6  FF          MOV	A,R7
3AE7  FF          MOV	A,R7
3AE8  FF          MOV	A,R7
3AE9  FF          MOV	A,R7
3AEA  FF          MOV	A,R7
3AEB  FF          MOV	A,R7
3AEC  FF          MOV	A,R7
3AED  FF          MOV	A,R7
3AEE  FF          MOV	A,R7
3AEF  FF          MOV	A,R7
3AF0  FF          MOV	A,R7
3AF1  FF          MOV	A,R7
3AF2  FF          MOV	A,R7
3AF3  FF          MOV	A,R7
3AF4  FF          MOV	A,R7
3AF5  FF          MOV	A,R7
3AF6  FF          MOV	A,R7
3AF7  FF          MOV	A,R7
3AF8  FF          MOV	A,R7
3AF9  FF          MOV	A,R7
3AFA  FF          MOV	A,R7
3AFB  FF          MOV	A,R7
3AFC  FF          MOV	A,R7
3AFD  FF          MOV	A,R7
3AFE  FF          MOV	A,R7
3AFF  FF          MOV	A,R7
3B00  FF          MOV	A,R7
3B01  FF          MOV	A,R7
3B02  FF          MOV	A,R7
3B03  FF          MOV	A,R7
3B04  FF          MOV	A,R7
3B05  FF          MOV	A,R7
3B06  FF          MOV	A,R7
3B07  FF          MOV	A,R7
3B08  FF          MOV	A,R7
3B09  FF          MOV	A,R7
3B0A  FF          MOV	A,R7
3B0B  FF          MOV	A,R7
3B0C  FF          MOV	A,R7
3B0D  FF          MOV	A,R7
3B0E  FF          MOV	A,R7
3B0F  FF          MOV	A,R7
3B10  FF          MOV	A,R7
3B11  FF          MOV	A,R7
3B12  FF          MOV	A,R7
3B13  FF          MOV	A,R7
3B14  FF          MOV	A,R7
3B15  FF          MOV	A,R7
3B16  FF          MOV	A,R7
3B17  FF          MOV	A,R7
3B18  FF          MOV	A,R7
3B19  FF          MOV	A,R7
3B1A  FF          MOV	A,R7
3B1B  FF          MOV	A,R7
3B1C  FF          MOV	A,R7
3B1D  FF          MOV	A,R7
3B1E  FF          MOV	A,R7
3B1F  FF          MOV	A,R7
3B20  FF          MOV	A,R7
3B21  FF          MOV	A,R7
3B22  FF          MOV	A,R7
3B23  FF          MOV	A,R7
3B24  FF          MOV	A,R7
3B25  FF          MOV	A,R7
3B26  FF          MOV	A,R7
3B27  FF          MOV	A,R7
3B28  FF          MOV	A,R7
3B29  FF          MOV	A,R7
3B2A  FF          MOV	A,R7
3B2B  FF          MOV	A,R7
3B2C  FF          MOV	A,R7
3B2D  FF          MOV	A,R7
3B2E  FF          MOV	A,R7
3B2F  FF          MOV	A,R7
3B30  FF          MOV	A,R7
3B31  FF          MOV	A,R7
3B32  FF          MOV	A,R7
3B33  FF          MOV	A,R7
3B34  FF          MOV	A,R7
3B35  FF          MOV	A,R7
3B36  FF          MOV	A,R7
3B37  FF          MOV	A,R7
3B38  FF          MOV	A,R7
3B39  FF          MOV	A,R7
3B3A  FF          MOV	A,R7
3B3B  FF          MOV	A,R7
3B3C  FF          MOV	A,R7
3B3D  FF          MOV	A,R7
3B3E  FF          MOV	A,R7
3B3F  FF          MOV	A,R7
3B40  FF          MOV	A,R7
3B41  FF          MOV	A,R7
3B42  FF          MOV	A,R7
3B43  FF          MOV	A,R7
3B44  FF          MOV	A,R7
3B45  FF          MOV	A,R7
3B46  FF          MOV	A,R7
3B47  FF          MOV	A,R7
3B48  FF          MOV	A,R7
3B49  FF          MOV	A,R7
3B4A  FF          MOV	A,R7
3B4B  FF          MOV	A,R7
3B4C  FF          MOV	A,R7
3B4D  FF          MOV	A,R7
3B4E  FF          MOV	A,R7
3B4F  FF          MOV	A,R7
3B50  FF          MOV	A,R7
3B51  FF          MOV	A,R7
3B52  FF          MOV	A,R7
3B53  FF          MOV	A,R7
3B54  FF          MOV	A,R7
3B55  FF          MOV	A,R7
3B56  FF          MOV	A,R7
3B57  FF          MOV	A,R7
3B58  FF          MOV	A,R7
3B59  FF          MOV	A,R7
3B5A  FF          MOV	A,R7
3B5B  FF          MOV	A,R7
3B5C  FF          MOV	A,R7
3B5D  FF          MOV	A,R7
3B5E  FF          MOV	A,R7
3B5F  FF          MOV	A,R7
3B60  FF          MOV	A,R7
3B61  FF          MOV	A,R7
3B62  FF          MOV	A,R7
3B63  FF          MOV	A,R7
3B64  FF          MOV	A,R7
3B65  FF          MOV	A,R7
3B66  FF          MOV	A,R7
3B67  FF          MOV	A,R7
3B68  FF          MOV	A,R7
3B69  FF          MOV	A,R7
3B6A  FF          MOV	A,R7
3B6B  FF          MOV	A,R7
3B6C  FF          MOV	A,R7
3B6D  FF          MOV	A,R7
3B6E  FF          MOV	A,R7
3B6F  FF          MOV	A,R7
3B70  FF          MOV	A,R7
3B71  FF          MOV	A,R7
3B72  FF          MOV	A,R7
3B73  FF          MOV	A,R7
3B74  FF          MOV	A,R7
3B75  FF          MOV	A,R7
3B76  FF          MOV	A,R7
3B77  FF          MOV	A,R7
3B78  FF          MOV	A,R7
3B79  FF          MOV	A,R7
3B7A  FF          MOV	A,R7
3B7B  FF          MOV	A,R7
3B7C  FF          MOV	A,R7
3B7D  FF          MOV	A,R7
3B7E  FF          MOV	A,R7
3B7F  FF          MOV	A,R7
3B80  FF          MOV	A,R7
3B81  FF          MOV	A,R7
3B82  FF          MOV	A,R7
3B83  FF          MOV	A,R7
3B84  FF          MOV	A,R7
3B85  FF          MOV	A,R7
3B86  FF          MOV	A,R7
3B87  FF          MOV	A,R7
3B88  FF          MOV	A,R7
3B89  FF          MOV	A,R7
3B8A  FF          MOV	A,R7
3B8B  FF          MOV	A,R7
3B8C  FF          MOV	A,R7
3B8D  FF          MOV	A,R7
3B8E  FF          MOV	A,R7
3B8F  FF          MOV	A,R7
3B90  FF          MOV	A,R7
3B91  FF          MOV	A,R7
3B92  FF          MOV	A,R7
3B93  FF          MOV	A,R7
3B94  FF          MOV	A,R7
3B95  FF          MOV	A,R7
3B96  FF          MOV	A,R7
3B97  FF          MOV	A,R7
3B98  FF          MOV	A,R7
3B99  FF          MOV	A,R7
3B9A  FF          MOV	A,R7
3B9B  FF          MOV	A,R7
3B9C  FF          MOV	A,R7
3B9D  FF          MOV	A,R7
3B9E  FF          MOV	A,R7
3B9F  FF          MOV	A,R7
3BA0  FF          MOV	A,R7
3BA1  FF          MOV	A,R7
3BA2  FF          MOV	A,R7
3BA3  FF          MOV	A,R7
3BA4  FF          MOV	A,R7
3BA5  FF          MOV	A,R7
3BA6  FF          MOV	A,R7
3BA7  FF          MOV	A,R7
3BA8  FF          MOV	A,R7
3BA9  FF          MOV	A,R7
3BAA  FF          MOV	A,R7
3BAB  FF          MOV	A,R7
3BAC  FF          MOV	A,R7
3BAD  FF          MOV	A,R7
3BAE  FF          MOV	A,R7
3BAF  FF          MOV	A,R7
3BB0  FF          MOV	A,R7
3BB1  FF          MOV	A,R7
3BB2  FF          MOV	A,R7
3BB3  FF          MOV	A,R7
3BB4  FF          MOV	A,R7
3BB5  FF          MOV	A,R7
3BB6  FF          MOV	A,R7
3BB7  FF          MOV	A,R7
3BB8  FF          MOV	A,R7
3BB9  FF          MOV	A,R7
3BBA  FF          MOV	A,R7
3BBB  FF          MOV	A,R7
3BBC  FF          MOV	A,R7
3BBD  FF          MOV	A,R7
3BBE  FF          MOV	A,R7
3BBF  FF          MOV	A,R7
3BC0  FF          MOV	A,R7
3BC1  FF          MOV	A,R7
3BC2  FF          MOV	A,R7
3BC3  FF          MOV	A,R7
3BC4  FF          MOV	A,R7
3BC5  FF          MOV	A,R7
3BC6  FF          MOV	A,R7
3BC7  FF          MOV	A,R7
3BC8  FF          MOV	A,R7
3BC9  FF          MOV	A,R7
3BCA  FF          MOV	A,R7
3BCB  FF          MOV	A,R7
3BCC  FF          MOV	A,R7
3BCD  FF          MOV	A,R7
3BCE  FF          MOV	A,R7
3BCF  FF          MOV	A,R7
3BD0  FF          MOV	A,R7
3BD1  FF          MOV	A,R7
3BD2  FF          MOV	A,R7
3BD3  FF          MOV	A,R7
3BD4  FF          MOV	A,R7
3BD5  FF          MOV	A,R7
3BD6  FF          MOV	A,R7
3BD7  FF          MOV	A,R7
3BD8  FF          MOV	A,R7
3BD9  FF          MOV	A,R7
3BDA  FF          MOV	A,R7
3BDB  FF          MOV	A,R7
3BDC  FF          MOV	A,R7
3BDD  FF          MOV	A,R7
3BDE  FF          MOV	A,R7
3BDF  FF          MOV	A,R7
3BE0  FF          MOV	A,R7
3BE1  FF          MOV	A,R7
3BE2  FF          MOV	A,R7
3BE3  FF          MOV	A,R7
3BE4  FF          MOV	A,R7
3BE5  FF          MOV	A,R7
3BE6  FF          MOV	A,R7
3BE7  FF          MOV	A,R7
3BE8  FF          MOV	A,R7
3BE9  FF          MOV	A,R7
3BEA  FF          MOV	A,R7
3BEB  FF          MOV	A,R7
3BEC  FF          MOV	A,R7
3BED  FF          MOV	A,R7
3BEE  FF          MOV	A,R7
3BEF  FF          MOV	A,R7
3BF0  FF          MOV	A,R7
3BF1  FF          MOV	A,R7
3BF2  FF          MOV	A,R7
3BF3  FF          MOV	A,R7
3BF4  FF          MOV	A,R7
3BF5  FF          MOV	A,R7
3BF6  FF          MOV	A,R7
3BF7  FF          MOV	A,R7
3BF8  FF          MOV	A,R7
3BF9  FF          MOV	A,R7
3BFA  FF          MOV	A,R7
3BFB  FF          MOV	A,R7
3BFC  FF          MOV	A,R7
3BFD  FF          MOV	A,R7
3BFE  FF          MOV	A,R7
3BFF  FF          MOV	A,R7
3C00  FF          MOV	A,R7
3C01  FF          MOV	A,R7
3C02  FF          MOV	A,R7
3C03  FF          MOV	A,R7
3C04  FF          MOV	A,R7
3C05  FF          MOV	A,R7
3C06  FF          MOV	A,R7
3C07  FF          MOV	A,R7
3C08  FF          MOV	A,R7
3C09  FF          MOV	A,R7
3C0A  FF          MOV	A,R7
3C0B  FF          MOV	A,R7
3C0C  FF          MOV	A,R7
3C0D  FF          MOV	A,R7
3C0E  FF          MOV	A,R7
3C0F  FF          MOV	A,R7
3C10  FF          MOV	A,R7
3C11  FF          MOV	A,R7
3C12  FF          MOV	A,R7
3C13  FF          MOV	A,R7
3C14  FF          MOV	A,R7
3C15  FF          MOV	A,R7
3C16  FF          MOV	A,R7
3C17  FF          MOV	A,R7
3C18  FF          MOV	A,R7
3C19  FF          MOV	A,R7
3C1A  FF          MOV	A,R7
3C1B  FF          MOV	A,R7
3C1C  FF          MOV	A,R7
3C1D  FF          MOV	A,R7
3C1E  FF          MOV	A,R7
3C1F  FF          MOV	A,R7
3C20  FF          MOV	A,R7
3C21  FF          MOV	A,R7
3C22  FF          MOV	A,R7
3C23  FF          MOV	A,R7
3C24  FF          MOV	A,R7
3C25  FF          MOV	A,R7
3C26  FF          MOV	A,R7
3C27  FF          MOV	A,R7
3C28  FF          MOV	A,R7
3C29  FF          MOV	A,R7
3C2A  FF          MOV	A,R7
3C2B  FF          MOV	A,R7
3C2C  FF          MOV	A,R7
3C2D  FF          MOV	A,R7
3C2E  FF          MOV	A,R7
3C2F  FF          MOV	A,R7
3C30  FF          MOV	A,R7
3C31  FF          MOV	A,R7
3C32  FF          MOV	A,R7
3C33  FF          MOV	A,R7
3C34  FF          MOV	A,R7
3C35  FF          MOV	A,R7
3C36  FF          MOV	A,R7
3C37  FF          MOV	A,R7
3C38  FF          MOV	A,R7
3C39  FF          MOV	A,R7
3C3A  FF          MOV	A,R7
3C3B  FF          MOV	A,R7
3C3C  FF          MOV	A,R7
3C3D  FF          MOV	A,R7
3C3E  FF          MOV	A,R7
3C3F  FF          MOV	A,R7
3C40  FF          MOV	A,R7
3C41  FF          MOV	A,R7
3C42  FF          MOV	A,R7
3C43  FF          MOV	A,R7
3C44  FF          MOV	A,R7
3C45  FF          MOV	A,R7
3C46  FF          MOV	A,R7
3C47  FF          MOV	A,R7
3C48  FF          MOV	A,R7
3C49  FF          MOV	A,R7
3C4A  FF          MOV	A,R7
3C4B  FF          MOV	A,R7
3C4C  FF          MOV	A,R7
3C4D  FF          MOV	A,R7
3C4E  FF          MOV	A,R7
3C4F  FF          MOV	A,R7
3C50  FF          MOV	A,R7
3C51  FF          MOV	A,R7
3C52  FF          MOV	A,R7
3C53  FF          MOV	A,R7
3C54  FF          MOV	A,R7
3C55  FF          MOV	A,R7
3C56  FF          MOV	A,R7
3C57  FF          MOV	A,R7
3C58  FF          MOV	A,R7
3C59  FF          MOV	A,R7
3C5A  FF          MOV	A,R7
3C5B  FF          MOV	A,R7
3C5C  FF          MOV	A,R7
3C5D  FF          MOV	A,R7
3C5E  FF          MOV	A,R7
3C5F  FF          MOV	A,R7
3C60  FF          MOV	A,R7
3C61  FF          MOV	A,R7
3C62  FF          MOV	A,R7
3C63  FF          MOV	A,R7
3C64  FF          MOV	A,R7
3C65  FF          MOV	A,R7
3C66  FF          MOV	A,R7
3C67  FF          MOV	A,R7
3C68  FF          MOV	A,R7
3C69  FF          MOV	A,R7
3C6A  FF          MOV	A,R7
3C6B  FF          MOV	A,R7
3C6C  FF          MOV	A,R7
3C6D  FF          MOV	A,R7
3C6E  FF          MOV	A,R7
3C6F  FF          MOV	A,R7
3C70  FF          MOV	A,R7
3C71  FF          MOV	A,R7
3C72  FF          MOV	A,R7
3C73  FF          MOV	A,R7
3C74  FF          MOV	A,R7
3C75  FF          MOV	A,R7
3C76  FF          MOV	A,R7
3C77  FF          MOV	A,R7
3C78  FF          MOV	A,R7
3C79  FF          MOV	A,R7
3C7A  FF          MOV	A,R7
3C7B  FF          MOV	A,R7
3C7C  FF          MOV	A,R7
3C7D  FF          MOV	A,R7
3C7E  FF          MOV	A,R7
3C7F  FF          MOV	A,R7
3C80  FF          MOV	A,R7
3C81  FF          MOV	A,R7
3C82  FF          MOV	A,R7
3C83  FF          MOV	A,R7
3C84  FF          MOV	A,R7
3C85  FF          MOV	A,R7
3C86  FF          MOV	A,R7
3C87  FF          MOV	A,R7
3C88  FF          MOV	A,R7
3C89  FF          MOV	A,R7
3C8A  FF          MOV	A,R7
3C8B  FF          MOV	A,R7
3C8C  FF          MOV	A,R7
3C8D  FF          MOV	A,R7
3C8E  FF          MOV	A,R7
3C8F  FF          MOV	A,R7
3C90  FF          MOV	A,R7
3C91  FF          MOV	A,R7
3C92  FF          MOV	A,R7
3C93  FF          MOV	A,R7
3C94  FF          MOV	A,R7
3C95  FF          MOV	A,R7
3C96  FF          MOV	A,R7
3C97  FF          MOV	A,R7
3C98  FF          MOV	A,R7
3C99  FF          MOV	A,R7
3C9A  FF          MOV	A,R7
3C9B  FF          MOV	A,R7
3C9C  FF          MOV	A,R7
3C9D  FF          MOV	A,R7
3C9E  FF          MOV	A,R7
3C9F  FF          MOV	A,R7
3CA0  FF          MOV	A,R7
3CA1  FF          MOV	A,R7
3CA2  FF          MOV	A,R7
3CA3  FF          MOV	A,R7
3CA4  FF          MOV	A,R7
3CA5  FF          MOV	A,R7
3CA6  FF          MOV	A,R7
3CA7  FF          MOV	A,R7
3CA8  FF          MOV	A,R7
3CA9  FF          MOV	A,R7
3CAA  FF          MOV	A,R7
3CAB  FF          MOV	A,R7
3CAC  FF          MOV	A,R7
3CAD  FF          MOV	A,R7
3CAE  FF          MOV	A,R7
3CAF  FF          MOV	A,R7
3CB0  FF          MOV	A,R7
3CB1  FF          MOV	A,R7
3CB2  FF          MOV	A,R7
3CB3  FF          MOV	A,R7
3CB4  FF          MOV	A,R7
3CB5  FF          MOV	A,R7
3CB6  FF          MOV	A,R7
3CB7  FF          MOV	A,R7
3CB8  FF          MOV	A,R7
3CB9  FF          MOV	A,R7
3CBA  FF          MOV	A,R7
3CBB  FF          MOV	A,R7
3CBC  FF          MOV	A,R7
3CBD  FF          MOV	A,R7
3CBE  FF          MOV	A,R7
3CBF  FF          MOV	A,R7
3CC0  FF          MOV	A,R7
3CC1  FF          MOV	A,R7
3CC2  FF          MOV	A,R7
3CC3  FF          MOV	A,R7
3CC4  FF          MOV	A,R7
3CC5  FF          MOV	A,R7
3CC6  FF          MOV	A,R7
3CC7  FF          MOV	A,R7
3CC8  FF          MOV	A,R7
3CC9  FF          MOV	A,R7
3CCA  FF          MOV	A,R7
3CCB  FF          MOV	A,R7
3CCC  FF          MOV	A,R7
3CCD  FF          MOV	A,R7
3CCE  FF          MOV	A,R7
3CCF  FF          MOV	A,R7
3CD0  FF          MOV	A,R7
3CD1  FF          MOV	A,R7
3CD2  FF          MOV	A,R7
3CD3  FF          MOV	A,R7
3CD4  FF          MOV	A,R7
3CD5  FF          MOV	A,R7
3CD6  FF          MOV	A,R7
3CD7  FF          MOV	A,R7
3CD8  FF          MOV	A,R7
3CD9  FF          MOV	A,R7
3CDA  FF          MOV	A,R7
3CDB  FF          MOV	A,R7
3CDC  FF          MOV	A,R7
3CDD  FF          MOV	A,R7
3CDE  FF          MOV	A,R7
3CDF  FF          MOV	A,R7
3CE0  FF          MOV	A,R7
3CE1  FF          MOV	A,R7
3CE2  FF          MOV	A,R7
3CE3  FF          MOV	A,R7
3CE4  FF          MOV	A,R7
3CE5  FF          MOV	A,R7
3CE6  FF          MOV	A,R7
3CE7  FF          MOV	A,R7
3CE8  FF          MOV	A,R7
3CE9  FF          MOV	A,R7
3CEA  FF          MOV	A,R7
3CEB  FF          MOV	A,R7
3CEC  FF          MOV	A,R7
3CED  FF          MOV	A,R7
3CEE  FF          MOV	A,R7
3CEF  FF          MOV	A,R7
3CF0  FF          MOV	A,R7
3CF1  FF          MOV	A,R7
3CF2  FF          MOV	A,R7
3CF3  FF          MOV	A,R7
3CF4  FF          MOV	A,R7
3CF5  FF          MOV	A,R7
3CF6  FF          MOV	A,R7
3CF7  FF          MOV	A,R7
3CF8  FF          MOV	A,R7
3CF9  FF          MOV	A,R7
3CFA  FF          MOV	A,R7
3CFB  FF          MOV	A,R7
3CFC  FF          MOV	A,R7
3CFD  FF          MOV	A,R7
3CFE  FF          MOV	A,R7
3CFF  FF          MOV	A,R7
3D00  FF          MOV	A,R7
3D01  FF          MOV	A,R7
3D02  FF          MOV	A,R7
3D03  FF          MOV	A,R7
3D04  FF          MOV	A,R7
3D05  FF          MOV	A,R7
3D06  FF          MOV	A,R7
3D07  FF          MOV	A,R7
3D08  FF          MOV	A,R7
3D09  FF          MOV	A,R7
3D0A  FF          MOV	A,R7
3D0B  FF          MOV	A,R7
3D0C  FF          MOV	A,R7
3D0D  FF          MOV	A,R7
3D0E  FF          MOV	A,R7
3D0F  FF          MOV	A,R7
3D10  FF          MOV	A,R7
3D11  FF          MOV	A,R7
3D12  FF          MOV	A,R7
3D13  FF          MOV	A,R7
3D14  FF          MOV	A,R7
3D15  FF          MOV	A,R7
3D16  FF          MOV	A,R7
3D17  FF          MOV	A,R7
3D18  FF          MOV	A,R7
3D19  FF          MOV	A,R7
3D1A  FF          MOV	A,R7
3D1B  FF          MOV	A,R7
3D1C  FF          MOV	A,R7
3D1D  FF          MOV	A,R7
3D1E  FF          MOV	A,R7
3D1F  FF          MOV	A,R7
3D20  FF          MOV	A,R7
3D21  FF          MOV	A,R7
3D22  FF          MOV	A,R7
3D23  FF          MOV	A,R7
3D24  FF          MOV	A,R7
3D25  FF          MOV	A,R7
3D26  FF          MOV	A,R7
3D27  FF          MOV	A,R7
3D28  FF          MOV	A,R7
3D29  FF          MOV	A,R7
3D2A  FF          MOV	A,R7
3D2B  FF          MOV	A,R7
3D2C  FF          MOV	A,R7
3D2D  FF          MOV	A,R7
3D2E  FF          MOV	A,R7
3D2F  FF          MOV	A,R7
3D30  FF          MOV	A,R7
3D31  FF          MOV	A,R7
3D32  FF          MOV	A,R7
3D33  FF          MOV	A,R7
3D34  FF          MOV	A,R7
3D35  FF          MOV	A,R7
3D36  FF          MOV	A,R7
3D37  FF          MOV	A,R7
3D38  FF          MOV	A,R7
3D39  FF          MOV	A,R7
3D3A  FF          MOV	A,R7
3D3B  FF          MOV	A,R7
3D3C  FF          MOV	A,R7
3D3D  FF          MOV	A,R7
3D3E  FF          MOV	A,R7
3D3F  FF          MOV	A,R7
3D40  FF          MOV	A,R7
3D41  FF          MOV	A,R7
3D42  FF          MOV	A,R7
3D43  FF          MOV	A,R7
3D44  FF          MOV	A,R7
3D45  FF          MOV	A,R7
3D46  FF          MOV	A,R7
3D47  FF          MOV	A,R7
3D48  FF          MOV	A,R7
3D49  FF          MOV	A,R7
3D4A  FF          MOV	A,R7
3D4B  FF          MOV	A,R7
3D4C  FF          MOV	A,R7
3D4D  FF          MOV	A,R7
3D4E  FF          MOV	A,R7
3D4F  FF          MOV	A,R7
3D50  FF          MOV	A,R7
3D51  FF          MOV	A,R7
3D52  FF          MOV	A,R7
3D53  FF          MOV	A,R7
3D54  FF          MOV	A,R7
3D55  FF          MOV	A,R7
3D56  FF          MOV	A,R7
3D57  FF          MOV	A,R7
3D58  FF          MOV	A,R7
3D59  FF          MOV	A,R7
3D5A  FF          MOV	A,R7
3D5B  FF          MOV	A,R7
3D5C  FF          MOV	A,R7
3D5D  FF          MOV	A,R7
3D5E  FF          MOV	A,R7
3D5F  FF          MOV	A,R7
3D60  FF          MOV	A,R7
3D61  FF          MOV	A,R7
3D62  FF          MOV	A,R7
3D63  FF          MOV	A,R7
3D64  FF          MOV	A,R7
3D65  FF          MOV	A,R7
3D66  FF          MOV	A,R7
3D67  FF          MOV	A,R7
3D68  FF          MOV	A,R7
3D69  FF          MOV	A,R7
3D6A  FF          MOV	A,R7
3D6B  FF          MOV	A,R7
3D6C  FF          MOV	A,R7
3D6D  FF          MOV	A,R7
3D6E  FF          MOV	A,R7
3D6F  FF          MOV	A,R7
3D70  FF          MOV	A,R7
3D71  FF          MOV	A,R7
3D72  FF          MOV	A,R7
3D73  FF          MOV	A,R7
3D74  FF          MOV	A,R7
3D75  FF          MOV	A,R7
3D76  FF          MOV	A,R7
3D77  FF          MOV	A,R7
3D78  FF          MOV	A,R7
3D79  FF          MOV	A,R7
3D7A  FF          MOV	A,R7
3D7B  FF          MOV	A,R7
3D7C  FF          MOV	A,R7
3D7D  FF          MOV	A,R7
3D7E  FF          MOV	A,R7
3D7F  FF          MOV	A,R7
3D80  FF          MOV	A,R7
3D81  FF          MOV	A,R7
3D82  FF          MOV	A,R7
3D83  FF          MOV	A,R7
3D84  FF          MOV	A,R7
3D85  FF          MOV	A,R7
3D86  FF          MOV	A,R7
3D87  FF          MOV	A,R7
3D88  FF          MOV	A,R7
3D89  FF          MOV	A,R7
3D8A  FF          MOV	A,R7
3D8B  FF          MOV	A,R7
3D8C  FF          MOV	A,R7
3D8D  FF          MOV	A,R7
3D8E  FF          MOV	A,R7
3D8F  FF          MOV	A,R7
3D90  FF          MOV	A,R7
3D91  FF          MOV	A,R7
3D92  FF          MOV	A,R7
3D93  FF          MOV	A,R7
3D94  FF          MOV	A,R7
3D95  FF          MOV	A,R7
3D96  FF          MOV	A,R7
3D97  FF          MOV	A,R7
3D98  FF          MOV	A,R7
3D99  FF          MOV	A,R7
3D9A  FF          MOV	A,R7
3D9B  FF          MOV	A,R7
3D9C  FF          MOV	A,R7
3D9D  FF          MOV	A,R7
3D9E  FF          MOV	A,R7
3D9F  FF          MOV	A,R7
3DA0  FF          MOV	A,R7
3DA1  FF          MOV	A,R7
3DA2  FF          MOV	A,R7
3DA3  FF          MOV	A,R7
3DA4  FF          MOV	A,R7
3DA5  FF          MOV	A,R7
3DA6  FF          MOV	A,R7
3DA7  FF          MOV	A,R7
3DA8  FF          MOV	A,R7
3DA9  FF          MOV	A,R7
3DAA  FF          MOV	A,R7
3DAB  FF          MOV	A,R7
3DAC  FF          MOV	A,R7
3DAD  FF          MOV	A,R7
3DAE  FF          MOV	A,R7
3DAF  FF          MOV	A,R7
3DB0  FF          MOV	A,R7
3DB1  FF          MOV	A,R7
3DB2  FF          MOV	A,R7
3DB3  FF          MOV	A,R7
3DB4  FF          MOV	A,R7
3DB5  FF          MOV	A,R7
3DB6  FF          MOV	A,R7
3DB7  FF          MOV	A,R7
3DB8  FF          MOV	A,R7
3DB9  FF          MOV	A,R7
3DBA  FF          MOV	A,R7
3DBB  FF          MOV	A,R7
3DBC  FF          MOV	A,R7
3DBD  FF          MOV	A,R7
3DBE  FF          MOV	A,R7
3DBF  FF          MOV	A,R7
3DC0  FF          MOV	A,R7
3DC1  FF          MOV	A,R7
3DC2  FF          MOV	A,R7
3DC3  FF          MOV	A,R7
3DC4  FF          MOV	A,R7
3DC5  FF          MOV	A,R7
3DC6  FF          MOV	A,R7
3DC7  FF          MOV	A,R7
3DC8  FF          MOV	A,R7
3DC9  FF          MOV	A,R7
3DCA  FF          MOV	A,R7
3DCB  FF          MOV	A,R7
3DCC  FF          MOV	A,R7
3DCD  FF          MOV	A,R7
3DCE  FF          MOV	A,R7
3DCF  FF          MOV	A,R7
3DD0  FF          MOV	A,R7
3DD1  FF          MOV	A,R7
3DD2  FF          MOV	A,R7
3DD3  FF          MOV	A,R7
3DD4  FF          MOV	A,R7
3DD5  FF          MOV	A,R7
3DD6  FF          MOV	A,R7
3DD7  FF          MOV	A,R7
3DD8  FF          MOV	A,R7
3DD9  FF          MOV	A,R7
3DDA  FF          MOV	A,R7
3DDB  FF          MOV	A,R7
3DDC  FF          MOV	A,R7
3DDD  FF          MOV	A,R7
3DDE  FF          MOV	A,R7
3DDF  FF          MOV	A,R7
3DE0  FF          MOV	A,R7
3DE1  FF          MOV	A,R7
3DE2  FF          MOV	A,R7
3DE3  FF          MOV	A,R7
3DE4  FF          MOV	A,R7
3DE5  FF          MOV	A,R7
3DE6  FF          MOV	A,R7
3DE7  FF          MOV	A,R7
3DE8  FF          MOV	A,R7
3DE9  FF          MOV	A,R7
3DEA  FF          MOV	A,R7
3DEB  FF          MOV	A,R7
3DEC  FF          MOV	A,R7
3DED  FF          MOV	A,R7
3DEE  FF          MOV	A,R7
3DEF  FF          MOV	A,R7
3DF0  FF          MOV	A,R7
3DF1  FF          MOV	A,R7
3DF2  FF          MOV	A,R7
3DF3  FF          MOV	A,R7
3DF4  FF          MOV	A,R7
3DF5  FF          MOV	A,R7
3DF6  FF          MOV	A,R7
3DF7  FF          MOV	A,R7
3DF8  FF          MOV	A,R7
3DF9  FF          MOV	A,R7
3DFA  FF          MOV	A,R7
3DFB  FF          MOV	A,R7
3DFC  FF          MOV	A,R7
3DFD  FF          MOV	A,R7
3DFE  FF          MOV	A,R7
3DFF  FF          MOV	A,R7
3E00  FF          MOV	A,R7
3E01  FF          MOV	A,R7
3E02  FF          MOV	A,R7
3E03  FF          MOV	A,R7
3E04  FF          MOV	A,R7
3E05  FF          MOV	A,R7
3E06  FF          MOV	A,R7
3E07  FF          MOV	A,R7
3E08  FF          MOV	A,R7
3E09  FF          MOV	A,R7
3E0A  FF          MOV	A,R7
3E0B  FF          MOV	A,R7
3E0C  FF          MOV	A,R7
3E0D  FF          MOV	A,R7
3E0E  FF          MOV	A,R7
3E0F  FF          MOV	A,R7
3E10  FF          MOV	A,R7
3E11  FF          MOV	A,R7
3E12  FF          MOV	A,R7
3E13  FF          MOV	A,R7
3E14  FF          MOV	A,R7
3E15  FF          MOV	A,R7
3E16  FF          MOV	A,R7
3E17  FF          MOV	A,R7
3E18  FF          MOV	A,R7
3E19  FF          MOV	A,R7
3E1A  FF          MOV	A,R7
3E1B  FF          MOV	A,R7
3E1C  FF          MOV	A,R7
3E1D  FF          MOV	A,R7
3E1E  FF          MOV	A,R7
3E1F  FF          MOV	A,R7
3E20  FF          MOV	A,R7
3E21  FF          MOV	A,R7
3E22  FF          MOV	A,R7
3E23  FF          MOV	A,R7
3E24  FF          MOV	A,R7
3E25  FF          MOV	A,R7
3E26  FF          MOV	A,R7
3E27  FF          MOV	A,R7
3E28  FF          MOV	A,R7
3E29  FF          MOV	A,R7
3E2A  FF          MOV	A,R7
3E2B  FF          MOV	A,R7
3E2C  FF          MOV	A,R7
3E2D  FF          MOV	A,R7
3E2E  FF          MOV	A,R7
3E2F  FF          MOV	A,R7
3E30  FF          MOV	A,R7
3E31  FF          MOV	A,R7
3E32  FF          MOV	A,R7
3E33  FF          MOV	A,R7
3E34  FF          MOV	A,R7
3E35  FF          MOV	A,R7
3E36  FF          MOV	A,R7
3E37  FF          MOV	A,R7
3E38  FF          MOV	A,R7
3E39  FF          MOV	A,R7
3E3A  FF          MOV	A,R7
3E3B  FF          MOV	A,R7
3E3C  FF          MOV	A,R7
3E3D  FF          MOV	A,R7
3E3E  FF          MOV	A,R7
3E3F  FF          MOV	A,R7
3E40  FF          MOV	A,R7
3E41  FF          MOV	A,R7
3E42  FF          MOV	A,R7
3E43  FF          MOV	A,R7
3E44  FF          MOV	A,R7
3E45  FF          MOV	A,R7
3E46  FF          MOV	A,R7
3E47  FF          MOV	A,R7
3E48  FF          MOV	A,R7
3E49  FF          MOV	A,R7
3E4A  FF          MOV	A,R7
3E4B  FF          MOV	A,R7
3E4C  FF          MOV	A,R7
3E4D  FF          MOV	A,R7
3E4E  FF          MOV	A,R7
3E4F  FF          MOV	A,R7
3E50  FF          MOV	A,R7
3E51  FF          MOV	A,R7
3E52  FF          MOV	A,R7
3E53  FF          MOV	A,R7
3E54  FF          MOV	A,R7
3E55  FF          MOV	A,R7
3E56  FF          MOV	A,R7
3E57  FF          MOV	A,R7
3E58  FF          MOV	A,R7
3E59  FF          MOV	A,R7
3E5A  FF          MOV	A,R7
3E5B  FF          MOV	A,R7
3E5C  FF          MOV	A,R7
3E5D  FF          MOV	A,R7
3E5E  FF          MOV	A,R7
3E5F  FF          MOV	A,R7
3E60  FF          MOV	A,R7
3E61  FF          MOV	A,R7
3E62  FF          MOV	A,R7
3E63  FF          MOV	A,R7
3E64  FF          MOV	A,R7
3E65  FF          MOV	A,R7
3E66  FF          MOV	A,R7
3E67  FF          MOV	A,R7
3E68  FF          MOV	A,R7
3E69  FF          MOV	A,R7
3E6A  FF          MOV	A,R7
3E6B  FF          MOV	A,R7
3E6C  FF          MOV	A,R7
3E6D  FF          MOV	A,R7
3E6E  FF          MOV	A,R7
3E6F  FF          MOV	A,R7
3E70  FF          MOV	A,R7
3E71  FF          MOV	A,R7
3E72  FF          MOV	A,R7
3E73  FF          MOV	A,R7
3E74  FF          MOV	A,R7
3E75  FF          MOV	A,R7
3E76  FF          MOV	A,R7
3E77  FF          MOV	A,R7
3E78  FF          MOV	A,R7
3E79  FF          MOV	A,R7
3E7A  FF          MOV	A,R7
3E7B  FF          MOV	A,R7
3E7C  FF          MOV	A,R7
3E7D  FF          MOV	A,R7
3E7E  FF          MOV	A,R7
3E7F  FF          MOV	A,R7
3E80  FF          MOV	A,R7
3E81  FF          MOV	A,R7
3E82  FF          MOV	A,R7
3E83  FF          MOV	A,R7
3E84  FF          MOV	A,R7
3E85  FF          MOV	A,R7
3E86  FF          MOV	A,R7
3E87  FF          MOV	A,R7
3E88  FF          MOV	A,R7
3E89  FF          MOV	A,R7
3E8A  FF          MOV	A,R7
3E8B  FF          MOV	A,R7
3E8C  FF          MOV	A,R7
3E8D  FF          MOV	A,R7
3E8E  FF          MOV	A,R7
3E8F  FF          MOV	A,R7
3E90  FF          MOV	A,R7
3E91  FF          MOV	A,R7
3E92  FF          MOV	A,R7
3E93  FF          MOV	A,R7
3E94  FF          MOV	A,R7
3E95  FF          MOV	A,R7
3E96  FF          MOV	A,R7
3E97  FF          MOV	A,R7
3E98  FF          MOV	A,R7
3E99  FF          MOV	A,R7
3E9A  FF          MOV	A,R7
3E9B  FF          MOV	A,R7
3E9C  FF          MOV	A,R7
3E9D  FF          MOV	A,R7
3E9E  FF          MOV	A,R7
3E9F  FF          MOV	A,R7
3EA0  FF          MOV	A,R7
3EA1  FF          MOV	A,R7
3EA2  FF          MOV	A,R7
3EA3  FF          MOV	A,R7
3EA4  FF          MOV	A,R7
3EA5  FF          MOV	A,R7
3EA6  FF          MOV	A,R7
3EA7  FF          MOV	A,R7
3EA8  FF          MOV	A,R7
3EA9  FF          MOV	A,R7
3EAA  FF          MOV	A,R7
3EAB  FF          MOV	A,R7
3EAC  FF          MOV	A,R7
3EAD  FF          MOV	A,R7
3EAE  FF          MOV	A,R7
3EAF  FF          MOV	A,R7
3EB0  FF          MOV	A,R7
3EB1  FF          MOV	A,R7
3EB2  FF          MOV	A,R7
3EB3  FF          MOV	A,R7
3EB4  FF          MOV	A,R7
3EB5  FF          MOV	A,R7
3EB6  FF          MOV	A,R7
3EB7  FF          MOV	A,R7
3EB8  FF          MOV	A,R7
3EB9  FF          MOV	A,R7
3EBA  FF          MOV	A,R7
3EBB  FF          MOV	A,R7
3EBC  FF          MOV	A,R7
3EBD  FF          MOV	A,R7
3EBE  FF          MOV	A,R7
3EBF  FF          MOV	A,R7
3EC0  FF          MOV	A,R7
3EC1  FF          MOV	A,R7
3EC2  FF          MOV	A,R7
3EC3  FF          MOV	A,R7
3EC4  FF          MOV	A,R7
3EC5  FF          MOV	A,R7
3EC6  FF          MOV	A,R7
3EC7  FF          MOV	A,R7
3EC8  FF          MOV	A,R7
3EC9  FF          MOV	A,R7
3ECA  FF          MOV	A,R7
3ECB  FF          MOV	A,R7
3ECC  FF          MOV	A,R7
3ECD  FF          MOV	A,R7
3ECE  FF          MOV	A,R7
3ECF  FF          MOV	A,R7
3ED0  FF          MOV	A,R7
3ED1  FF          MOV	A,R7
3ED2  FF          MOV	A,R7
3ED3  FF          MOV	A,R7
3ED4  FF          MOV	A,R7
3ED5  FF          MOV	A,R7
3ED6  FF          MOV	A,R7
3ED7  FF          MOV	A,R7
3ED8  FF          MOV	A,R7
3ED9  FF          MOV	A,R7
3EDA  FF          MOV	A,R7
3EDB  FF          MOV	A,R7
3EDC  FF          MOV	A,R7
3EDD  FF          MOV	A,R7
3EDE  FF          MOV	A,R7
3EDF  FF          MOV	A,R7
3EE0  FF          MOV	A,R7
3EE1  FF          MOV	A,R7
3EE2  FF          MOV	A,R7
3EE3  FF          MOV	A,R7
3EE4  FF          MOV	A,R7
3EE5  FF          MOV	A,R7
3EE6  FF          MOV	A,R7
3EE7  FF          MOV	A,R7
3EE8  FF          MOV	A,R7
3EE9  FF          MOV	A,R7
3EEA  FF          MOV	A,R7
3EEB  FF          MOV	A,R7
3EEC  FF          MOV	A,R7
3EED  FF          MOV	A,R7
3EEE  FF          MOV	A,R7
3EEF  FF          MOV	A,R7
3EF0  FF          MOV	A,R7
3EF1  FF          MOV	A,R7
3EF2  FF          MOV	A,R7
3EF3  FF          MOV	A,R7
3EF4  FF          MOV	A,R7
3EF5  FF          MOV	A,R7
3EF6  FF          MOV	A,R7
3EF7  FF          MOV	A,R7
3EF8  FF          MOV	A,R7
3EF9  FF          MOV	A,R7
3EFA  FF          MOV	A,R7
3EFB  FF          MOV	A,R7
3EFC  FF          MOV	A,R7
3EFD  FF          MOV	A,R7
3EFE  FF          MOV	A,R7
3EFF  FF          MOV	A,R7
3F00  FF          MOV	A,R7
3F01  FF          MOV	A,R7
3F02  FF          MOV	A,R7
3F03  FF          MOV	A,R7
3F04  FF          MOV	A,R7
3F05  FF          MOV	A,R7
3F06  FF          MOV	A,R7
3F07  FF          MOV	A,R7
3F08  FF          MOV	A,R7
3F09  FF          MOV	A,R7
3F0A  FF          MOV	A,R7
3F0B  FF          MOV	A,R7
3F0C  FF          MOV	A,R7
3F0D  FF          MOV	A,R7
3F0E  FF          MOV	A,R7
3F0F  FF          MOV	A,R7
3F10  FF          MOV	A,R7
3F11  FF          MOV	A,R7
3F12  FF          MOV	A,R7
3F13  FF          MOV	A,R7
3F14  FF          MOV	A,R7
3F15  FF          MOV	A,R7
3F16  FF          MOV	A,R7
3F17  FF          MOV	A,R7
3F18  FF          MOV	A,R7
3F19  FF          MOV	A,R7
3F1A  FF          MOV	A,R7
3F1B  FF          MOV	A,R7
3F1C  FF          MOV	A,R7
3F1D  FF          MOV	A,R7
3F1E  FF          MOV	A,R7
3F1F  FF          MOV	A,R7
3F20  FF          MOV	A,R7
3F21  FF          MOV	A,R7
3F22  FF          MOV	A,R7
3F23  FF          MOV	A,R7
3F24  FF          MOV	A,R7
3F25  FF          MOV	A,R7
3F26  FF          MOV	A,R7
3F27  FF          MOV	A,R7
3F28  FF          MOV	A,R7
3F29  FF          MOV	A,R7
3F2A  FF          MOV	A,R7
3F2B  FF          MOV	A,R7
3F2C  FF          MOV	A,R7
3F2D  FF          MOV	A,R7
3F2E  FF          MOV	A,R7
3F2F  FF          MOV	A,R7
3F30  FF          MOV	A,R7
3F31  FF          MOV	A,R7
3F32  FF          MOV	A,R7
3F33  FF          MOV	A,R7
3F34  FF          MOV	A,R7
3F35  FF          MOV	A,R7
3F36  FF          MOV	A,R7
3F37  FF          MOV	A,R7
3F38  FF          MOV	A,R7
3F39  FF          MOV	A,R7
3F3A  FF          MOV	A,R7
3F3B  FF          MOV	A,R7
3F3C  FF          MOV	A,R7
3F3D  FF          MOV	A,R7
3F3E  FF          MOV	A,R7
3F3F  FF          MOV	A,R7
3F40  FF          MOV	A,R7
3F41  FF          MOV	A,R7
3F42  FF          MOV	A,R7
3F43  FF          MOV	A,R7
3F44  FF          MOV	A,R7
3F45  FF          MOV	A,R7
3F46  FF          MOV	A,R7
3F47  FF          MOV	A,R7
3F48  FF          MOV	A,R7
3F49  FF          MOV	A,R7
3F4A  FF          MOV	A,R7
3F4B  FF          MOV	A,R7
3F4C  FF          MOV	A,R7
3F4D  FF          MOV	A,R7
3F4E  FF          MOV	A,R7
3F4F  FF          MOV	A,R7
3F50  FF          MOV	A,R7
3F51  FF          MOV	A,R7
3F52  FF          MOV	A,R7
3F53  FF          MOV	A,R7
3F54  FF          MOV	A,R7
3F55  FF          MOV	A,R7
3F56  FF          MOV	A,R7
3F57  FF          MOV	A,R7
3F58  FF          MOV	A,R7
3F59  FF          MOV	A,R7
3F5A  FF          MOV	A,R7
3F5B  FF          MOV	A,R7
3F5C  FF          MOV	A,R7
3F5D  FF          MOV	A,R7
3F5E  FF          MOV	A,R7
3F5F  FF          MOV	A,R7
3F60  FF          MOV	A,R7
3F61  FF          MOV	A,R7
3F62  FF          MOV	A,R7
3F63  FF          MOV	A,R7
3F64  FF          MOV	A,R7
3F65  FF          MOV	A,R7
3F66  FF          MOV	A,R7
3F67  FF          MOV	A,R7
3F68  FF          MOV	A,R7
3F69  FF          MOV	A,R7
3F6A  FF          MOV	A,R7
3F6B  FF          MOV	A,R7
3F6C  FF          MOV	A,R7
3F6D  FF          MOV	A,R7
3F6E  FF          MOV	A,R7
3F6F  FF          MOV	A,R7
3F70  FF          MOV	A,R7
3F71  FF          MOV	A,R7
3F72  FF          MOV	A,R7
3F73  FF          MOV	A,R7
3F74  FF          MOV	A,R7
3F75  FF          MOV	A,R7
3F76  FF          MOV	A,R7
3F77  FF          MOV	A,R7
3F78  FF          MOV	A,R7
3F79  FF          MOV	A,R7
3F7A  FF          MOV	A,R7
3F7B  FF          MOV	A,R7
3F7C  FF          MOV	A,R7
3F7D  FF          MOV	A,R7
3F7E  FF          MOV	A,R7
3F7F  FF          MOV	A,R7
3F80  FF          MOV	A,R7
3F81  FF          MOV	A,R7
3F82  FF          MOV	A,R7
3F83  FF          MOV	A,R7
3F84  FF          MOV	A,R7
3F85  FF          MOV	A,R7
3F86  FF          MOV	A,R7
3F87  FF          MOV	A,R7
3F88  FF          MOV	A,R7
3F89  FF          MOV	A,R7
3F8A  FF          MOV	A,R7
3F8B  FF          MOV	A,R7
3F8C  FF          MOV	A,R7
3F8D  FF          MOV	A,R7
3F8E  FF          MOV	A,R7
3F8F  FF          MOV	A,R7
3F90  FF          MOV	A,R7
3F91  FF          MOV	A,R7
3F92  FF          MOV	A,R7
3F93  FF          MOV	A,R7
3F94  FF          MOV	A,R7
3F95  FF          MOV	A,R7
3F96  FF          MOV	A,R7
3F97  FF          MOV	A,R7
3F98  FF          MOV	A,R7
3F99  FF          MOV	A,R7
3F9A  FF          MOV	A,R7
3F9B  FF          MOV	A,R7
3F9C  FF          MOV	A,R7
3F9D  FF          MOV	A,R7
3F9E  FF          MOV	A,R7
3F9F  FF          MOV	A,R7
3FA0  FF          MOV	A,R7
3FA1  FF          MOV	A,R7
3FA2  FF          MOV	A,R7
3FA3  FF          MOV	A,R7
3FA4  FF          MOV	A,R7
3FA5  FF          MOV	A,R7
3FA6  FF          MOV	A,R7
3FA7  FF          MOV	A,R7
3FA8  FF          MOV	A,R7
3FA9  FF          MOV	A,R7
3FAA  FF          MOV	A,R7
3FAB  FF          MOV	A,R7
3FAC  FF          MOV	A,R7
3FAD  FF          MOV	A,R7
3FAE  FF          MOV	A,R7
3FAF  FF          MOV	A,R7
3FB0  FF          MOV	A,R7
3FB1  FF          MOV	A,R7
3FB2  FF          MOV	A,R7
3FB3  FF          MOV	A,R7
3FB4  FF          MOV	A,R7
3FB5  FF          MOV	A,R7
3FB6  FF          MOV	A,R7
3FB7  FF          MOV	A,R7
3FB8  FF          MOV	A,R7
3FB9  FF          MOV	A,R7
3FBA  FF          MOV	A,R7
3FBB  FF          MOV	A,R7
3FBC  FF          MOV	A,R7
3FBD  FF          MOV	A,R7
3FBE  FF          MOV	A,R7
3FBF  FF          MOV	A,R7
3FC0  FF          MOV	A,R7
3FC1  FF          MOV	A,R7
3FC2  FF          MOV	A,R7
3FC3  FF          MOV	A,R7
3FC4  FF          MOV	A,R7
3FC5  FF          MOV	A,R7
3FC6  FF          MOV	A,R7
3FC7  FF          MOV	A,R7
3FC8  FF          MOV	A,R7
3FC9  FF          MOV	A,R7
3FCA  FF          MOV	A,R7
3FCB  FF          MOV	A,R7
3FCC  FF          MOV	A,R7
3FCD  FF          MOV	A,R7
3FCE  FF          MOV	A,R7
3FCF  FF          MOV	A,R7
3FD0  FF          MOV	A,R7
3FD1  FF          MOV	A,R7
3FD2  FF          MOV	A,R7
3FD3  FF          MOV	A,R7
3FD4  FF          MOV	A,R7
3FD5  FF          MOV	A,R7
3FD6  FF          MOV	A,R7
3FD7  FF          MOV	A,R7
3FD8  FF          MOV	A,R7
3FD9  FF          MOV	A,R7
3FDA  FF          MOV	A,R7
3FDB  FF          MOV	A,R7
3FDC  FF          MOV	A,R7
3FDD  FF          MOV	A,R7
3FDE  FF          MOV	A,R7
3FDF  FF          MOV	A,R7
3FE0  FF          MOV	A,R7
3FE1  FF          MOV	A,R7
3FE2  FF          MOV	A,R7
3FE3  FF          MOV	A,R7
3FE4  FF          MOV	A,R7
3FE5  FF          MOV	A,R7
3FE6  FF          MOV	A,R7
3FE7  FF          MOV	A,R7
3FE8  FF          MOV	A,R7
3FE9  FF          MOV	A,R7
3FEA  FF          MOV	A,R7
3FEB  FF          MOV	A,R7
3FEC  FF          MOV	A,R7
3FED  FF          MOV	A,R7
3FEE  FF          MOV	A,R7
3FEF  FF          MOV	A,R7
3FF0  FF          MOV	A,R7
3FF1  FF          MOV	A,R7
3FF2  FF          MOV	A,R7
3FF3  FF          MOV	A,R7
3FF4  FF          MOV	A,R7
3FF5  FF          MOV	A,R7
3FF6  FF          MOV	A,R7
3FF7  FF          MOV	A,R7
3FF8  FF          MOV	A,R7
3FF9  FF          MOV	A,R7
3FFA  FF          MOV	A,R7
3FFB  FF          MOV	A,R7
3FFC  FF          MOV	A,R7
3FFD  FF          MOV	A,R7
3FFE  FF          MOV	A,R7
3FFF  FF          MOV	A,R7
4000  FF          MOV	A,R7
4001  FF          MOV	A,R7
4002  FF          MOV	A,R7
4003  FF          MOV	A,R7
4004  FF          MOV	A,R7
4005  FF          MOV	A,R7
4006  FF          MOV	A,R7
4007  FF          MOV	A,R7
4008  FF          MOV	A,R7
4009  FF          MOV	A,R7
400A  FF          MOV	A,R7
400B  FF          MOV	A,R7
400C  FF          MOV	A,R7
400D  FF          MOV	A,R7
400E  FF          MOV	A,R7
400F  FF          MOV	A,R7
4010  FF          MOV	A,R7
4011  FF          MOV	A,R7
4012  FF          MOV	A,R7
4013  FF          MOV	A,R7
4014  FF          MOV	A,R7
4015  FF          MOV	A,R7
4016  FF          MOV	A,R7
4017  FF          MOV	A,R7
4018  FF          MOV	A,R7
4019  FF          MOV	A,R7
401A  FF          MOV	A,R7
401B  FF          MOV	A,R7
401C  FF          MOV	A,R7
401D  FF          MOV	A,R7
401E  FF          MOV	A,R7
401F  FF          MOV	A,R7
4020  FF          MOV	A,R7
4021  FF          MOV	A,R7
4022  FF          MOV	A,R7
4023  FF          MOV	A,R7
4024  FF          MOV	A,R7
4025  FF          MOV	A,R7
4026  FF          MOV	A,R7
4027  FF          MOV	A,R7
4028  FF          MOV	A,R7
4029  FF          MOV	A,R7
402A  FF          MOV	A,R7
402B  FF          MOV	A,R7
402C  FF          MOV	A,R7
402D  FF          MOV	A,R7
402E  FF          MOV	A,R7
402F  FF          MOV	A,R7
4030  FF          MOV	A,R7
4031  FF          MOV	A,R7
4032  FF          MOV	A,R7
4033  FF          MOV	A,R7
4034  FF          MOV	A,R7
4035  FF          MOV	A,R7
4036  FF          MOV	A,R7
4037  FF          MOV	A,R7
4038  FF          MOV	A,R7
4039  FF          MOV	A,R7
403A  FF          MOV	A,R7
403B  FF          MOV	A,R7
403C  FF          MOV	A,R7
403D  FF          MOV	A,R7
403E  FF          MOV	A,R7
403F  FF          MOV	A,R7
4040  FF          MOV	A,R7
4041  FF          MOV	A,R7
4042  FF          MOV	A,R7
4043  FF          MOV	A,R7
4044  FF          MOV	A,R7
4045  FF          MOV	A,R7
4046  FF          MOV	A,R7
4047  FF          MOV	A,R7
4048  FF          MOV	A,R7
4049  FF          MOV	A,R7
404A  FF          MOV	A,R7
404B  FF          MOV	A,R7
404C  FF          MOV	A,R7
404D  FF          MOV	A,R7
404E  FF          MOV	A,R7
404F  FF          MOV	A,R7
4050  FF          MOV	A,R7
4051  FF          MOV	A,R7
4052  FF          MOV	A,R7
4053  FF          MOV	A,R7
4054  FF          MOV	A,R7
4055  FF          MOV	A,R7
4056  FF          MOV	A,R7
4057  FF          MOV	A,R7
4058  FF          MOV	A,R7
4059  FF          MOV	A,R7
405A  FF          MOV	A,R7
405B  FF          MOV	A,R7
405C  FF          MOV	A,R7
405D  FF          MOV	A,R7
405E  FF          MOV	A,R7
405F  FF          MOV	A,R7
4060  FF          MOV	A,R7
4061  FF          MOV	A,R7
4062  FF          MOV	A,R7
4063  FF          MOV	A,R7
4064  FF          MOV	A,R7
4065  FF          MOV	A,R7
4066  FF          MOV	A,R7
4067  FF          MOV	A,R7
4068  FF          MOV	A,R7
4069  FF          MOV	A,R7
406A  FF          MOV	A,R7
406B  FF          MOV	A,R7
406C  FF          MOV	A,R7
406D  FF          MOV	A,R7
406E  FF          MOV	A,R7
406F  FF          MOV	A,R7
4070  FF          MOV	A,R7
4071  FF          MOV	A,R7
4072  FF          MOV	A,R7
4073  FF          MOV	A,R7
4074  FF          MOV	A,R7
4075  FF          MOV	A,R7
4076  FF          MOV	A,R7
4077  FF          MOV	A,R7
4078  FF          MOV	A,R7
4079  FF          MOV	A,R7
407A  FF          MOV	A,R7
407B  FF          MOV	A,R7
407C  FF          MOV	A,R7
407D  FF          MOV	A,R7
407E  FF          MOV	A,R7
407F  FF          MOV	A,R7
4080  FF          MOV	A,R7
4081  FF          MOV	A,R7
4082  FF          MOV	A,R7
4083  FF          MOV	A,R7
4084  FF          MOV	A,R7
4085  FF          MOV	A,R7
4086  FF          MOV	A,R7
4087  FF          MOV	A,R7
4088  FF          MOV	A,R7
4089  FF          MOV	A,R7
408A  FF          MOV	A,R7
408B  FF          MOV	A,R7
408C  FF          MOV	A,R7
408D  FF          MOV	A,R7
408E  FF          MOV	A,R7
408F  FF          MOV	A,R7
4090  FF          MOV	A,R7
4091  FF          MOV	A,R7
4092  FF          MOV	A,R7
4093  FF          MOV	A,R7
4094  FF          MOV	A,R7
4095  FF          MOV	A,R7
